 oracledb

 Timestamp is 57c58329 (Tue Aug 30 14:59:21 2016)

 Preferred load address is 0000000180000000

 Start         Length     Name                   Class
 0001:00000000 000001dbH .text                   CODE
 0001:000001e0 000000b0H .text$di                CODE
 0001:00000290 0003fb50H .text$mn                CODE
 0001:0003fde0 00000012H .text$mn$00             CODE
 0001:0003fe00 00003a70H .text$x                 CODE
 0001:00043870 0000019cH .text$yd                CODE
 0002:00000000 000003d0H .idata$5                DATA
 0002:000003d0 00000010H .00cfg                  DATA
 0002:000003e0 00000008H .CRT$XCA                DATA
 0002:000003e8 00000018H .CRT$XCC                DATA
 0002:00000400 00000010H .CRT$XCL                DATA
 0002:00000410 00000030H .CRT$XCU                DATA
 0002:00000440 00000008H .CRT$XCZ                DATA
 0002:00000448 00000008H .CRT$XIA                DATA
 0002:00000450 00000030H .CRT$XIC                DATA
 0002:00000480 00000008H .CRT$XIZ                DATA
 0002:00000488 00000008H .CRT$XLA                DATA
 0002:00000490 00000008H .CRT$XLZ                DATA
 0002:00000498 00000008H .CRT$XPA                DATA
 0002:000004a0 00000010H .CRT$XPX                DATA
 0002:000004b0 00000008H .CRT$XPXA               DATA
 0002:000004b8 00000008H .CRT$XPZ                DATA
 0002:000004c0 00000008H .CRT$XTA                DATA
 0002:000004c8 00000008H .CRT$XTZ                DATA
 0002:000004d0 000108b4H .rdata                  DATA
 0002:00010d88 00000028H .rdata$T                DATA
 0002:00010db0 00000884H .rdata$r                DATA
 0002:00011638 00000010H .rdata$zETW0            DATA
 0002:00011648 00000077H .rdata$zETW1            DATA
 0002:000116bf 0000002cH .rdata$zETW2            DATA
 0002:000116eb 00000001H .rdata$zETW9            DATA
 0002:000116ec 00000514H .rdata$zzzdbg           DATA
 0002:00011c00 00000008H .rtc$IAA                DATA
 0002:00011c08 00000008H .rtc$IZZ                DATA
 0002:00011c10 00000008H .rtc$TAA                DATA
 0002:00011c18 00000008H .rtc$TZZ                DATA
 0002:00011c20 0000860cH .xdata                  DATA
 0002:0001a230 000002fcH .xdata$x                DATA
 0002:0001a52c 00000020H .didat$2                DATA
 0002:0001a54c 00000020H .didat$3                DATA
 0002:0001a570 000002a8H .didat$4                DATA
 0002:0001a818 000014c6H .didat$6                DATA
 0002:0001bce0 000002a8H .didat$7                DATA
 0002:0001bf90 00000054H .edata                  DATA
 0002:0001bfe4 0000003cH .idata$2                DATA
 0002:0001c020 00000014H .idata$3                DATA
 0002:0001c038 000003d0H .idata$4                DATA
 0002:0001c408 000008e6H .idata$6                DATA
 0003:00000000 00000c38H .data                   DATA
 0003:00000c40 00000364H .data$r                 DATA
 0003:00000fa8 000002a8H .didat$5                DATA
 0003:00001250 00001794H .bss                    DATA
 0004:00000000 00003354H .pdata                  DATA
 0005:00000000 000000b4H .gfids$x                DATA
 0005:000000b4 00000134H .gfids$y                DATA
 0006:00000000 00000001H .tls                    DATA
 0006:00000004 00000004H .tls$                   DATA
 0006:00000008 00000001H .tls$ZZZ                DATA
 0007:00000000 00000058H .rsrc$01                DATA
 0007:00000060 00000180H .rsrc$02                DATA

  Address         Publics by Value              Rva+Base               Lib:Object

 0000:00000000       __guard_iat_table          0000000000000000     <absolute>
 0000:00000000       __guard_iat_count          0000000000000000     <absolute>
 0000:00000000       __guard_longjmp_table      0000000000000000     <absolute>
 0000:00000000       __guard_longjmp_count      0000000000000000     <absolute>
 0000:00000000       __guard_fids_count         0000000000000000     <absolute>
 0000:00000000       ___safe_se_handler_table   0000000000000000     <absolute>
 0000:00000000       ___safe_se_handler_count   0000000000000000     <absolute>
 0000:00000000       __guard_fids_table         0000000000000000     <absolute>
 0000:00000100       __guard_flags              0000000000000100     <absolute>
 0000:00000000       __ImageBase                0000000180000000     <linker-defined>
 0001:00000000       ?TraceLoggingRegister@__vcrt_trace_logging_provider@@YAJPEBU_TlgProvider_t@1@PEBU_GUID@@P6AX1KE_K2PEAU_EVENT_FILTER_DESCRIPTOR@@PEAX@Z4@Z 0000000180001000 f i libvcruntime:telemetry.obj
 0001:0000007c       ?_TlgEnableCallback@__vcrt_trace_logging_provider@@YAXPEBU_GUID@@KE_K1PEAU_EVENT_FILTER_DESCRIPTOR@@PEAX@Z 000000018000107c f i libvcruntime:telemetry.obj
 0001:00000140       ?_TlgWrite@__vcrt_trace_logging_provider@@YAJPEBU_TlgProvider_t@1@PEFBXPEBU_GUID@@2IPEAU_EVENT_DATA_DESCRIPTOR@@@Z 0000000180001140 f i libvcruntime:telemetry.obj
 0001:00000290       __local_stdio_printf_options 0000000180001290 f i njsOracle.obj
 0001:000002a0       sprintf_s                  00000001800012a0 f i njsOracle.obj
 0001:00000300       ?what@exception@stdext@@UEBAPEBDXZ 0000000180001300 f i njsOracle.obj
 0001:00000320       ?_Raise@exception@stdext@@QEBAXXZ 0000000180001320 f i njsOracle.obj
 0001:00000360       ?_Doraise@exception@stdext@@MEBAXXZ 0000000180001360 f i njsOracle.obj
 0001:00000360       ?imbue@?$basic_streambuf@DU?$char_traits@D@std@@@std@@MEAAXAEBVlocale@2@@Z 0000000180001360 f i njsOracle.obj
 0001:00000360       _guard_check_icall_nop     0000000180001360 f i LIBCMT:guard_support.obj
 0001:00000360       ?_Unlock@?$basic_streambuf@DU?$char_traits@D@std@@@std@@UEAAXXZ 0000000180001360 f i njsOracle.obj
 0001:00000360       ?lobPrefetchSize@ConnImpl@@UEAAXI@Z 0000000180001360 f i dpiConnImpl.obj
 0001:00000360       ?_Lock@?$basic_streambuf@DU?$char_traits@D@std@@@std@@UEAAXXZ 0000000180001360 f i njsOracle.obj
 0001:00000360       __except_validate_context_record 0000000180001360 f i libvcruntime:jbcxrval.obj
 0001:00000370       ??_EException@dpi@@UEAAPEAXI@Z 0000000180001370 f i * CIL library *:* CIL module *
 0001:00000370       ??_Gexception@stdext@@UEAAPEAXI@Z 0000000180001370 f i njsOracle.obj
 0001:00000370       ??_Gruntime_error@std@@UEAAPEAXI@Z 0000000180001370 f i njsOracle.obj
 0001:00000370       ??_GException@dpi@@UEAAPEAXI@Z 0000000180001370 f i dpiEnvImpl.obj
 0001:00000370       ??_Eexception@stdext@@UEAAPEAXI@Z 0000000180001370 f i * CIL library *:* CIL module *
 0001:00000370       ??_Eruntime_error@std@@UEAAPEAXI@Z 0000000180001370 f i * CIL library *:* CIL module *
 0001:000003a0       ?_Doraise@runtime_error@std@@MEBAXXZ 00000001800013a0 f i njsOracle.obj
 0001:000003a0       ?_Doraise@failure@ios_base@std@@MEBAXXZ 00000001800013a0 f i njsOracle.obj
 0001:000003a0       ?_Doraise@system_error@std@@MEBAXXZ 00000001800013a0 f i njsOracle.obj
 0001:000003c0       ??1Exception@dpi@@UEAA@XZ  00000001800013c0 f i dpiException.obj
 0001:000003c0       ??1runtime_error@std@@UEAA@XZ 00000001800013c0 f i njsOracle.obj
 0001:000003c0       ??1failure@ios_base@std@@UEAA@XZ 00000001800013c0 f i njsOracle.obj
 0001:000003d0       ??1_Locinfo@std@@QEAA@XZ   00000001800013d0 f i njsOracle.obj
 0001:00000470       ??_E_Facet_base@std@@UEAAPEAXI@Z 0000000180001470 f i * CIL library *:* CIL module *
 0001:00000470       ??_G_Facet_base@std@@UEAAPEAXI@Z 0000000180001470 f i njsOracle.obj
 0001:000004a0       ?_Incref@facet@locale@std@@UEAAXXZ 00000001800014a0 f i njsOracle.obj
 0001:000004b0       ?_Decref@facet@locale@std@@UEAAPEAV_Facet_base@3@XZ 00000001800014b0 f i njsOracle.obj
 0001:000004d0       ??1facet@locale@std@@MEAA@XZ 00000001800014d0 f i njsOracle.obj
 0001:000004e0       ??1locale@std@@QEAA@XZ     00000001800014e0 f i njsOracle.obj
 0001:00000510       ?_Getcat@?$ctype@D@std@@SA_KPEAPEBVfacet@locale@2@PEBV42@@Z 0000000180001510 f i njsOracle.obj
 0001:00000670       ?do_tolower@?$ctype@D@std@@MEBADD@Z 0000000180001670 f i njsOracle.obj
 0001:00000680       ?do_tolower@?$ctype@D@std@@MEBAPEBDPEADPEBD@Z 0000000180001680 f i njsOracle.obj
 0001:000006e0       ?do_toupper@?$ctype@D@std@@MEBADD@Z 00000001800016e0 f i njsOracle.obj
 0001:000006f0       ?do_toupper@?$ctype@D@std@@MEBAPEBDPEADPEBD@Z 00000001800016f0 f i njsOracle.obj
 0001:00000750       ?do_widen@?$ctype@D@std@@MEBADD@Z 0000000180001750 f i njsOracle.obj
 0001:00000750       ?do_narrow@?$ctype@D@std@@MEBADDD@Z 0000000180001750 f i njsOracle.obj
 0001:00000760       ?do_widen@?$ctype@D@std@@MEBAPEBDPEBD0PEAD@Z 0000000180001760 f i njsOracle.obj
 0001:00000780       ?do_narrow@?$ctype@D@std@@MEBAPEBDPEBD0DPEAD@Z 0000000180001780 f i njsOracle.obj
 0001:000007a0       ??_G?$ctype@D@std@@MEAAPEAXI@Z 00000001800017a0 f i njsOracle.obj
 0001:000007a0       ??_E?$ctype@D@std@@MEAAPEAXI@Z 00000001800017a0 f i * CIL library *:* CIL module *
 0001:00000810       ??_G_Iostream_error_category@std@@UEAAPEAXI@Z 0000000180001810 f i njsOracle.obj
 0001:00000810       ??_E_Iostream_error_category@std@@UEAAPEAXI@Z 0000000180001810 f i * CIL library *:* CIL module *
 0001:00000810       ??_Eerror_category@std@@UEAAPEAXI@Z 0000000180001810 f i * CIL library *:* CIL module *
 0001:00000810       ??_Gerror_category@std@@UEAAPEAXI@Z 0000000180001810 f i njsOracle.obj
 0001:00000840       ?message@error_code@std@@QEBA?AV?$basic_string@DU?$char_traits@D@std@@V?$allocator@D@2@@2@XZ 0000000180001840 f i njsOracle.obj
 0001:00000870       ?default_error_condition@error_category@std@@UEBA?AVerror_condition@2@H@Z 0000000180001870 f i njsOracle.obj
 0001:00000880       ?equivalent@error_category@std@@UEBA_NHAEBVerror_condition@2@@Z 0000000180001880 f i njsOracle.obj
 0001:000008a0       ?equivalent@error_category@std@@UEBA_NAEBVerror_code@2@H@Z 00000001800018a0 f i njsOracle.obj
 0001:000008c0       ?_Makestr@_System_error@std@@CA?AV?$basic_string@DU?$char_traits@D@std@@V?$allocator@D@2@@2@Verror_code@2@V32@@Z 00000001800018c0 f i njsOracle.obj
 0001:000009a0       ??_Gsystem_error@std@@UEAAPEAXI@Z 00000001800019a0 f i njsOracle.obj
 0001:000009a0       ??_E_System_error@std@@UEAAPEAXI@Z 00000001800019a0 f i * CIL library *:* CIL module *
 0001:000009a0       ??_G_System_error@std@@UEAAPEAXI@Z 00000001800019a0 f i njsOracle.obj
 0001:000009a0       ??_Esystem_error@std@@UEAAPEAXI@Z 00000001800019a0 f i * CIL library *:* CIL module *
 0001:000009a0       ??_Efailure@ios_base@std@@UEAAPEAXI@Z 00000001800019a0 f i * CIL library *:* CIL module *
 0001:000009a0       ??_Gfailure@ios_base@std@@UEAAPEAXI@Z 00000001800019a0 f i njsOracle.obj
 0001:000009d0       ??0system_error@std@@QEAA@Verror_code@1@PEBD@Z 00000001800019d0 f i njsOracle.obj
 0001:00000b30       ?message@_Generic_error_category@std@@UEBA?AV?$basic_string@DU?$char_traits@D@std@@V?$allocator@D@2@@2@H@Z 0000000180001b30 f i njsOracle.obj
 0001:00000b90       ?name@_Iostream_error_category@std@@UEBAPEBDXZ 0000000180001b90 f i njsOracle.obj
 0001:00000ba0       ?message@_Iostream_error_category@std@@UEBA?AV?$basic_string@DU?$char_traits@D@std@@V?$allocator@D@2@@2@H@Z 0000000180001ba0 f i njsOracle.obj
 0001:00000bf0       ?clear@ios_base@std@@QEAAXH_N@Z 0000000180001bf0 f i njsOracle.obj
 0001:00000cf0       ?getloc@ios_base@std@@QEBA?AVlocale@2@XZ 0000000180001cf0 f i njsOracle.obj
 0001:00000d20       ?_Init@ios_base@std@@IEAAXXZ 0000000180001d20 f i njsOracle.obj
 0001:00000da0       ??_Eios_base@std@@UEAAPEAXI@Z 0000000180001da0 f i * CIL library *:* CIL module *
 0001:00000da0       ??_Gios_base@std@@UEAAPEAXI@Z 0000000180001da0 f i njsOracle.obj
 0001:00001000       ?New@?$Factory@VFunctionTemplate@v8@@@imp@Nan@@SA?AV?$Local@VFunctionTemplate@v8@@@v8@@P6AXAEBV?$FunctionCallbackInfo@VValue@v8@@@3@@ZV?$Local@VValue@v8@@@5@V?$Local@VSignature@v8@@@5@@Z 0000000180002000 f i njsOracle.obj
 0001:00001190       ?ThrowError@Nan@@YAXPEBD@Z 0000000180002190 f i njsOracle.obj
 0001:00001230       ??1HandleScope@Nan@@QEAA@XZ 0000000180002230 f i njsOracle.obj
 0001:00001230       ??1EscapableHandleScope@Nan@@QEAA@XZ 0000000180002230 f i njsPool.obj
 0001:00001240       ??1?$Persistent@VObject@v8@@V?$NonCopyablePersistentTraits@VObject@v8@@@2@@Nan@@QEAA@XZ 0000000180002240 f i njsOracle.obj
 0001:00001240       ??1?$Persistent@VFunction@v8@@V?$NonCopyablePersistentTraits@VFunction@v8@@@2@@Nan@@QEAA@XZ 0000000180002240 f i njsOracle.obj
 0001:00001260       ?SetPrototypeMethod@Nan@@YAXV?$Local@VFunctionTemplate@v8@@@v8@@PEBDP6AXAEBV?$FunctionCallbackInfo@VValue@v8@@@1@@Z@Z 0000000180002260 f i njsOracle.obj
 0001:00001370       ?SetAccessor@Nan@@YAXV?$Local@VObjectTemplate@v8@@@v8@@V?$Local@VString@v8@@@3@P6AX1AEBV?$PropertyCallbackInfo@VValue@v8@@@1@@ZP6AX1V?$Local@VValue@v8@@@3@AEBV?$PropertyCallbackInfo@X@1@@Z4W4AccessControl@3@W4PropertyAttribute@3@V?$Local@VAccessorSignature@v8@@@3@@Z 0000000180002370 f i njsOracle.obj
 0001:00001510       ??1ObjectWrap@Nan@@UEAA@XZ 0000000180002510 f i njsOracle.obj
 0001:00001590       ?Wrap@ObjectWrap@Nan@@IEAAXV?$Local@VObject@v8@@@v8@@@Z 0000000180002590 f i njsOracle.obj
 0001:00001670       ?Ref@ObjectWrap@Nan@@MEAAXXZ 0000000180002670 f i njsOracle.obj
 0001:000016b0       ?Unref@ObjectWrap@Nan@@MEAAXXZ 00000001800026b0 f i njsOracle.obj
 0001:00001760       ?WeakCallback@ObjectWrap@Nan@@CAXAEBV?$WeakCallbackInfo@VObjectWrap@Nan@@@v8@@@Z 0000000180002760 f i njsOracle.obj
 0001:000017f0       ??_EObjectWrap@Nan@@UEAAPEAXI@Z 00000001800027f0 f i * CIL library *:* CIL module *
 0001:000017f0       ??_GObjectWrap@Nan@@UEAAPEAXI@Z 00000001800027f0 f i njsOracle.obj
 0001:00001830       ??0connectionBaton@@QEAA@V?$Local@VFunction@v8@@@v8@@V?$Local@VObject@v8@@@2@@Z 0000000180002830 f i njsOracle.obj
 0001:000019e0       ??1connectionBaton@@QEAA@XZ 00000001800029e0 f i njsOracle.obj
 0001:00001b30       ??0Oracledb@@AEAA@XZ       0000000180002b30 f   njsOracle.obj
 0001:00001c60       ??_GOracledb@@EEAAPEAXI@Z  0000000180002c60 f i njsOracle.obj
 0001:00001c60       ??_EOracledb@@EEAAPEAXI@Z  0000000180002c60 f i * CIL library *:* CIL module *
 0001:00001ca0       ??1Oracledb@@EEAA@XZ       0000000180002ca0 f   njsOracle.obj
 0001:00001de0       ?driverName@Oracledb@@AEBA?BV?$basic_string@DU?$char_traits@D@std@@V?$allocator@D@2@@std@@XZ 0000000180002de0 f   njsOracle.obj
 0001:00001ec0       ??_D?$basic_stringstream@DU?$char_traits@D@std@@V?$allocator@D@2@@std@@QEAAXXZ 0000000180002ec0 f i njsOracle.obj
 0001:00001ef0       ?Init@Oracledb@@SAXV?$Local@VObject@v8@@@v8@@@Z 0000000180002ef0 f   njsOracle.obj
 0001:00002720       ?New@Oracledb@@CAXAEBV?$FunctionCallbackInfo@VValue@v8@@@Nan@@@Z 0000000180003720 f   njsOracle.obj
 0001:00002820       ?GetPoolMin@Oracledb@@CAXV?$Local@VString@v8@@@v8@@AEBV?$PropertyCallbackInfo@VValue@v8@@@Nan@@@Z 0000000180003820 f   njsOracle.obj
 0001:00002920       ?SetPoolMin@Oracledb@@CAXV?$Local@VString@v8@@@v8@@V?$Local@VValue@v8@@@3@AEBV?$PropertyCallbackInfo@X@Nan@@@Z 0000000180003920 f   njsOracle.obj
 0001:00002a90       ?GetPoolMax@Oracledb@@CAXV?$Local@VString@v8@@@v8@@AEBV?$PropertyCallbackInfo@VValue@v8@@@Nan@@@Z 0000000180003a90 f   njsOracle.obj
 0001:00002b90       ?SetPoolMax@Oracledb@@CAXV?$Local@VString@v8@@@v8@@V?$Local@VValue@v8@@@3@AEBV?$PropertyCallbackInfo@X@Nan@@@Z 0000000180003b90 f   njsOracle.obj
 0001:00002d00       ?GetPoolIncrement@Oracledb@@CAXV?$Local@VString@v8@@@v8@@AEBV?$PropertyCallbackInfo@VValue@v8@@@Nan@@@Z 0000000180003d00 f   njsOracle.obj
 0001:00002e30       ?SetPoolIncrement@Oracledb@@CAXV?$Local@VString@v8@@@v8@@V?$Local@VValue@v8@@@3@AEBV?$PropertyCallbackInfo@X@Nan@@@Z 0000000180003e30 f   njsOracle.obj
 0001:00002fa0       ?GetPoolTimeout@Oracledb@@CAXV?$Local@VString@v8@@@v8@@AEBV?$PropertyCallbackInfo@VValue@v8@@@Nan@@@Z 0000000180003fa0 f   njsOracle.obj
 0001:000030a0       ?SetPoolTimeout@Oracledb@@CAXV?$Local@VString@v8@@@v8@@V?$Local@VValue@v8@@@3@AEBV?$PropertyCallbackInfo@X@Nan@@@Z 00000001800040a0 f   njsOracle.obj
 0001:00003210       ?GetMaxRows@Oracledb@@CAXV?$Local@VString@v8@@@v8@@AEBV?$PropertyCallbackInfo@VValue@v8@@@Nan@@@Z 0000000180004210 f   njsOracle.obj
 0001:00003340       ?SetMaxRows@Oracledb@@CAXV?$Local@VString@v8@@@v8@@V?$Local@VValue@v8@@@3@AEBV?$PropertyCallbackInfo@X@Nan@@@Z 0000000180004340 f   njsOracle.obj
 0001:00003500       ?GetOutFormat@Oracledb@@CAXV?$Local@VString@v8@@@v8@@AEBV?$PropertyCallbackInfo@VValue@v8@@@Nan@@@Z 0000000180004500 f   njsOracle.obj
 0001:00003600       ?SetOutFormat@Oracledb@@CAXV?$Local@VString@v8@@@v8@@V?$Local@VValue@v8@@@3@AEBV?$PropertyCallbackInfo@X@Nan@@@Z 0000000180004600 f   njsOracle.obj
 0001:00003770       ?GetStmtCacheSize@Oracledb@@CAXV?$Local@VString@v8@@@v8@@AEBV?$PropertyCallbackInfo@VValue@v8@@@Nan@@@Z 0000000180004770 f   njsOracle.obj
 0001:000038a0       ?SetStmtCacheSize@Oracledb@@CAXV?$Local@VString@v8@@@v8@@V?$Local@VValue@v8@@@3@AEBV?$PropertyCallbackInfo@X@Nan@@@Z 00000001800048a0 f   njsOracle.obj
 0001:00003a10       ?GetPrefetchRows@Oracledb@@CAXV?$Local@VString@v8@@@v8@@AEBV?$PropertyCallbackInfo@VValue@v8@@@Nan@@@Z 0000000180004a10 f   njsOracle.obj
 0001:00003b10       ?SetPrefetchRows@Oracledb@@CAXV?$Local@VString@v8@@@v8@@V?$Local@VValue@v8@@@3@AEBV?$PropertyCallbackInfo@X@Nan@@@Z 0000000180004b10 f   njsOracle.obj
 0001:00003c80       ?GetAutoCommit@Oracledb@@CAXV?$Local@VString@v8@@@v8@@AEBV?$PropertyCallbackInfo@VValue@v8@@@Nan@@@Z 0000000180004c80 f   njsOracle.obj
 0001:00003d70       ?SetAutoCommit@Oracledb@@CAXV?$Local@VString@v8@@@v8@@V?$Local@VValue@v8@@@3@AEBV?$PropertyCallbackInfo@X@Nan@@@Z 0000000180004d70 f   njsOracle.obj
 0001:00003e20       ?GetExtendedMetaData@Oracledb@@CAXV?$Local@VString@v8@@@v8@@AEBV?$PropertyCallbackInfo@VValue@v8@@@Nan@@@Z 0000000180004e20 f   njsOracle.obj
 0001:00003f10       ?SetExtendedMetaData@Oracledb@@CAXV?$Local@VString@v8@@@v8@@V?$Local@VValue@v8@@@3@AEBV?$PropertyCallbackInfo@X@Nan@@@Z 0000000180004f10 f   njsOracle.obj
 0001:00003fc0       ?GetVersion@Oracledb@@CAXV?$Local@VString@v8@@@v8@@AEBV?$PropertyCallbackInfo@VValue@v8@@@Nan@@@Z 0000000180004fc0 f   njsOracle.obj
 0001:00003fe0       ?SetVersion@Oracledb@@CAXV?$Local@VString@v8@@@v8@@V?$Local@VValue@v8@@@3@AEBV?$PropertyCallbackInfo@X@Nan@@@Z 0000000180004fe0 f   njsOracle.obj
 0001:000040e0       ?GetConnectionClass@Oracledb@@CAXV?$Local@VString@v8@@@v8@@AEBV?$PropertyCallbackInfo@VValue@v8@@@Nan@@@Z 00000001800050e0 f   njsOracle.obj
 0001:000041f0       ?SetConnectionClass@Oracledb@@CAXV?$Local@VString@v8@@@v8@@V?$Local@VValue@v8@@@3@AEBV?$PropertyCallbackInfo@X@Nan@@@Z 00000001800051f0 f   njsOracle.obj
 0001:00004340       ?GetExternalAuth@Oracledb@@CAXV?$Local@VString@v8@@@v8@@AEBV?$PropertyCallbackInfo@VValue@v8@@@Nan@@@Z 0000000180005340 f   njsOracle.obj
 0001:00004400       ?SetExternalAuth@Oracledb@@CAXV?$Local@VString@v8@@@v8@@V?$Local@VValue@v8@@@3@AEBV?$PropertyCallbackInfo@X@Nan@@@Z 0000000180005400 f   njsOracle.obj
 0001:000044b0       ?GetLobPrefetchSize@Oracledb@@CAXV?$Local@VString@v8@@@v8@@AEBV?$PropertyCallbackInfo@VValue@v8@@@Nan@@@Z 00000001800054b0 f   njsOracle.obj
 0001:000045e0       ?SetLobPrefetchSize@Oracledb@@CAXV?$Local@VString@v8@@@v8@@V?$Local@VValue@v8@@@3@AEBV?$PropertyCallbackInfo@X@Nan@@@Z 00000001800055e0 f   njsOracle.obj
 0001:00004750       ?GetFetchAsString@Oracledb@@CAXV?$Local@VString@v8@@@v8@@AEBV?$PropertyCallbackInfo@VValue@v8@@@Nan@@@Z 0000000180005750 f   njsOracle.obj
 0001:00004910       ?SetFetchAsString@Oracledb@@CAXV?$Local@VString@v8@@@v8@@V?$Local@VValue@v8@@@3@AEBV?$PropertyCallbackInfo@X@Nan@@@Z 0000000180005910 f   njsOracle.obj
 0001:00004cb0       ?GetOracleClientVersion@Oracledb@@CAXV?$Local@VString@v8@@@v8@@AEBV?$PropertyCallbackInfo@VValue@v8@@@Nan@@@Z 0000000180005cb0 f   njsOracle.obj
 0001:00004de0       ?SetOracleClientVersion@Oracledb@@CAXV?$Local@VString@v8@@@v8@@V?$Local@VValue@v8@@@3@AEBV?$PropertyCallbackInfo@X@Nan@@@Z 0000000180005de0 f   njsOracle.obj
 0001:00004ee0       ?GetConnection@Oracledb@@CAXAEBV?$FunctionCallbackInfo@VValue@v8@@@Nan@@@Z 0000000180005ee0 f   njsOracle.obj
 0001:000058c0       ??_GconnectionBaton@@QEAAPEAXI@Z 00000001800068c0 f i njsOracle.obj
 0001:000058f0       ?Async_GetConnection@Oracledb@@CAXPEAUuv_work_s@@@Z 00000001800068f0 f   njsOracle.obj
 0001:000059b0       ?Async_AfterGetConnection@Oracledb@@CAXPEAUuv_work_s@@@Z 00000001800069b0 f   njsOracle.obj
 0001:00005c20       ??1TryCatch@Nan@@QEAA@XZ   0000000180006c20 f i njsOracle.obj
 0001:00005c30       ?CreatePool@Oracledb@@CAXAEBV?$FunctionCallbackInfo@VValue@v8@@@Nan@@@Z 0000000180006c30 f   njsOracle.obj
 0001:00006a80       ?Async_CreatePool@Oracledb@@CAXPEAUuv_work_s@@@Z 0000000180007a80 f   njsOracle.obj
 0001:00006b40       ?Async_AfterCreatePool@Oracledb@@CAXPEAUuv_work_s@@@Z 0000000180007b40 f   njsOracle.obj
 0001:00006e60       ?getFetchAsStringTypes@Oracledb@@QEBAPEBW4DataType@@XZ 0000000180007e60 f   njsOracle.obj
 0001:00006ee0       ??1?$_Yarn@D@std@@QEAA@XZ  0000000180007ee0 f i njsOracle.obj
 0001:00006ee0       ??1?$_Yarn@_W@std@@QEAA@XZ 0000000180007ee0 f i njsOracle.obj
 0001:00006f10       ??4?$basic_string@DU?$char_traits@D@std@@V?$allocator@D@2@@std@@QEAAAEAV01@AEBV01@@Z 0000000180007f10 f i njsOracle.obj
 0001:00006f40       ??1fetchInfo@@QEAA@XZ      0000000180007f40 f i njsConnection.obj
 0001:00006f40       ??1?$basic_string@DU?$char_traits@D@std@@V?$allocator@D@2@@std@@QEAA@XZ 0000000180007f40 f i njsOracle.obj
 0001:00006f40       ??1MetaInfo@@QEAA@XZ       0000000180007f40 f i njsConnection.obj
 0001:00006f80       ??4?$basic_string@DU?$char_traits@D@std@@V?$allocator@D@2@@std@@QEAAAEAV01@$$QEAV01@@Z 0000000180007f80 f i njsOracle.obj
 0001:00006fe0       ??0?$basic_string@DU?$char_traits@D@std@@V?$allocator@D@2@@std@@QEAA@$$QEAV01@@Z 0000000180007fe0 f i njsOracle.obj
 0001:00007060       ??0?$basic_string@DU?$char_traits@D@std@@V?$allocator@D@2@@std@@QEAA@AEBV01@@Z 0000000180008060 f i njsOracle.obj
 0001:000070a0       ?str@?$basic_stringstream@DU?$char_traits@D@std@@V?$allocator@D@2@@std@@QEBA?AV?$basic_string@DU?$char_traits@D@std@@V?$allocator@D@2@@2@XZ 00000001800080a0 f i njsOracle.obj
 0001:000070d0       ??1?$basic_stringstream@DU?$char_traits@D@std@@V?$allocator@D@2@@std@@UEAA@XZ 00000001800080d0 f i njsOracle.obj
 0001:00007200       ??0?$basic_stringstream@DU?$char_traits@D@std@@V?$allocator@D@2@@std@@QEAA@H@Z 0000000180008200 f i njsOracle.obj
 0001:000072c0       ?seekpos@?$basic_stringbuf@DU?$char_traits@D@std@@V?$allocator@D@2@@std@@MEAA?AV?$fpos@U_Mbstatet@@@2@V32@H@Z 00000001800082c0 f i njsOracle.obj
 0001:000073d0       ?seekoff@?$basic_stringbuf@DU?$char_traits@D@std@@V?$allocator@D@2@@std@@MEAA?AV?$fpos@U_Mbstatet@@@2@_JHH@Z 00000001800083d0 f i njsOracle.obj
 0001:00007560       ?underflow@?$basic_stringbuf@DU?$char_traits@D@std@@V?$allocator@D@2@@std@@MEAAHXZ 0000000180008560 f i njsOracle.obj
 0001:000075c0       ?pbackfail@?$basic_stringbuf@DU?$char_traits@D@std@@V?$allocator@D@2@@std@@MEAAHH@Z 00000001800085c0 f i njsOracle.obj
 0001:00007610       ?overflow@?$basic_stringbuf@DU?$char_traits@D@std@@V?$allocator@D@2@@std@@MEAAHH@Z 0000000180008610 f i njsOracle.obj
 0001:00007880       ??1?$basic_iostream@DU?$char_traits@D@std@@@std@@UEAA@XZ 0000000180008880 f i njsOracle.obj
 0001:00007900       ??6?$basic_ostream@DU?$char_traits@D@std@@@std@@QEAAAEAV01@H@Z 0000000180008900 f i njsOracle.obj
 0001:00007ad0       ??1?$basic_istream@DU?$char_traits@D@std@@@std@@UEAA@XZ 0000000180008ad0 f i njsOracle.obj
 0001:00007b00       ?sync@?$basic_streambuf@DU?$char_traits@D@std@@@std@@MEAAHXZ 0000000180008b00 f i njsOracle.obj
 0001:00007b00       ?showmanyc@?$basic_streambuf@DU?$char_traits@D@std@@@std@@MEAA_JXZ 0000000180008b00 f i njsOracle.obj
 0001:00007b10       ?setbuf@?$basic_streambuf@DU?$char_traits@D@std@@@std@@MEAAPEAV12@PEAD_J@Z 0000000180008b10 f i njsOracle.obj
 0001:00007b20       ?seekoff@?$basic_streambuf@DU?$char_traits@D@std@@@std@@MEAA?AV?$fpos@U_Mbstatet@@@2@_JHH@Z 0000000180008b20 f i njsOracle.obj
 0001:00007b20       ?seekpos@?$basic_streambuf@DU?$char_traits@D@std@@@std@@MEAA?AV?$fpos@U_Mbstatet@@@2@V32@H@Z 0000000180008b20 f i njsOracle.obj
 0001:00007b40       ?xsputn@?$basic_streambuf@DU?$char_traits@D@std@@@std@@MEAA_JPEBD_J@Z 0000000180008b40 f i njsOracle.obj
 0001:00007c00       ?xsgetn@?$basic_streambuf@DU?$char_traits@D@std@@@std@@MEAA_JPEAD_J@Z 0000000180008c00 f i njsOracle.obj
 0001:00007d00       ?uflow@?$basic_streambuf@DU?$char_traits@D@std@@@std@@MEAAHXZ 0000000180008d00 f i njsOracle.obj
 0001:00007d40       ?overflow@?$basic_streambuf@DU?$char_traits@D@std@@@std@@MEAAHH@Z 0000000180008d40 f i njsOracle.obj
 0001:00007d40       ?pbackfail@?$basic_streambuf@DU?$char_traits@D@std@@@std@@MEAAHH@Z 0000000180008d40 f i njsOracle.obj
 0001:00007d40       ?underflow@?$basic_streambuf@DU?$char_traits@D@std@@@std@@MEAAHXZ 0000000180008d40 f i njsOracle.obj
 0001:00007d50       ??1?$basic_streambuf@DU?$char_traits@D@std@@@std@@UEAA@XZ 0000000180008d50 f i njsOracle.obj
 0001:00007db0       ??1?$basic_ios@DU?$char_traits@D@std@@@std@@UEAA@XZ 0000000180008db0 f i njsOracle.obj
 0001:00007dc0       ??_G?$basic_stringstream@DU?$char_traits@D@std@@V?$allocator@D@2@@std@@UEAAPEAXI@Z 0000000180008dc0 f i njsOracle.obj
 0001:00007dc0       ??_E?$basic_stringstream@DU?$char_traits@D@std@@V?$allocator@D@2@@std@@UEAAPEAXI@Z 0000000180008dc0 f i * CIL library *:* CIL module *
 0001:00007e30       ??_G?$basic_stringbuf@DU?$char_traits@D@std@@V?$allocator@D@2@@std@@UEAAPEAXI@Z 0000000180008e30 f i njsOracle.obj
 0001:00007e30       ??_E?$basic_stringbuf@DU?$char_traits@D@std@@V?$allocator@D@2@@std@@UEAAPEAXI@Z 0000000180008e30 f i * CIL library *:* CIL module *
 0001:00007ec0       ??_G?$basic_iostream@DU?$char_traits@D@std@@@std@@UEAAPEAXI@Z 0000000180008ec0 f i njsOracle.obj
 0001:00007ec0       ??_E?$basic_iostream@DU?$char_traits@D@std@@@std@@UEAAPEAXI@Z 0000000180008ec0 f i * CIL library *:* CIL module *
 0001:00007f00       ??_E?$basic_ostream@DU?$char_traits@D@std@@@std@@UEAAPEAXI@Z 0000000180008f00 f i * CIL library *:* CIL module *
 0001:00007f00       ??_G?$basic_ostream@DU?$char_traits@D@std@@@std@@UEAAPEAXI@Z 0000000180008f00 f i njsOracle.obj
 0001:00007f70       ??_G?$basic_istream@DU?$char_traits@D@std@@@std@@UEAAPEAXI@Z 0000000180008f70 f i njsOracle.obj
 0001:00007f70       ??_E?$basic_istream@DU?$char_traits@D@std@@@std@@UEAAPEAXI@Z 0000000180008f70 f i * CIL library *:* CIL module *
 0001:00007fe0       ??_G?$basic_streambuf@DU?$char_traits@D@std@@@std@@UEAAPEAXI@Z 0000000180008fe0 f i njsOracle.obj
 0001:00007fe0       ??_E?$basic_streambuf@DU?$char_traits@D@std@@@std@@UEAAPEAXI@Z 0000000180008fe0 f i * CIL library *:* CIL module *
 0001:00008060       ??_Glocale@std@@QEAAPEAXI@Z 0000000180009060 f i njsOracle.obj
 0001:000080c0       ??_E?$basic_ios@DU?$char_traits@D@std@@@std@@UEAAPEAXI@Z 00000001800090c0 f i * CIL library *:* CIL module *
 0001:000080c0       ??_G?$basic_ios@DU?$char_traits@D@std@@@std@@UEAAPEAXI@Z 00000001800090c0 f i njsOracle.obj
 0001:00008100       ??_D?$basic_iostream@DU?$char_traits@D@std@@@std@@QEAAXXZ 0000000180009100 f i njsOracle.obj
 0001:00008190       ??1sentry@?$basic_ostream@DU?$char_traits@D@std@@@std@@QEAA@XZ 0000000180009190 f i njsOracle.obj
 0001:00008230       ??0sentry@?$basic_ostream@DU?$char_traits@D@std@@@std@@QEAA@AEAV12@@Z 0000000180009230 f i njsOracle.obj
 0001:000082c0       ?do_put@?$num_put@DV?$ostreambuf_iterator@DU?$char_traits@D@std@@@std@@@std@@MEBA?AV?$ostreambuf_iterator@DU?$char_traits@D@std@@@2@V32@AEAVios_base@2@DPEBX@Z 00000001800092c0 f i njsOracle.obj
 0001:00008360       ?do_put@?$num_put@DV?$ostreambuf_iterator@DU?$char_traits@D@std@@@std@@@std@@MEBA?AV?$ostreambuf_iterator@DU?$char_traits@D@std@@@2@V32@AEAVios_base@2@DO@Z 0000000180009360 f i njsOracle.obj
 0001:000085a0       ?do_put@?$num_put@DV?$ostreambuf_iterator@DU?$char_traits@D@std@@@std@@@std@@MEBA?AV?$ostreambuf_iterator@DU?$char_traits@D@std@@@2@V32@AEAVios_base@2@DN@Z 00000001800095a0 f i njsOracle.obj
 0001:000087e0       ?do_put@?$num_put@DV?$ostreambuf_iterator@DU?$char_traits@D@std@@@std@@@std@@MEBA?AV?$ostreambuf_iterator@DU?$char_traits@D@std@@@2@V32@AEAVios_base@2@D_K@Z 00000001800097e0 f i njsOracle.obj
 0001:000088e0       ?do_put@?$num_put@DV?$ostreambuf_iterator@DU?$char_traits@D@std@@@std@@@std@@MEBA?AV?$ostreambuf_iterator@DU?$char_traits@D@std@@@2@V32@AEAVios_base@2@D_J@Z 00000001800098e0 f i njsOracle.obj
 0001:000089e0       ?do_put@?$num_put@DV?$ostreambuf_iterator@DU?$char_traits@D@std@@@std@@@std@@MEBA?AV?$ostreambuf_iterator@DU?$char_traits@D@std@@@2@V32@AEAVios_base@2@DK@Z 00000001800099e0 f i njsOracle.obj
 0001:00008ae0       ?do_put@?$num_put@DV?$ostreambuf_iterator@DU?$char_traits@D@std@@@std@@@std@@MEBA?AV?$ostreambuf_iterator@DU?$char_traits@D@std@@@2@V32@AEAVios_base@2@DJ@Z 0000000180009ae0 f i njsOracle.obj
 0001:00008be0       ?do_put@?$num_put@DV?$ostreambuf_iterator@DU?$char_traits@D@std@@@std@@@std@@MEBA?AV?$ostreambuf_iterator@DU?$char_traits@D@std@@@2@V32@AEAVios_base@2@D_N@Z 0000000180009be0 f i njsOracle.obj
 0001:00008ef0       ?assign@?$basic_string@DU?$char_traits@D@std@@V?$allocator@D@2@@std@@QEAAAEAV12@_KD@Z 0000000180009ef0 f i njsOracle.obj
 0001:00009000       ?assign@?$basic_string@DU?$char_traits@D@std@@V?$allocator@D@2@@std@@QEAAAEAV12@PEBD_K@Z 000000018000a000 f i njsOracle.obj
 0001:00009140       ?assign@?$basic_string@DU?$char_traits@D@std@@V?$allocator@D@2@@std@@QEAAAEAV12@AEBV12@_K1@Z 000000018000a140 f i njsOracle.obj
 0001:00009270       ?append@?$basic_string@DU?$char_traits@D@std@@V?$allocator@D@2@@std@@QEAAAEAV12@PEBD_K@Z 000000018000a270 f i njsOracle.obj
 0001:000093c0       ?append@?$basic_string@DU?$char_traits@D@std@@V?$allocator@D@2@@std@@QEAAAEAV12@AEBV12@_K1@Z 000000018000a3c0 f i njsOracle.obj
 0001:000094f0       ?_Assign_rv@?$basic_string@DU?$char_traits@D@std@@V?$allocator@D@2@@std@@QEAAX$$QEAV12@@Z 000000018000a4f0 f i njsOracle.obj
 0001:00009560       ?_Tidy@?$basic_stringbuf@DU?$char_traits@D@std@@V?$allocator@D@2@@std@@IEAAXXZ 000000018000a560 f i njsOracle.obj
 0001:00009630       ?str@?$basic_stringbuf@DU?$char_traits@D@std@@V?$allocator@D@2@@std@@QEBA?AV?$basic_string@DU?$char_traits@D@std@@V?$allocator@D@2@@2@XZ 000000018000a630 f i njsOracle.obj
 0001:000097c0       ?allocate@?$allocator@D@std@@QEAAPEAD_K@Z 000000018000a7c0 f i njsOracle.obj
 0001:000097c0       ?allocate@?$_Wrap_alloc@V?$allocator@D@std@@@std@@QEAAPEAD_K@Z 000000018000a7c0 f i njsOracle.obj
 0001:00009830       ?deallocate@?$allocator@D@std@@QEAAXPEAD_K@Z 000000018000a830 f i njsOracle.obj
 0001:00009830       ?deallocate@?$_Wrap_alloc@V?$allocator@D@std@@@std@@QEAAXPEAD_K@Z 000000018000a830 f i njsOracle.obj
 0001:00009890       ??0?$basic_iostream@DU?$char_traits@D@std@@@std@@QEAA@PEAV?$basic_streambuf@DU?$char_traits@D@std@@@1@@Z 000000018000a890 f i njsOracle.obj
 0001:00009940       ?_Pnavail@?$basic_streambuf@DU?$char_traits@D@std@@@std@@IEBA_JXZ 000000018000a940 f i njsOracle.obj
 0001:00009960       ?_Gnavail@?$basic_streambuf@DU?$char_traits@D@std@@@std@@IEBA_JXZ 000000018000a960 f i njsOracle.obj
 0001:00009980       ??_G?$num_put@DV?$ostreambuf_iterator@DU?$char_traits@D@std@@@std@@@std@@MEAAPEAXI@Z 000000018000a980 f i njsOracle.obj
 0001:00009980       ??_E?$num_put@DV?$ostreambuf_iterator@DU?$char_traits@D@std@@@std@@@std@@MEAAPEAXI@Z 000000018000a980 f i * CIL library *:* CIL module *
 0001:000099b0       ?do_truename@?$numpunct@D@std@@MEBA?AV?$basic_string@DU?$char_traits@D@std@@V?$allocator@D@2@@2@XZ 000000018000a9b0 f i njsOracle.obj
 0001:00009a00       ?do_falsename@?$numpunct@D@std@@MEBA?AV?$basic_string@DU?$char_traits@D@std@@V?$allocator@D@2@@2@XZ 000000018000aa00 f i njsOracle.obj
 0001:00009a50       ?do_grouping@?$numpunct@D@std@@MEBA?AV?$basic_string@DU?$char_traits@D@std@@V?$allocator@D@2@@2@XZ 000000018000aa50 f i njsOracle.obj
 0001:00009aa0       ?do_thousands_sep@?$numpunct@D@std@@MEBADXZ 000000018000aaa0 f i njsOracle.obj
 0001:00009ab0       ?do_decimal_point@?$numpunct@D@std@@MEBADXZ 000000018000aab0 f i njsOracle.obj
 0001:00009ac0       ?truename@?$numpunct@D@std@@QEBA?AV?$basic_string@DU?$char_traits@D@std@@V?$allocator@D@2@@2@XZ 000000018000aac0 f i njsOracle.obj
 0001:00009ae0       ?falsename@?$numpunct@D@std@@QEBA?AV?$basic_string@DU?$char_traits@D@std@@V?$allocator@D@2@@2@XZ 000000018000aae0 f i njsOracle.obj
 0001:00009b00       ??1_Sentry_base@?$basic_ostream@DU?$char_traits@D@std@@@std@@QEAA@XZ 000000018000ab00 f i njsOracle.obj
 0001:00009b40       ?_Iput@?$num_put@DV?$ostreambuf_iterator@DU?$char_traits@D@std@@@std@@@std@@AEBA?AV?$ostreambuf_iterator@DU?$char_traits@D@std@@@2@V32@AEAVios_base@2@DPEAD_K@Z 000000018000ab40 f i njsOracle.obj
 0001:0000a140       ?_Fput@?$num_put@DV?$ostreambuf_iterator@DU?$char_traits@D@std@@@std@@@std@@AEBA?AV?$ostreambuf_iterator@DU?$char_traits@D@std@@@2@V32@AEAVios_base@2@DPEBD_K@Z 000000018000b140 f i njsOracle.obj
 0001:0000a8b0       ?erase@?$basic_string@DU?$char_traits@D@std@@V?$allocator@D@2@@std@@QEAAAEAV12@_K0@Z 000000018000b8b0 f i njsOracle.obj
 0001:0000a980       ?append@?$basic_string@DU?$char_traits@D@std@@V?$allocator@D@2@@std@@QEAAAEAV12@_KD@Z 000000018000b980 f i njsOracle.obj
 0001:0000aa90       ?flush@?$basic_ostream@DU?$char_traits@D@std@@@std@@QEAAAEAV12@XZ 000000018000ba90 f i njsOracle.obj
 0001:0000abb0       ??0?$basic_streambuf@DU?$char_traits@D@std@@@std@@IEAA@XZ 000000018000bbb0 f i njsOracle.obj
 0001:0000ac60       ??_E?$numpunct@D@std@@MEAAPEAXI@Z 000000018000bc60 f i * CIL library *:* CIL module *
 0001:0000ac60       ??_G?$numpunct@D@std@@MEAAPEAXI@Z 000000018000bc60 f i njsOracle.obj
 0001:0000acc0       ?grouping@?$numpunct@D@std@@QEBA?AV?$basic_string@DU?$char_traits@D@std@@V?$allocator@D@2@@2@XZ 000000018000bcc0 f i njsOracle.obj
 0001:0000ace0       ?_Copy@?$basic_string@DU?$char_traits@D@std@@V?$allocator@D@2@@std@@QEAAX_K0@Z 000000018000bce0 f i njsOracle.obj
 0001:0000adc0       ?insert@?$basic_string@DU?$char_traits@D@std@@V?$allocator@D@2@@std@@QEAAAEAV12@_K0D@Z 000000018000bdc0 f i njsOracle.obj
 0001:0000af30       ?init@?$basic_ios@DU?$char_traits@D@std@@@std@@IEAAXPEAV?$basic_streambuf@DU?$char_traits@D@std@@@2@_N@Z 000000018000bf30 f i njsOracle.obj
 0001:0000afe0       ??$use_facet@V?$ctype@D@std@@@std@@YAAEBV?$ctype@D@0@AEBVlocale@0@@Z 000000018000bfe0 f i njsOracle.obj
 0001:0000b110       ??$_Immortalize@V_Iostream_error_category@std@@@std@@YAAEAV_Iostream_error_category@0@XZ 000000018000c110 f i njsOracle.obj
 0001:0000b190       ??$New@VString@v8@@V?$basic_string@DU?$char_traits@D@std@@V?$allocator@D@2@@std@@@Nan@@YA?AV?$MaybeLocal@VString@v8@@@v8@@V?$basic_string@DU?$char_traits@D@std@@V?$allocator@D@2@@std@@@Z 000000018000c190 f i njsOracle.obj
 0001:0000b270       ??$?6U?$char_traits@D@std@@@std@@YAAEAV?$basic_ostream@DU?$char_traits@D@std@@@0@AEAV10@PEBD@Z 000000018000c270 f i njsOracle.obj
 0001:0000b500       ??$Unwrap@VILob@@@ObjectWrap@Nan@@SAPEAVILob@@V?$Local@VObject@v8@@@v8@@@Z 000000018000c500 f i njsConnection.obj
 0001:0000b500       ??$Unwrap@VPool@@@ObjectWrap@Nan@@SAPEAVPool@@V?$Local@VObject@v8@@@v8@@@Z 000000018000c500 f i njsOracle.obj
 0001:0000b500       ??$Unwrap@VResultSet@@@ObjectWrap@Nan@@SAPEAVResultSet@@V?$Local@VObject@v8@@@v8@@@Z 000000018000c500 f i njsConnection.obj
 0001:0000b500       ??$Unwrap@VConnection@@@ObjectWrap@Nan@@SAPEAVConnection@@V?$Local@VObject@v8@@@v8@@@Z 000000018000c500 f i njsOracle.obj
 0001:0000b500       ??$Unwrap@VOracledb@@@ObjectWrap@Nan@@SAPEAVOracledb@@V?$Local@VObject@v8@@@v8@@@Z 000000018000c500 f i njsOracle.obj
 0001:0000b580       ??$use_facet@V?$num_put@DV?$ostreambuf_iterator@DU?$char_traits@D@std@@@std@@@std@@@std@@YAAEBV?$num_put@DV?$ostreambuf_iterator@DU?$char_traits@D@std@@@std@@@0@AEBVlocale@0@@Z 000000018000c580 f i njsOracle.obj
 0001:0000b6b0       ??$use_facet@V?$numpunct@D@std@@@std@@YAAEBV?$numpunct@D@0@AEBVlocale@0@@Z 000000018000c6b0 f i njsOracle.obj
 0001:0000b7e0       ?_Getcat@?$numpunct@D@std@@SA_KPEAPEBVfacet@locale@2@PEBV42@@Z 000000018000c7e0 f i njsOracle.obj
 0001:0000b920       ?_Getcat@?$num_put@DV?$ostreambuf_iterator@DU?$char_traits@D@std@@@std@@@std@@SA_KPEAPEBVfacet@locale@2@PEBV42@@Z 000000018000c920 f i njsOracle.obj
 0001:0000ba60       ?_Init@?$numpunct@D@std@@IEAAXAEBV_Locinfo@2@_N@Z 000000018000ca60 f i njsOracle.obj
 0001:0000bbd4       ??_E?$basic_ostream@DU?$char_traits@D@std@@@std@@$4PPPPPPPM@A@EAAPEAXI@Z 000000018000cbd4 f i njsOracle.obj
 0001:0000bbe0       ??_E?$basic_stringstream@DU?$char_traits@D@std@@V?$allocator@D@2@@std@@$4PPPPPPPM@A@EAAPEAXI@Z 000000018000cbe0 f i njsOracle.obj
 0001:0000bbec       ??_E?$basic_istream@DU?$char_traits@D@std@@@std@@$4PPPPPPPM@A@EAAPEAXI@Z 000000018000cbec f i njsOracle.obj
 0001:0000bbf8       ??_E?$basic_iostream@DU?$char_traits@D@std@@@std@@$4PPPPPPPM@A@EAAPEAXI@Z 000000018000cbf8 f i njsOracle.obj
 0001:0000bc10       ??0poolBaton@@QEAA@V?$Local@VFunction@v8@@@v8@@V?$Local@VObject@v8@@@2@@Z 000000018000cc10 f i njsPool.obj
 0001:0000bd30       ??1poolBaton@@QEAA@XZ      000000018000cd30 f i njsPool.obj
 0001:0000bdf0       ??_EPool@@EEAAPEAXI@Z      000000018000cdf0 f i * CIL library *:* CIL module *
 0001:0000bdf0       ??_GPool@@EEAAPEAXI@Z      000000018000cdf0 f i njsPool.obj
 0001:0000be30       ??1ResultSet@@UEAA@XZ      000000018000ce30 f   njsResultSet.obj
 0001:0000be30       ??1Connection@@EEAA@XZ     000000018000ce30 f   njsConnection.obj
 0001:0000be30       ??1Pool@@EEAA@XZ           000000018000ce30 f   njsPool.obj
 0001:0000beb0       ?Init@Pool@@SAXV?$Local@VObject@v8@@@v8@@@Z 000000018000ceb0 f   njsPool.obj
 0001:0000c330       ?New@Pool@@CAXAEBV?$FunctionCallbackInfo@VValue@v8@@@Nan@@@Z 000000018000d330 f   njsPool.obj
 0001:0000c3a0       ?getPoolProperty@Pool@@CA?AV?$Local@VPrimitive@v8@@@v8@@PEAV1@I@Z 000000018000d3a0 f   njsPool.obj
 0001:0000c500       ?GetPoolMin@Pool@@CAXV?$Local@VString@v8@@@v8@@AEBV?$PropertyCallbackInfo@VValue@v8@@@Nan@@@Z 000000018000d500 f   njsPool.obj
 0001:0000c5d0       ?GetPoolMax@Pool@@CAXV?$Local@VString@v8@@@v8@@AEBV?$PropertyCallbackInfo@VValue@v8@@@Nan@@@Z 000000018000d5d0 f   njsPool.obj
 0001:0000c6a0       ?GetPoolIncrement@Pool@@CAXV?$Local@VString@v8@@@v8@@AEBV?$PropertyCallbackInfo@VValue@v8@@@Nan@@@Z 000000018000d6a0 f   njsPool.obj
 0001:0000c770       ?GetPoolTimeout@Pool@@CAXV?$Local@VString@v8@@@v8@@AEBV?$PropertyCallbackInfo@VValue@v8@@@Nan@@@Z 000000018000d770 f   njsPool.obj
 0001:0000c840       ?GetConnectionsOpen@Pool@@CAXV?$Local@VString@v8@@@v8@@AEBV?$PropertyCallbackInfo@VValue@v8@@@Nan@@@Z 000000018000d840 f   njsPool.obj
 0001:0000c9b0       ?GetConnectionsInUse@Pool@@CAXV?$Local@VString@v8@@@v8@@AEBV?$PropertyCallbackInfo@VValue@v8@@@Nan@@@Z 000000018000d9b0 f   njsPool.obj
 0001:0000cb20       ?GetStmtCacheSize@Pool@@CAXV?$Local@VString@v8@@@v8@@AEBV?$PropertyCallbackInfo@VValue@v8@@@Nan@@@Z 000000018000db20 f   njsPool.obj
 0001:0000cbf0       ?setPoolProperty@Pool@@CAXPEAV1@V?$basic_string@DU?$char_traits@D@std@@V?$allocator@D@2@@std@@@Z 000000018000dbf0 f   njsPool.obj
 0001:0000ce10       ?SetPoolMin@Pool@@CAXV?$Local@VString@v8@@@v8@@V?$Local@VValue@v8@@@3@AEBV?$PropertyCallbackInfo@X@Nan@@@Z 000000018000de10 f   njsPool.obj
 0001:0000ce80       ?SetPoolMax@Pool@@CAXV?$Local@VString@v8@@@v8@@V?$Local@VValue@v8@@@3@AEBV?$PropertyCallbackInfo@X@Nan@@@Z 000000018000de80 f   njsPool.obj
 0001:0000cef0       ?SetPoolIncrement@Pool@@CAXV?$Local@VString@v8@@@v8@@V?$Local@VValue@v8@@@3@AEBV?$PropertyCallbackInfo@X@Nan@@@Z 000000018000def0 f   njsPool.obj
 0001:0000cf60       ?SetPoolTimeout@Pool@@CAXV?$Local@VString@v8@@@v8@@V?$Local@VValue@v8@@@3@AEBV?$PropertyCallbackInfo@X@Nan@@@Z 000000018000df60 f   njsPool.obj
 0001:0000cfd0       ?SetConnectionsOpen@Pool@@CAXV?$Local@VString@v8@@@v8@@V?$Local@VValue@v8@@@3@AEBV?$PropertyCallbackInfo@X@Nan@@@Z 000000018000dfd0 f   njsPool.obj
 0001:0000d040       ?SetConnectionsInUse@Pool@@CAXV?$Local@VString@v8@@@v8@@V?$Local@VValue@v8@@@3@AEBV?$PropertyCallbackInfo@X@Nan@@@Z 000000018000e040 f   njsPool.obj
 0001:0000d0b0       ?SetStmtCacheSize@Pool@@CAXV?$Local@VString@v8@@@v8@@V?$Local@VValue@v8@@@3@AEBV?$PropertyCallbackInfo@X@Nan@@@Z 000000018000e0b0 f   njsPool.obj
 0001:0000d120       ?GetConnection@Pool@@CAXAEBV?$FunctionCallbackInfo@VValue@v8@@@Nan@@@Z 000000018000e120 f   njsPool.obj
 0001:0000d450       ?Async_GetConnection@Pool@@CAXPEAUuv_work_s@@@Z 000000018000e450 f   njsPool.obj
 0001:0000d630       ?Async_AfterGetConnection@Pool@@CAXPEAUuv_work_s@@@Z 000000018000e630 f   njsPool.obj
 0001:0000d8a0       ?Terminate@Pool@@CAXAEBV?$FunctionCallbackInfo@VValue@v8@@@Nan@@@Z 000000018000e8a0 f   njsPool.obj
 0001:0000dba0       ?Async_Terminate@Pool@@CAXPEAUuv_work_s@@@Z 000000018000eba0 f   njsPool.obj
 0001:0000dc00       ?Async_AfterTerminate@Pool@@CAXPEAUuv_work_s@@@Z 000000018000ec00 f   njsPool.obj
 0001:0000dde0       ??1RefCounter@@QEAA@XZ     000000018000ede0 f i njsConnection.obj
 0001:0000ddf0       ??0MetaInfo@@QEAA@XZ       000000018000edf0 f i njsConnection.obj
 0001:0000de40       ??0fetchInfo@@QEAA@XZ      000000018000ee40 f i njsConnection.obj
 0001:0000de80       ??0eBaton@@QEAA@AEAIV?$Local@VFunction@v8@@@v8@@V?$Local@VObject@v8@@@2@@Z 000000018000ee80 f i njsConnection.obj
 0001:0000e040       ??1eBaton@@QEAA@XZ         000000018000f040 f i njsConnection.obj
 0001:0000e6c0       ??_EMetaInfo@@QEAAPEAXI@Z  000000018000f6c0 f i njsConnection.obj
 0001:0000e710       ??_EfetchInfo@@QEAAPEAXI@Z 000000018000f710 f i njsConnection.obj
 0001:0000e760       ?GetValueType@Connection@@CA?AW4ValueType@@V?$Local@VValue@v8@@@v8@@@Z 000000018000f760 f i njsConnection.obj
 0001:0000e870       ??_GConnection@@EEAAPEAXI@Z 000000018000f870 f i njsConnection.obj
 0001:0000e870       ??_EConnection@@EEAAPEAXI@Z 000000018000f870 f i * CIL library *:* CIL module *
 0001:0000e8b0       ?Init@Connection@@SAXV?$Local@VObject@v8@@@v8@@@Z 000000018000f8b0 f   njsConnection.obj
 0001:0000eca0       ?New@Connection@@CAXAEBV?$FunctionCallbackInfo@VValue@v8@@@Nan@@@Z 000000018000fca0 f   njsConnection.obj
 0001:0000ed10       ?connectionPropertyException@Connection@@CAXPEAV1@W4NJSErrorType@@V?$basic_string@DU?$char_traits@D@std@@V?$allocator@D@2@@std@@@Z 000000018000fd10 f   njsConnection.obj
 0001:0000eee0       ?GetStmtCacheSize@Connection@@CAXV?$Local@VString@v8@@@v8@@AEBV?$PropertyCallbackInfo@VValue@v8@@@Nan@@@Z 000000018000fee0 f   njsConnection.obj
 0001:0000f070       ?SetStmtCacheSize@Connection@@CAXV?$Local@VString@v8@@@v8@@V?$Local@VValue@v8@@@3@AEBV?$PropertyCallbackInfo@X@Nan@@@Z 0000000180010070 f   njsConnection.obj
 0001:0000f130       ?GetClientId@Connection@@CAXV?$Local@VString@v8@@@v8@@AEBV?$PropertyCallbackInfo@VValue@v8@@@Nan@@@Z 0000000180010130 f   njsConnection.obj
 0001:0000f130       ?GetModule@Connection@@CAXV?$Local@VString@v8@@@v8@@AEBV?$PropertyCallbackInfo@VValue@v8@@@Nan@@@Z 0000000180010130 f   njsConnection.obj
 0001:0000f130       ?GetAction@Connection@@CAXV?$Local@VString@v8@@@v8@@AEBV?$PropertyCallbackInfo@VValue@v8@@@Nan@@@Z 0000000180010130 f   njsConnection.obj
 0001:0000f150       ?SetClientId@Connection@@CAXV?$Local@VString@v8@@@v8@@V?$Local@VValue@v8@@@3@AEBV?$PropertyCallbackInfo@X@Nan@@@Z 0000000180010150 f   njsConnection.obj
 0001:0000f460       ?SetModule@Connection@@CAXV?$Local@VString@v8@@@v8@@V?$Local@VValue@v8@@@3@AEBV?$PropertyCallbackInfo@X@Nan@@@Z 0000000180010460 f   njsConnection.obj
 0001:0000f770       ?SetAction@Connection@@CAXV?$Local@VString@v8@@@v8@@V?$Local@VValue@v8@@@3@AEBV?$PropertyCallbackInfo@X@Nan@@@Z 0000000180010770 f   njsConnection.obj
 0001:0000fa80       ?GetOracleServerVersion@Connection@@CAXV?$Local@VString@v8@@@v8@@AEBV?$PropertyCallbackInfo@VValue@v8@@@Nan@@@Z 0000000180010a80 f   njsConnection.obj
 0001:0000fc70       ?SetOracleServerVersion@Connection@@CAXV?$Local@VString@v8@@@v8@@V?$Local@VValue@v8@@@3@AEBV?$PropertyCallbackInfo@X@Nan@@@Z 0000000180010c70 f   njsConnection.obj
 0001:0000fd30       ?Execute@Connection@@CAXAEBV?$FunctionCallbackInfo@VValue@v8@@@Nan@@@Z 0000000180010d30 f   njsConnection.obj
 0001:00010280       ?ProcessBinds@Connection@@CAXAEBV?$FunctionCallbackInfo@VValue@v8@@@Nan@@IPEAUeBaton@@@Z 0000000180011280 f   njsConnection.obj
 0001:00010440       ?ProcessOptions@Connection@@CAXAEBV?$FunctionCallbackInfo@VValue@v8@@@Nan@@IPEAUeBaton@@@Z 0000000180011440 f   njsConnection.obj
 0001:00010ec0       ?GetBinds@Connection@@CAXV?$Local@VObject@v8@@@v8@@PEAUeBaton@@@Z 0000000180011ec0 f   njsConnection.obj
 0001:00011440       ?GetBinds@Connection@@CAXV?$Local@VArray@v8@@@v8@@PEAUeBaton@@@Z 0000000180012440 f   njsConnection.obj
 0001:00011560       ?GetBindUnit@Connection@@CAXV?$Local@VValue@v8@@@v8@@PEAUBind@@_NPEAUeBaton@@@Z 0000000180012560 f   njsConnection.obj
 0001:00011f50       ?GetOutBindParams@Connection@@CAXGPEAUBind@@PEAUeBaton@@@Z 0000000180012f50 f   njsConnection.obj
 0001:000121b0       ?GetInBindParams@Connection@@CAXV?$Local@VValue@v8@@@v8@@PEAUBind@@PEAUeBaton@@@Z 00000001800131b0 f   njsConnection.obj
 0001:00012220       ?GetInBindParamsScalar@Connection@@CAXV?$Local@VValue@v8@@@v8@@PEAUBind@@PEAUeBaton@@@Z 0000000180013220 f   njsConnection.obj
 0001:00012820       ?GetInBindParamsArray@Connection@@CAXV?$Local@VArray@v8@@@v8@@PEAUBind@@PEAUeBaton@@@Z 0000000180013820 f   njsConnection.obj
 0001:00012fe0       ?AllocateBindArray@Connection@@CA_NGPEAUBind@@PEAUeBaton@@PEA_K@Z 0000000180013fe0 f   njsConnection.obj
 0001:00013280       ?Async_Execute@Connection@@CAXPEAUuv_work_s@@@Z 0000000180014280 f   njsConnection.obj
 0001:00013d70       ?PrepareAndBind@Connection@@CAXPEAUeBaton@@@Z 0000000180014d70 f   njsConnection.obj
 0001:00014290       ?CopyMetaData@Connection@@SAXPEAUMetaInfo@@PEAUeBaton@@PEBUMetaData@dpi@@I@Z 0000000180015290 f   njsConnection.obj
 0001:00014910       ?SourceDBType2TargetDBType@Connection@@CAGI@Z 0000000180015910 f   njsConnection.obj
 0001:00014a50       ?MapByName@Connection@@CAHPEAUeBaton@@AEAV?$basic_string@DU?$char_traits@D@std@@V?$allocator@D@2@@std@@AEAG@Z 0000000180015a50 f   njsConnection.obj
 0001:00014b20       ?MapByType@Connection@@CAHPEAUeBaton@@AEAG@Z 0000000180015b20 f   njsConnection.obj
 0001:00014c90       ?DoDefines@Connection@@SAXPEAUeBaton@@@Z 0000000180015c90 f   njsConnection.obj
 0001:00015650       ?DoFetch@Connection@@SAXPEAUeBaton@@@Z 0000000180016650 f   njsConnection.obj
 0001:00015800       ?Descr2Double@Connection@@CA?AW4NJSErrorType@@PEAUDefine@@II_N@Z 0000000180016800 f   njsConnection.obj
 0001:000158f0       ?Descr2protoILob@Connection@@CAXPEAUeBaton@@II@Z 00000001800168f0 f   njsConnection.obj
 0001:00015bc0       ?Async_AfterExecute@Connection@@CAXPEAUuv_work_s@@@Z 0000000180016bc0 f   njsConnection.obj
 0001:00016630       ?GetMetaData@Connection@@SA?AV?$Local@VValue@v8@@@v8@@PEBUMetaInfo@@I_N@Z 0000000180017630 f   njsConnection.obj
 0001:00016d20       ?GetRows@Connection@@SA?AV?$Local@VValue@v8@@@v8@@PEAUeBaton@@@Z 0000000180017d20 f   njsConnection.obj
 0001:000170c0       ?GetValue@Connection@@CA?AV?$Local@VValue@v8@@@v8@@PEAUeBaton@@_NII@Z 00000001800180c0 f   njsConnection.obj
 0001:00017270       ?GetValueRefCursor@Connection@@CA?AV?$Local@VValue@v8@@@v8@@PEAUeBaton@@PEAUBind@@PEAUExtBind@@@Z 0000000180018270 f   njsConnection.obj
 0001:00017390       ?GetValueLob@Connection@@CA?AV?$Local@VValue@v8@@@v8@@PEAUeBaton@@PEAUBind@@@Z 0000000180018390 f   njsConnection.obj
 0001:00017460       ?GetValueCommon@Connection@@CA?AV?$Local@VValue@v8@@@v8@@PEAUeBaton@@FGPEAXI@Z 0000000180018460 f   njsConnection.obj
 0001:00017800       ?GetArrayValue@Connection@@CA?AV?$Local@VValue@v8@@@v8@@PEAUeBaton@@PEAUBind@@K@Z 0000000180018800 f   njsConnection.obj
 0001:00017cf0       ?GetOutBinds@Connection@@CA?AV?$Local@VValue@v8@@@v8@@PEAUeBaton@@@Z 0000000180018cf0 f   njsConnection.obj
 0001:00017d90       ?GetOutBindArray@Connection@@CA?AV?$Local@VValue@v8@@@v8@@PEAUeBaton@@@Z 0000000180018d90 f   njsConnection.obj
 0001:00017fe0       ?GetOutBindObject@Connection@@CA?AV?$Local@VValue@v8@@@v8@@PEAUeBaton@@@Z 0000000180018fe0 f   njsConnection.obj
 0001:00018280       ?Release@Connection@@CAXAEBV?$FunctionCallbackInfo@VValue@v8@@@Nan@@@Z 0000000180019280 f   njsConnection.obj
 0001:000186a0       ?Async_Release@Connection@@CAXPEAUuv_work_s@@@Z 00000001800196a0 f   njsConnection.obj
 0001:00018750       ?Async_AfterRelease@Connection@@CAXPEAUuv_work_s@@@Z 0000000180019750 f   njsConnection.obj
 0001:00018920       ?Commit@Connection@@CAXAEBV?$FunctionCallbackInfo@VValue@v8@@@Nan@@@Z 0000000180019920 f   njsConnection.obj
 0001:00018c40       ?Async_Commit@Connection@@CAXPEAUuv_work_s@@@Z 0000000180019c40 f   njsConnection.obj
 0001:00018cd0       ?Async_AfterBreak@Connection@@CAXPEAUuv_work_s@@@Z 0000000180019cd0 f   njsConnection.obj
 0001:00018cd0       ?Async_AfterCommit@Connection@@CAXPEAUuv_work_s@@@Z 0000000180019cd0 f   njsConnection.obj
 0001:00018cd0       ?Async_AfterRollback@Connection@@CAXPEAUuv_work_s@@@Z 0000000180019cd0 f   njsConnection.obj
 0001:00018e80       ?Rollback@Connection@@CAXAEBV?$FunctionCallbackInfo@VValue@v8@@@Nan@@@Z 0000000180019e80 f   njsConnection.obj
 0001:000191a0       ?Async_Rollback@Connection@@CAXPEAUuv_work_s@@@Z 000000018001a1a0 f   njsConnection.obj
 0001:00019230       ?Break@Connection@@CAXAEBV?$FunctionCallbackInfo@VValue@v8@@@Nan@@@Z 000000018001a230 f   njsConnection.obj
 0001:00019550       ?Async_Break@Connection@@CAXPEAUuv_work_s@@@Z 000000018001a550 f   njsConnection.obj
 0001:000195e0       ?v8Date2OraDate@Connection@@CAXV?$Local@VValue@v8@@@v8@@PEAUBind@@@Z 000000018001a5e0 f   njsConnection.obj
 0001:00019680       ?UpdateDateValue@Connection@@CAXPEAUeBaton@@I@Z 000000018001a680 f   njsConnection.obj
 0001:00019770       ?cbDynBufferAllocate@Connection@@CAXPEAX_NII@Z 000000018001a770 f   njsConnection.obj
 0001:00019ea0       ?cbDynBufferGet@Connection@@CAHPEAX_JIKKPEAPEAX22PEAPEAGPEAE@Z 000000018001aea0 f   njsConnection.obj
 0001:0001a100       ?NewLob@Connection@@CA?AV?$Local@VValue@v8@@@v8@@PEAUeBaton@@PEAVProtoILob@@@Z 000000018001b100 f   njsConnection.obj
 0001:0001a2a0       ?resize@?$vector@PEAUExtBind@@V?$allocator@PEAUExtBind@@@std@@@std@@QEAAX_KAEBQEAUExtBind@@@Z 000000018001b2a0 f i njsConnection.obj
 0001:0001a440       ??1?$vector@PEAUBind@@V?$allocator@PEAUBind@@@std@@@std@@QEAA@XZ 000000018001b440 f i njsConnection.obj
 0001:0001a440       ??1?$vector@PEAUExtBind@@V?$allocator@PEAUExtBind@@@std@@@std@@QEAA@XZ 000000018001b440 f i njsConnection.obj
 0001:0001a480       ?push_back@?$vector@PEAUBind@@V?$allocator@PEAUBind@@@std@@@std@@QEAAXAEBQEAUBind@@@Z 000000018001b480 f i njsConnection.obj
 0001:0001a510       ?compare@?$basic_string@DU?$char_traits@D@std@@V?$allocator@D@2@@std@@QEBAHAEBV12@@Z 000000018001b510 f i njsConnection.obj
 0001:0001a590       ?_Reserve@?$vector@PEAUBind@@V?$allocator@PEAUBind@@@std@@@std@@IEAAX_K@Z 000000018001b590 f i njsConnection.obj
 0001:0001a620       ?deallocate@?$_Wrap_alloc@V?$allocator@PEAUExtBind@@@std@@@std@@QEAAXPEAPEAUExtBind@@_K@Z 000000018001b620 f i njsConnection.obj
 0001:0001a620       ?deallocate@?$_Wrap_alloc@V?$allocator@PEAUBind@@@std@@@std@@QEAAXPEAPEAUBind@@_K@Z 000000018001b620 f i njsConnection.obj
 0001:0001a690       ?_Reallocate@?$vector@PEAUBind@@V?$allocator@PEAUBind@@@std@@@std@@IEAAX_K@Z 000000018001b690 f i njsConnection.obj
 0001:0001a690       ?_Reallocate@?$vector@PEAUExtBind@@V?$allocator@PEAUExtBind@@@std@@@std@@IEAAX_K@Z 000000018001b690 f i njsConnection.obj
 0001:0001a720       ?allocate@?$allocator@PEAUBind@@@std@@QEAAPEAPEAUBind@@_K@Z 000000018001b720 f i njsConnection.obj
 0001:0001a720       ?allocate@?$allocator@PEAUExtBind@@@std@@QEAAPEAPEAUExtBind@@_K@Z 000000018001b720 f i njsConnection.obj
 0001:0001a7a0       ??$?HDU?$char_traits@D@std@@V?$allocator@D@1@@std@@YA?AV?$basic_string@DU?$char_traits@D@std@@V?$allocator@D@2@@0@PEBD$$QEAV10@@Z 000000018001b7a0 f i njsConnection.obj
 0001:0001a7e0       ?insert@?$basic_string@DU?$char_traits@D@std@@V?$allocator@D@2@@std@@QEAAAEAV12@_KPEBD0@Z 000000018001b7e0 f i njsConnection.obj
 0001:0001a960       ?insert@?$basic_string@DU?$char_traits@D@std@@V?$allocator@D@2@@std@@QEAAAEAV12@_KAEBV12@00@Z 000000018001b960 f i njsConnection.obj
 0001:0001ab00       ??0rsBaton@@QEAA@AEAIV?$Local@VFunction@v8@@@v8@@V?$Local@VObject@v8@@@2@2@Z 000000018001bb00 f i njsResultSet.obj
 0001:0001abf0       ??1rsBaton@@QEAA@XZ        000000018001bbf0 f i njsResultSet.obj
 0001:0001ac90       ??_GResultSet@@UEAAPEAXI@Z 000000018001bc90 f i njsResultSet.obj
 0001:0001ac90       ??_EResultSet@@UEAAPEAXI@Z 000000018001bc90 f i * CIL library *:* CIL module *
 0001:0001acd0       ?setResultSet@ResultSet@@QEAAXPEAVStmt@dpi@@PEAUeBaton@@IPEBUMetaInfo@@@Z 000000018001bcd0 f   njsResultSet.obj
 0001:0001af60       ?Init@ResultSet@@SAXV?$Local@VObject@v8@@@v8@@@Z 000000018001bf60 f   njsResultSet.obj
 0001:0001b180       ?New@ResultSet@@CAXAEBV?$FunctionCallbackInfo@VValue@v8@@@Nan@@@Z 000000018001c180 f   njsResultSet.obj
 0001:0001b1f0       ?GetMetaData@ResultSet@@CAXV?$Local@VString@v8@@@v8@@AEBV?$PropertyCallbackInfo@VValue@v8@@@Nan@@@Z 000000018001c1f0 f   njsResultSet.obj
 0001:0001b460       ?SetMetaData@ResultSet@@CAXV?$Local@VString@v8@@@v8@@V?$Local@VValue@v8@@@3@AEBV?$PropertyCallbackInfo@X@Nan@@@Z 000000018001c460 f   njsResultSet.obj
 0001:0001b670       ?GetRow@ResultSet@@CAXAEBV?$FunctionCallbackInfo@VValue@v8@@@Nan@@@Z 000000018001c670 f   njsResultSet.obj
 0001:0001b9a0       ?GetRows@ResultSet@@CAXAEBV?$FunctionCallbackInfo@VValue@v8@@@Nan@@@Z 000000018001c9a0 f   njsResultSet.obj
 0001:0001bdb0       ?GetRowsCommon@ResultSet@@CAXPEAUrsBaton@@@Z 000000018001cdb0 f   njsResultSet.obj
 0001:0001bf90       ?Async_GetRows@ResultSet@@CAXPEAUuv_work_s@@@Z 000000018001cf90 f   njsResultSet.obj
 0001:0001c190       ?Async_AfterGetRows@ResultSet@@CAXPEAUuv_work_s@@@Z 000000018001d190 f   njsResultSet.obj
 0001:0001c400       ?Close@ResultSet@@CAXAEBV?$FunctionCallbackInfo@VValue@v8@@@Nan@@@Z 000000018001d400 f   njsResultSet.obj
 0001:0001c7d0       ?Async_Close@ResultSet@@CAXPEAUuv_work_s@@@Z 000000018001d7d0 f   njsResultSet.obj
 0001:0001c8c0       ?Async_AfterClose@ResultSet@@CAXPEAUuv_work_s@@@Z 000000018001d8c0 f   njsResultSet.obj
 0001:0001cac0       ?clearFetchBuffer@ResultSet@@CAXPEAUDefine@@II@Z 000000018001dac0 f   njsResultSet.obj
 0001:0001cc30       ?getErrorMsg@NJSMessages@@SA?AV?$basic_string@DU?$char_traits@D@std@@V?$allocator@D@2@@std@@W4NJSErrorType@@ZZ 000000018001dc30 f   njsMessages.obj
 0001:0001cd30       ??0LobBaton@@QEAA@AEAIV?$Local@VFunction@v8@@@v8@@V?$Local@VObject@v8@@@2@@Z 000000018001dd30 f i njsIntLob.obj
 0001:0001ce50       ??0LobBaton@@QEAA@AEAIV?$Local@VObject@v8@@@v8@@V?$Local@VFunction@v8@@@2@1@Z 000000018001de50 f i njsIntLob.obj
 0001:0001cfa0       ??1LobBaton@@QEAA@XZ       000000018001dfa0 f i njsIntLob.obj
 0001:0001d050       ??_GILob@@EEAAPEAXI@Z      000000018001e050 f i njsIntLob.obj
 0001:0001d050       ??_EILob@@EEAAPEAXI@Z      000000018001e050 f i * CIL library *:* CIL module *
 0001:0001d090       ??1ILob@@EEAA@XZ           000000018001e090 f   njsIntLob.obj
 0001:0001d120       ?cleanup@ILob@@AEAAXXZ     000000018001e120 f   njsIntLob.obj
 0001:0001d1a0       ?setILob@ILob@@QEAAXPEAUeBaton@@PEAVProtoILob@@@Z 000000018001e1a0 f   njsIntLob.obj
 0001:0001d300       ?Init@ILob@@SAXV?$Local@VObject@v8@@@v8@@@Z 000000018001e300 f   njsIntLob.obj
 0001:0001d6c0       ?New@ILob@@CAXAEBV?$FunctionCallbackInfo@VValue@v8@@@Nan@@@Z 000000018001e6c0 f   njsIntLob.obj
 0001:0001d770       ?Release@ILob@@CAXAEBV?$FunctionCallbackInfo@VValue@v8@@@Nan@@@Z 000000018001e770 f   njsIntLob.obj
 0001:0001d900       ?lobPropertyException@ILob@@CAXPEAV1@W4NJSErrorType@@V?$basic_string@DU?$char_traits@D@std@@V?$allocator@D@2@@std@@@Z 000000018001e900 f   njsIntLob.obj
 0001:0001dad0       ?GetChunkSize@ILob@@CAXV?$Local@VString@v8@@@v8@@AEBV?$PropertyCallbackInfo@VValue@v8@@@Nan@@@Z 000000018001ead0 f   njsIntLob.obj
 0001:0001dd40       ?SetChunkSize@ILob@@CAXV?$Local@VString@v8@@@v8@@V?$Local@VValue@v8@@@3@AEBV?$PropertyCallbackInfo@X@Nan@@@Z 000000018001ed40 f   njsIntLob.obj
 0001:0001de00       ?GetLength@ILob@@CAXV?$Local@VString@v8@@@v8@@AEBV?$PropertyCallbackInfo@VValue@v8@@@Nan@@@Z 000000018001ee00 f   njsIntLob.obj
 0001:0001e050       ?SetLength@ILob@@CAXV?$Local@VString@v8@@@v8@@V?$Local@VValue@v8@@@3@AEBV?$PropertyCallbackInfo@X@Nan@@@Z 000000018001f050 f   njsIntLob.obj
 0001:0001e110       ?GetPieceSize@ILob@@CAXV?$Local@VString@v8@@@v8@@AEBV?$PropertyCallbackInfo@VValue@v8@@@Nan@@@Z 000000018001f110 f   njsIntLob.obj
 0001:0001e380       ?SetPieceSize@ILob@@CAXV?$Local@VString@v8@@@v8@@V?$Local@VValue@v8@@@3@AEBV?$PropertyCallbackInfo@X@Nan@@@Z 000000018001f380 f   njsIntLob.obj
 0001:0001e730       ?GetOffset@ILob@@CAXV?$Local@VString@v8@@@v8@@AEBV?$PropertyCallbackInfo@VValue@v8@@@Nan@@@Z 000000018001f730 f   njsIntLob.obj
 0001:0001e9a0       ?SetOffset@ILob@@CAXV?$Local@VString@v8@@@v8@@V?$Local@VValue@v8@@@3@AEBV?$PropertyCallbackInfo@X@Nan@@@Z 000000018001f9a0 f   njsIntLob.obj
 0001:0001ed10       ?GetType@ILob@@CAXV?$Local@VString@v8@@@v8@@AEBV?$PropertyCallbackInfo@VValue@v8@@@Nan@@@Z 000000018001fd10 f   njsIntLob.obj
 0001:0001ee20       ?SetType@ILob@@CAXV?$Local@VString@v8@@@v8@@V?$Local@VValue@v8@@@3@AEBV?$PropertyCallbackInfo@X@Nan@@@Z 000000018001fe20 f   njsIntLob.obj
 0001:0001eee0       ?Read@ILob@@CAXAEBV?$FunctionCallbackInfo@VValue@v8@@@Nan@@@Z 000000018001fee0 f   njsIntLob.obj
 0001:0001f230       ?Async_Read@ILob@@CAXPEAUuv_work_s@@@Z 0000000180020230 f   njsIntLob.obj
 0001:0001f390       ?Async_AfterRead@ILob@@CAXPEAUuv_work_s@@@Z 0000000180020390 f   njsIntLob.obj
 0001:0001f5e0       ?Write@ILob@@CAXAEBV?$FunctionCallbackInfo@VValue@v8@@@Nan@@@Z 00000001800205e0 f   njsIntLob.obj
 0001:0001f990       ?Async_Write@ILob@@CAXPEAUuv_work_s@@@Z 0000000180020990 f   njsIntLob.obj
 0001:0001fae0       ?Async_AfterWrite@ILob@@CAXPEAUuv_work_s@@@Z 0000000180020ae0 f   njsIntLob.obj
 0001:0001fca0       ??0ProtoILob@@QEAA@PEAUeBaton@@PEAUDescriptor@dpi@@G@Z 0000000180020ca0 f   njsIntLob.obj
 0001:0001fe30       ?cleanup@ProtoILob@@AEAAXXZ 0000000180020e30 f   njsIntLob.obj
 0001:0001fe80       ??_GEnv@dpi@@MEAAPEAXI@Z   0000000180020e80 f i dpiEnv.obj
 0001:0001fe80       ??_EEnv@dpi@@MEAAPEAXI@Z   0000000180020e80 f i * CIL library *:* CIL module *
 0001:0001feb0       ??1Env@dpi@@MEAA@XZ        0000000180020eb0 f   dpiEnv.obj
 0001:0001fec0       ??0exception@stdext@@QEAA@AEBV01@@Z 0000000180020ec0 f i dpiEnvImpl.obj
 0001:0001fee0       ??0EnvImpl@@QEAA@AEBV?$basic_string@DU?$char_traits@D@std@@V?$allocator@D@2@@std@@II@Z 0000000180020ee0 f   dpiEnvImpl.obj
 0001:00020020       ??1EnvImpl@@UEAA@XZ        0000000180021020 f   dpiEnvImpl.obj
 0001:000200a0       ??_GEnvImpl@@UEAAPEAXI@Z   00000001800210a0 f i dpiEnvImpl.obj
 0001:000200a0       ??_EEnvImpl@@UEAAPEAXI@Z   00000001800210a0 f i * CIL library *:* CIL module *
 0001:000200e0       ??0ExceptionImpl@@QEAA@AEBV0@@Z 00000001800210e0 f i dpiEnvImpl.obj
 0001:00020180       ??0Exception@dpi@@QEAA@AEBV01@@Z 0000000180021180 f i dpiEnvImpl.obj
 0001:000201a0       ??_EExceptionImpl@@UEAAPEAXI@Z 00000001800211a0 f i * CIL library *:* CIL module *
 0001:000201a0       ??_GExceptionImpl@@UEAAPEAXI@Z 00000001800211a0 f i dpiEnvImpl.obj
 0001:000201e0       ?terminate@EnvImpl@@UEAAXXZ 00000001800211e0 f   dpiEnvImpl.obj
 0001:00020230       ?poolMax@EnvImpl@@UEAAXI@Z 0000000180021230 f   dpiEnvImpl.obj
 0001:00020240       ?poolMax@EnvImpl@@UEBAIXZ  0000000180021240 f   dpiEnvImpl.obj
 0001:00020250       ?poolMin@EnvImpl@@UEAAXI@Z 0000000180021250 f   dpiEnvImpl.obj
 0001:00020260       ?poolMin@EnvImpl@@UEBAIXZ  0000000180021260 f   dpiEnvImpl.obj
 0001:00020270       ?poolIncrement@EnvImpl@@UEAAXI@Z 0000000180021270 f   dpiEnvImpl.obj
 0001:00020280       ?poolIncrement@EnvImpl@@UEBAIXZ 0000000180021280 f   dpiEnvImpl.obj
 0001:00020290       ?poolTimeout@EnvImpl@@UEAAXI@Z 0000000180021290 f   dpiEnvImpl.obj
 0001:000202a0       ?poolTimeout@EnvImpl@@UEBAIXZ 00000001800212a0 f   dpiEnvImpl.obj
 0001:000202b0       ?drvName@EnvImpl@@UEAAAEBV?$basic_string@DU?$char_traits@D@std@@V?$allocator@D@2@@std@@XZ 00000001800212b0 f   dpiEnvImpl.obj
 0001:000202c0       ?externalAuth@EnvImpl@@UEAAX_N@Z 00000001800212c0 f   dpiEnvImpl.obj
 0001:000202d0       ?externalAuth@EnvImpl@@UEBA_NXZ 00000001800212d0 f   dpiEnvImpl.obj
 0001:000202e0       ?isEventEnabled@EnvImpl@@UEAAX_N@Z 00000001800212e0 f   dpiEnvImpl.obj
 0001:000202f0       ?isEventEnabled@EnvImpl@@UEBA_NXZ 00000001800212f0 f   dpiEnvImpl.obj
 0001:00020300       ?dbcharset@EnvImpl@@UEBAIXZ 0000000180021300 f   dpiEnvImpl.obj
 0001:00020310       ?dbncharset@EnvImpl@@UEBAIXZ 0000000180021310 f   dpiEnvImpl.obj
 0001:00020320       ?createPool@EnvImpl@@UEAAPEAVSPool@dpi@@AEBV?$basic_string@DU?$char_traits@D@std@@V?$allocator@D@2@@std@@00HHHHH_N1@Z 0000000180021320 f   dpiEnvImpl.obj
 0001:00020420       ?getConnection@EnvImpl@@UEAAPEAVConn@dpi@@AEBV?$basic_string@DU?$char_traits@D@std@@V?$allocator@D@2@@std@@00H0_NW4DBPrivileges@3@@Z 0000000180021420 f   dpiEnvImpl.obj
 0001:000204d0       ?terminatePool@EnvImpl@@UEAAXPEAVPoolImpl@@@Z 00000001800214d0 f   dpiEnvImpl.obj
 0001:000204d0       ?releaseDateTimeArray@EnvImpl@@UEBAXPEAVDateTimeArray@dpi@@@Z 00000001800214d0 f   dpiEnvImpl.obj
 0001:000204f0       ?releaseConnection@PoolImpl@@UEAAXPEAVConnImpl@@@Z 00000001800214f0 f   dpiPoolImpl.obj
 0001:000204f0       ?releaseConnection@EnvImpl@@UEAAXPEAVConnImpl@@@Z 00000001800214f0 f   dpiEnvImpl.obj
 0001:00020510       ?getDateTimeArray@EnvImpl@@UEBAPEAVDateTimeArray@dpi@@PEAUOCIError@@@Z 0000000180021510 f   dpiEnvImpl.obj
 0001:00020560       ?allocHandle@EnvImpl@@UEAAPEAUDpiHandle@dpi@@W4HandleType@3@@Z 0000000180021560 f   dpiEnvImpl.obj
 0001:000205b0       ?allocDescriptor@EnvImpl@@UEAAPEAUDescriptor@dpi@@W4DescriptorType@3@@Z 00000001800215b0 f   dpiEnvImpl.obj
 0001:00020600       ?allocDescriptorArray@EnvImpl@@UEAAXW4DescriptorType@dpi@@IQEAPEAUDescriptor@3@@Z 0000000180021600 f   dpiEnvImpl.obj
 0001:00020640       ?envHandle@EnvImpl@@UEBAPEAUDpiHandle@dpi@@XZ 0000000180021640 f   dpiEnvImpl.obj
 0001:00020650       ??0ExceptionImpl@@QEAA@W4DpiError@dpi@@@Z 0000000180021650 f   dpiExceptionImpl.obj
 0001:00020840       ??1ExceptionImpl@@UEAA@XZ  0000000180021840 f   dpiExceptionImpl.obj
 0001:000208d0       ?what@ExceptionImpl@@UEBAPEBDXZ 00000001800218d0 f   dpiExceptionImpl.obj
 0001:000208e0       ?errnum@ExceptionImpl@@UEBAHXZ 00000001800218e0 f   dpiExceptionImpl.obj
 0001:000208f0       ?origin@ExceptionImpl@@UEBAPEBDXZ 00000001800218f0 f   dpiExceptionImpl.obj
 0001:00020900       ??$?6DU?$char_traits@D@std@@V?$allocator@D@1@@std@@YAAEAV?$basic_ostream@DU?$char_traits@D@std@@@0@AEAV10@AEBV?$basic_string@DU?$char_traits@D@std@@V?$allocator@D@2@@0@@Z 0000000180021900 f i dpiExceptionImpl.obj
 0001:00020b90       ??1Conn@dpi@@MEAA@XZ       0000000180021b90 f i dpiConnImpl.obj
 0001:00020ba0       ??_EConn@dpi@@MEAAPEAXI@Z  0000000180021ba0 f i * CIL library *:* CIL module *
 0001:00020ba0       ??_GConn@dpi@@MEAAPEAXI@Z  0000000180021ba0 f i dpiConnImpl.obj
 0001:00020bd0       ?sameTag@ConnImpl@@UEAAHXZ 0000000180021bd0 f i dpiConnImpl.obj
 0001:00020be0       ?getSvch@ConnImpl@@UEAAPEAUDpiHandle@dpi@@XZ 0000000180021be0 f i dpiConnImpl.obj
 0001:00020bf0       ?getErrh@ConnImpl@@UEAAPEAUDpiHandle@dpi@@XZ 0000000180021bf0 f i dpiConnImpl.obj
 0001:00020c00       ??0ConnImpl@@QEAA@PEAVEnvImpl@@PEAUOCIEnv@@_NIAEBV?$basic_string@DU?$char_traits@D@std@@V?$allocator@D@2@@std@@333W4DBPrivileges@dpi@@@Z 0000000180021c00 f   dpiConnImpl.obj
 0001:00020dc0       ??0ConnImpl@@QEAA@PEAVPoolImpl@@PEAUOCIEnv@@_NPEAEIAEBV?$basic_string@DU?$char_traits@D@std@@V?$allocator@D@2@@std@@444HW4DBPrivileges@dpi@@@Z 0000000180021dc0 f   dpiConnImpl.obj
 0001:00020ec0       ??1ConnImpl@@UEAA@XZ       0000000180021ec0 f   dpiConnImpl.obj
 0001:00020f30       ??_EConnImpl@@UEAAPEAXI@Z  0000000180021f30 f i * CIL library *:* CIL module *
 0001:00020f30       ??_GConnImpl@@UEAAPEAXI@Z  0000000180021f30 f i dpiConnImpl.obj
 0001:00020f70       ?release@ConnImpl@@UEAAXAEBV?$basic_string@DU?$char_traits@D@std@@V?$allocator@D@2@@std@@H@Z 0000000180021f70 f   dpiConnImpl.obj
 0001:000210a0       ?releaseStmt@ConnImpl@@UEAAXPEAVStmt@dpi@@@Z 00000001800220a0 f   dpiConnImpl.obj
 0001:000210c0       ?stmtCacheSize@ConnImpl@@UEAAXI@Z 00000001800220c0 f   dpiConnImpl.obj
 0001:00021110       ?getByteExpansionRatio@ConnImpl@@UEAAHXZ 0000000180022110 f   dpiConnImpl.obj
 0001:00021120       ?stmtCacheSize@ConnImpl@@UEBAIXZ 0000000180022120 f   dpiConnImpl.obj
 0001:00021170       ?lobPrefetchSize@ConnImpl@@UEBAIXZ 0000000180022170 f   dpiConnImpl.obj
 0001:000211c0       ?clientId@ConnImpl@@UEAAXAEBV?$basic_string@DU?$char_traits@D@std@@V?$allocator@D@2@@std@@@Z 00000001800221c0 f   dpiConnImpl.obj
 0001:00021210       ?module@ConnImpl@@UEAAXAEBV?$basic_string@DU?$char_traits@D@std@@V?$allocator@D@2@@std@@@Z 0000000180022210 f   dpiConnImpl.obj
 0001:00021260       ?action@ConnImpl@@UEAAXAEBV?$basic_string@DU?$char_traits@D@std@@V?$allocator@D@2@@std@@@Z 0000000180022260 f   dpiConnImpl.obj
 0001:000212b0       ?getStmt@ConnImpl@@UEAAPEAVStmt@dpi@@AEBV?$basic_string@DU?$char_traits@D@std@@V?$allocator@D@2@@std@@@Z 00000001800222b0 f   dpiConnImpl.obj
 0001:00021310       ?commit@ConnImpl@@UEAAXXZ  0000000180022310 f   dpiConnImpl.obj
 0001:00021340       ?rollback@ConnImpl@@UEAAXXZ 0000000180022340 f   dpiConnImpl.obj
 0001:00021370       ?breakExecution@ConnImpl@@UEAAXXZ 0000000180022370 f   dpiConnImpl.obj
 0001:000213c0       ?setErrState@ConnImpl@@UEAAXH@Z 00000001800223c0 f   dpiConnImpl.obj
 0001:00021400       ?getServerVersion@ConnImpl@@UEAAIXZ 0000000180022400 f   dpiConnImpl.obj
 0001:00021480       ?initConnImpl@ConnImpl@@AEAAX_N0AEBV?$basic_string@DU?$char_traits@D@std@@V?$allocator@D@2@@std@@PEAEI111HW4DBPrivileges@dpi@@@Z 0000000180022480 f   dpiConnImpl.obj
 0001:000218c0       ?cleanup@ConnImpl@@AEAAXXZ 00000001800228c0 f   dpiConnImpl.obj
 0001:000219c0       ??_GDateTimeArray@dpi@@UEAAPEAXI@Z 00000001800229c0 f i dpiDateTimeArrayImpl.obj
 0001:000219c0       ??_ESPool@dpi@@MEAAPEAXI@Z 00000001800229c0 f i * CIL library *:* CIL module *
 0001:000219c0       ??_EDateTimeArray@dpi@@UEAAPEAXI@Z 00000001800229c0 f i * CIL library *:* CIL module *
 0001:000219c0       ??_GSPool@dpi@@MEAAPEAXI@Z 00000001800229c0 f i dpiPoolImpl.obj
 0001:000219f0       ??_EDateTimeArrayImpl@dpi@@UEAAPEAXI@Z 00000001800229f0 f i * CIL library *:* CIL module *
 0001:000219f0       ??_GDateTimeArrayImpl@dpi@@UEAAPEAXI@Z 00000001800229f0 f i dpiDateTimeArrayImpl.obj
 0001:00021a50       ?init@DateTimeArrayImpl@dpi@@UEAAPEAXH@Z 0000000180022a50 f   dpiDateTimeArrayImpl.obj
 0001:00021b50       ?release@DateTimeArrayImpl@dpi@@UEAAXXZ 0000000180022b50 f   dpiDateTimeArrayImpl.obj
 0001:00021bc0       ?getDateTime@DateTimeArrayImpl@dpi@@UEAAOH@Z 0000000180022bc0 f   dpiDateTimeArrayImpl.obj
 0001:00021d90       ?setDateTime@DateTimeArrayImpl@dpi@@UEAAXHO@Z 0000000180022d90 f   dpiDateTimeArrayImpl.obj
 0001:00021fc0       ?initBaseDate@DateTimeArrayImpl@dpi@@SAXPEAUOCIEnv@@@Z 0000000180022fc0 f   dpiDateTimeArrayImpl.obj
 0001:00022120       ??1SPool@dpi@@MEAA@XZ      0000000180023120 f i dpiPoolImpl.obj
 0001:00022130       ??0PoolImpl@@QEAA@PEAVEnvImpl@@PEAUOCIEnv@@AEBV?$basic_string@DU?$char_traits@D@std@@V?$allocator@D@2@@std@@22HHHH_NH3@Z 0000000180023130 f   dpiPoolImpl.obj
 0001:00022560       ??_EPoolImpl@@UEAAPEAXI@Z  0000000180023560 f i * CIL library *:* CIL module *
 0001:00022560       ??_GPoolImpl@@UEAAPEAXI@Z  0000000180023560 f i dpiPoolImpl.obj
 0001:000225b0       ?terminate@PoolImpl@@UEAAXXZ 00000001800235b0 f   dpiPoolImpl.obj
 0001:00022640       ?poolTimeout@PoolImpl@@UEAAXI@Z 0000000180023640 f   dpiPoolImpl.obj
 0001:00022690       ?stmtCacheSize@PoolImpl@@UEAAXI@Z 0000000180023690 f   dpiPoolImpl.obj
 0001:000226e0       ?connectionsOpen@PoolImpl@@UEBAIXZ 00000001800236e0 f   dpiPoolImpl.obj
 0001:00022730       ?connectionsInUse@PoolImpl@@UEBAIXZ 0000000180023730 f   dpiPoolImpl.obj
 0001:00022780       ?getConnection@PoolImpl@@UEAAPEAVConn@dpi@@AEBV?$basic_string@DU?$char_traits@D@std@@V?$allocator@D@2@@std@@000HW4DBPrivileges@3@@Z 0000000180023780 f   dpiPoolImpl.obj
 0001:00022820       ?cleanup@PoolImpl@@AEAAXXZ 0000000180023820 f   dpiPoolImpl.obj
 0001:000228a0       ??1Stmt@dpi@@UEAA@XZ       00000001800238a0 f i dpiStmtImpl.obj
 0001:000228b0       ??_GStmt@dpi@@UEAAPEAXI@Z  00000001800238b0 f i dpiStmtImpl.obj
 0001:000228b0       ??_EStmt@dpi@@UEAAPEAXI@Z  00000001800238b0 f i * CIL library *:* CIL module *
 0001:000228e0       ?getError@StmtImpl@@UEAAPEAUOCIError@@XZ 00000001800238e0 f i dpiStmtImpl.obj
 0001:000228f0       ??0StmtImpl@@QEAA@PEAVEnvImpl@@PEAUOCIEnv@@PEAVConnImpl@@PEAUOCISvcCtx@@AEBV?$basic_string@DU?$char_traits@D@std@@V?$allocator@D@2@@std@@@Z 00000001800238f0 f   dpiStmtImpl.obj
 0001:00022a40       ??_GStmtImpl@@UEAAPEAXI@Z  0000000180023a40 f i dpiStmtImpl.obj
 0001:00022a40       ??_EStmtImpl@@UEAAPEAXI@Z  0000000180023a40 f i * CIL library *:* CIL module *
 0001:00022aa0       ?stmtType@StmtImpl@@UEBA?AW4DpiStmtType@dpi@@XZ 0000000180023aa0 f   dpiStmtImpl.obj
 0001:00022b00       ?rowsAffected@StmtImpl@@UEBA_JXZ 0000000180023b00 f   dpiStmtImpl.obj
 0001:00022b60       ?numCols@StmtImpl@@UEAAIXZ 0000000180023b60 f   dpiStmtImpl.obj
 0001:00022bc0       ?prefetchRows@StmtImpl@@UEAAXI@Z 0000000180023bc0 f   dpiStmtImpl.obj
 0001:00022c10       ?bind@StmtImpl@@UEAAXIGPEAX_JPEAFPEAII30P6AH01IKKPEAPEAX44PEAPEAGPEAE@Z@Z 0000000180023c10 f   dpiStmtImpl.obj
 0001:00022d80       ?bind@StmtImpl@@UEAAXPEBEHIGPEAX_JPEAFPEAII41P6AH12IKKPEAPEAX55PEAPEAGPEAE@Z@Z 0000000180023d80 f   dpiStmtImpl.obj
 0001:00022f00       ?execute@StmtImpl@@UEAAXH_N@Z 0000000180023f00 f   dpiStmtImpl.obj
 0001:00022f50       ?release@StmtImpl@@UEAAXXZ 0000000180023f50 f   dpiStmtImpl.obj
 0001:00022f90       ?define@StmtImpl@@UEAAXIGPEAX_JPEAFPEAI@Z 0000000180023f90 f   dpiStmtImpl.obj
 0001:00023070       ?fetch@StmtImpl@@UEAAXI@Z  0000000180024070 f   dpiStmtImpl.obj
 0001:000230c0       ?rowsFetched@StmtImpl@@UEBAIXZ 00000001800240c0 f   dpiStmtImpl.obj
 0001:00023110       ?getMetaData@StmtImpl@@UEAAPEBUMetaData@dpi@@_N@Z 0000000180024110 f   dpiStmtImpl.obj
 0001:00023450       ?cleanup@StmtImpl@@AEAAXXZ 0000000180024450 f   dpiStmtImpl.obj
 0001:000234f0       ?inbindCallback@StmtImpl@@SAHPEAXPEAUOCIBind@@IIPEAPEAXPEAIPEAE2@Z 00000001800244f0 f   dpiStmtImpl.obj
 0001:00023530       ?outbindCallback@StmtImpl@@SAHPEAXPEAUOCIBind@@IIPEAPEAXPEAPEAIPEAE2PEAPEAG@Z 0000000180024530 f   dpiStmtImpl.obj
 0001:00023670       ?isReturning@StmtImpl@@UEAA_NXZ 0000000180024670 f   dpiStmtImpl.obj
 0001:000236f0       ?getState@StmtImpl@@UEAAIXZ 00000001800246f0 f   dpiStmtImpl.obj
 0001:000238fc       __imp_load_uv_queue_work   00000001800248fc f   node:node.exe
 0001:00023908       __tailMerge_node_exe       0000000180024908 f i node:node.exe
 0001:00023981       __imp_load_?Global@Context@v8@@QEAA?AV?$Local@VObject@v8@@@2@XZ 0000000180024981 f   node:node.exe
 0001:0002398d       __imp_load_?Value@External@v8@@QEBAPEAXXZ 000000018002498d f   node:node.exe
 0001:00023999       __imp_load_?New@External@v8@@SA?AV?$Local@VExternal@v8@@@2@PEAVIsolate@2@PEAX@Z 0000000180024999 f   node:node.exe
 0001:000239a5       __imp_load_?NewFromUnsigned@Integer@v8@@SA?AV?$Local@VInteger@v8@@@2@PEAVIsolate@2@I@Z 00000001800249a5 f   node:node.exe
 0001:000239b1       __imp_load_?New@Integer@v8@@SA?AV?$Local@VInteger@v8@@@2@PEAVIsolate@2@H@Z 00000001800249b1 f   node:node.exe
 0001:000239bd       __imp_load_?New@Signature@v8@@SA?AV?$Local@VSignature@v8@@@2@PEAVIsolate@2@V?$Local@VFunctionTemplate@v8@@@2@@Z 00000001800249bd f   node:node.exe
 0001:000239c9       __imp_load_?ThrowException@Isolate@v8@@QEAA?AV?$Local@VValue@v8@@@2@V32@@Z 00000001800249c9 f   node:node.exe
 0001:000239d5       __imp_load_?GetCurrentContext@Isolate@v8@@QEAA?AV?$Local@VContext@v8@@@2@XZ 00000001800249d5 f   node:node.exe
 0001:000239e1       __imp_load_?GetCurrent@Isolate@v8@@SAPEAV12@XZ 00000001800249e1 f   node:node.exe
 0001:000239ed       __imp_load_?CreateHandle@HandleScope@v8@@KAPEAPEAVObject@internal@2@PEAVIsolate@42@PEAV342@@Z 00000001800249ed f   node:node.exe
 0001:000239f9       __imp_load_?CreateHandle@HandleScope@v8@@CAPEAPEAVObject@internal@2@PEAVHeapObject@42@PEAV342@@Z 00000001800249f9 f   node:node.exe
 0001:00023a05       __imp_load_??1HandleScope@v8@@QEAA@XZ 0000000180024a05 f   node:node.exe
 0001:00023a11       __imp_load_??0HandleScope@v8@@QEAA@PEAVIsolate@1@@Z 0000000180024a11 f   node:node.exe
 0001:00023a1d       __imp_load_?Set@Template@v8@@QEAAXV?$Local@VName@v8@@@2@V?$Local@VData@v8@@@2@W4PropertyAttribute@2@@Z 0000000180024a1d f   node:node.exe
 0001:00023a29       __imp_load_?Error@Exception@v8@@SA?AV?$Local@VValue@v8@@@2@V?$Local@VString@v8@@@2@@Z 0000000180024a29 f   node:node.exe
 0001:00023a35       __imp_load_?New@Array@v8@@SA?AV?$Local@VArray@v8@@@2@PEAVIsolate@2@H@Z 0000000180024a35 f   node:node.exe
 0001:00023a41       __imp_load_?Length@Array@v8@@QEBAIXZ 0000000180024a41 f   node:node.exe
 0001:00023a4d       __imp_load_?SetClassName@FunctionTemplate@v8@@QEAAXV?$Local@VString@v8@@@2@@Z 0000000180024a4d f   node:node.exe
 0001:00023a59       __imp_load_?PrototypeTemplate@FunctionTemplate@v8@@QEAA?AV?$Local@VObjectTemplate@v8@@@2@XZ 0000000180024a59 f   node:node.exe
 0001:00023a65       __imp_load_?InstanceTemplate@FunctionTemplate@v8@@QEAA?AV?$Local@VObjectTemplate@v8@@@2@XZ 0000000180024a65 f   node:node.exe
 0001:00023a71       __imp_load_?GetFunction@FunctionTemplate@v8@@QEAA?AV?$Local@VFunction@v8@@@2@XZ 0000000180024a71 f   node:node.exe
 0001:00023a7d       __imp_load_?New@FunctionTemplate@v8@@SA?AV?$Local@VFunctionTemplate@v8@@@2@PEAVIsolate@2@P6AXAEBV?$FunctionCallbackInfo@VValue@v8@@@2@@ZV?$Local@VValue@v8@@@2@V?$Local@VSignature@v8@@@2@H@Z 0000000180024a7d f   node:node.exe
 0001:00023a89       __imp_load_?Value@Boolean@v8@@QEBA_NXZ 0000000180024a89 f   node:node.exe
 0001:00023a95       __imp_load_?ToLocalEmpty@V8@v8@@CAXXZ 0000000180024a95 f   node:node.exe
 0001:00023aa1       __imp_load_?ClearWeak@V8@v8@@CAPEAXPEAPEAVObject@internal@2@@Z 0000000180024aa1 f   node:node.exe
 0001:00023aad       __imp_load_?MakeWeak@V8@v8@@CAXPEAPEAVObject@internal@2@PEAXP6AXAEBV?$WeakCallbackInfo@X@2@@ZW4WeakCallbackType@2@@Z 0000000180024aad f   node:node.exe
 0001:00023ab9       __imp_load_?DisposeGlobal@V8@v8@@CAXPEAPEAVObject@internal@2@@Z 0000000180024ab9 f   node:node.exe
 0001:00023ac5       __imp_load_?GlobalizeReference@V8@v8@@CAPEAPEAVObject@internal@2@PEAVIsolate@42@PEAPEAV342@@Z 0000000180024ac5 f   node:node.exe
 0001:00023ad1       __imp_load_?ToInteger@Value@v8@@QEBA?AV?$MaybeLocal@VInteger@v8@@@2@V?$Local@VContext@v8@@@2@@Z 0000000180024ad1 f   node:node.exe
 0001:00023add       __imp_load_?IsUint32@Value@v8@@QEBA_NXZ 0000000180024add f   node:node.exe
 0001:00023ae9       __imp_load_?IsNumber@Value@v8@@QEBA_NXZ 0000000180024ae9 f   node:node.exe
 0001:00023af5       __imp_load_?IsObject@Value@v8@@QEBA_NXZ 0000000180024af5 f   node:node.exe
 0001:00023b01       __imp_load_?IsArray@Value@v8@@QEBA_NXZ 0000000180024b01 f   node:node.exe
 0001:00023b0d       __imp_load_?IsFunction@Value@v8@@QEBA_NXZ 0000000180024b0d f   node:node.exe
 0001:00023b19       __imp_load_?Value@Uint32@v8@@QEBAIXZ 0000000180024b19 f   node:node.exe
 0001:00023b25       __imp_load_?HasCaught@TryCatch@v8@@QEBA_NXZ 0000000180024b25 f   node:node.exe
 0001:00023b31       __imp_load_??1TryCatch@v8@@QEAA@XZ 0000000180024b31 f   node:node.exe
 0001:00023b3d       __imp_load_??0TryCatch@v8@@QEAA@PEAVIsolate@1@@Z 0000000180024b3d f   node:node.exe
 0001:00023b49       __imp_load_?Escape@EscapableHandleScope@v8@@AEAAPEAPEAVObject@internal@2@PEAPEAV342@@Z 0000000180024b49 f   node:node.exe
 0001:00023b55       __imp_load_??0EscapableHandleScope@v8@@QEAA@PEAVIsolate@1@@Z 0000000180024b55 f   node:node.exe
 0001:00023b61       __imp_load_??1Utf8Value@String@v8@@QEAA@XZ 0000000180024b61 f   node:node.exe
 0001:00023b6d       __imp_load_??0Utf8Value@String@v8@@QEAA@V?$Local@VValue@v8@@@2@@Z 0000000180024b6d f   node:node.exe
 0001:00023b79       __imp_load_?NewFromUtf8@String@v8@@SA?AV?$MaybeLocal@VString@v8@@@2@PEAVIsolate@2@PEBDW4NewStringType@2@H@Z 0000000180024b79 f   node:node.exe
 0001:00023b85       __imp_load_?Value@Int32@v8@@QEBAHXZ 0000000180024b85 f   node:node.exe
 0001:00023b91       __imp_load_?SlowGetAlignedPointerFromInternalField@Object@v8@@AEAAPEAXH@Z 0000000180024b91 f   node:node.exe
 0001:00023b9d       __imp_load_?SlowGetInternalField@Object@v8@@AEAA?AV?$Local@VValue@v8@@@2@H@Z 0000000180024b9d f   node:node.exe
 0001:00023ba9       __imp_load_?SetAlignedPointerInInternalField@Object@v8@@QEAAXHPEAX@Z 0000000180024ba9 f   node:node.exe
 0001:00023bb5       __imp_load_?SetInternalField@Object@v8@@QEAAXHV?$Local@VValue@v8@@@2@@Z 0000000180024bb5 f   node:node.exe
 0001:00023bc1       __imp_load_?InternalFieldCount@Object@v8@@QEAAHXZ 0000000180024bc1 f   node:node.exe
 0001:00023bcd       __imp_load_?Get@Object@v8@@QEAA?AV?$Local@VValue@v8@@@2@V32@@Z 0000000180024bcd f   node:node.exe
 0001:00023bd9       __imp_load_?Get@Object@v8@@QEAA?AV?$Local@VValue@v8@@@2@I@Z 0000000180024bd9 f   node:node.exe
 0001:00023be5       __imp_load_?Set@Object@v8@@QEAA?AV?$Maybe@_N@2@V?$Local@VContext@v8@@@2@V?$Local@VValue@v8@@@2@1@Z 0000000180024be5 f   node:node.exe
 0001:00023bf1       __imp_load_?Set@Object@v8@@QEAA_NIV?$Local@VValue@v8@@@2@@Z 0000000180024bf1 f   node:node.exe
 0001:00023bfd       __imp_load_?NewInstance@Function@v8@@QEBA?AV?$Local@VObject@v8@@@2@XZ 0000000180024bfd f   node:node.exe
 0001:00023c09       __imp_load_?SetInternalFieldCount@ObjectTemplate@v8@@QEAAXH@Z 0000000180024c09 f   node:node.exe
 0001:00023c15       __imp_load_?SetAccessor@ObjectTemplate@v8@@QEAAXV?$Local@VName@v8@@@2@P6AX0AEBV?$PropertyCallbackInfo@VValue@v8@@@2@@ZP6AX0V?$Local@VValue@v8@@@2@AEBV?$PropertyCallbackInfo@X@2@@Z3W4AccessControl@2@W4PropertyAttribute@2@V?$Local@VAccessorSignature@v8@@@2@@Z 0000000180024c15 f   node:node.exe
 0001:00023c21       __imp_load_?NewInstance@ObjectTemplate@v8@@QEAA?AV?$MaybeLocal@VObject@v8@@@2@V?$Local@VContext@v8@@@2@@Z 0000000180024c21 f   node:node.exe
 0001:00023c2d       __imp_load_?New@ObjectTemplate@v8@@SA?AV?$Local@VObjectTemplate@v8@@@2@PEAVIsolate@2@V?$Local@VFunctionTemplate@v8@@@2@@Z 0000000180024c2d f   node:node.exe
 0001:00023c39       __imp_load_?FatalException@node@@YAXPEAVIsolate@v8@@AEBVTryCatch@3@@Z 0000000180024c39 f   node:node.exe
 0001:00023c45       __imp_load_node_module_register 0000000180024c45 f   node:node.exe
 0001:00023c51       __imp_load_?MakeCallback@node@@YA?AV?$Local@VValue@v8@@@v8@@PEAVIsolate@3@V?$Local@VObject@v8@@@3@V?$Local@VFunction@v8@@@3@HPEAV23@@Z 0000000180024c51 f   node:node.exe
 0001:00023c5d       __imp_load_uv_default_loop 0000000180024c5d f   node:node.exe
 0001:00023c69       __imp_load_?ToInt32@Value@v8@@QEBA?AV?$Local@VInt32@v8@@@2@XZ 0000000180024c69 f   node:node.exe
 0001:00023c75       __imp_load_?ToUint32@Value@v8@@QEBA?AV?$Local@VUint32@v8@@@2@XZ 0000000180024c75 f   node:node.exe
 0001:00023c81       __imp_load_?ToObject@Value@v8@@QEBA?AV?$Local@VObject@v8@@@2@XZ 0000000180024c81 f   node:node.exe
 0001:00023c8d       __imp_load_?ToString@Value@v8@@QEBA?AV?$Local@VString@v8@@@2@XZ 0000000180024c8d f   node:node.exe
 0001:00023c99       __imp_load_?ToBoolean@Value@v8@@QEBA?AV?$Local@VBoolean@v8@@@2@XZ 0000000180024c99 f   node:node.exe
 0001:00023ca5       __imp_load_??1EscapableHandleScope@v8@@QEAA@XZ 0000000180024ca5 f   node:node.exe
 0001:00023cb1       __imp_load_?New@Date@v8@@SA?AV?$MaybeLocal@VValue@v8@@@2@V?$Local@VContext@v8@@@2@N@Z 0000000180024cb1 f   node:node.exe
 0001:00023cbd       __imp_load_?NumberValue@Value@v8@@QEBANXZ 0000000180024cbd f   node:node.exe
 0001:00023cc9       __imp_load_?IsDate@Value@v8@@QEBA_NXZ 0000000180024cc9 f   node:node.exe
 0001:00023cd5       __imp_load_?IsInt32@Value@v8@@QEBA_NXZ 0000000180024cd5 f   node:node.exe
 0001:00023ce1       __imp_load_?New@Number@v8@@SA?AV?$Local@VNumber@v8@@@2@PEAVIsolate@2@N@Z 0000000180024ce1 f   node:node.exe
 0001:00023ced       __imp_load_?New@Object@v8@@SA?AV?$Local@VObject@v8@@@2@PEAVIsolate@2@@Z 0000000180024ced f   node:node.exe
 0001:00023cf9       __imp_load_?GetOwnPropertyNames@Object@v8@@QEAA?AV?$Local@VArray@v8@@@2@XZ 0000000180024cf9 f   node:node.exe
 0001:00023d05       __imp_load_?ForceSet@Object@v8@@QEAA?AV?$Maybe@_N@2@V?$Local@VContext@v8@@@2@V?$Local@VValue@v8@@@2@1W4PropertyAttribute@2@@Z 0000000180024d05 f   node:node.exe
 0001:00023d11       __imp_load_?Set@Object@v8@@QEAA?AV?$Maybe@_N@2@V?$Local@VContext@v8@@@2@IV?$Local@VValue@v8@@@2@@Z 0000000180024d11 f   node:node.exe
 0001:00023d1d       __imp_load_?Call@Function@v8@@QEAA?AV?$Local@VValue@v8@@@2@V32@HQEAV32@@Z 0000000180024d1d f   node:node.exe
 0001:00023d29       __imp_load_?HasInstance@Buffer@node@@YA_NV?$Local@VValue@v8@@@v8@@@Z 0000000180024d29 f   node:node.exe
 0001:00023d35       __imp_load_?HasInstance@Buffer@node@@YA_NV?$Local@VObject@v8@@@v8@@@Z 0000000180024d35 f   node:node.exe
 0001:00023d41       __imp_load_?Data@Buffer@node@@YAPEADV?$Local@VObject@v8@@@v8@@@Z 0000000180024d41 f   node:node.exe
 0001:00023d4d       __imp_load_?Copy@Buffer@node@@YA?AV?$MaybeLocal@VObject@v8@@@v8@@PEAVIsolate@4@PEBD_K@Z 0000000180024d4d f   node:node.exe
 0001:00023d59       __imp_load_?Length@Buffer@node@@YA_KV?$Local@VObject@v8@@@v8@@@Z 0000000180024d59 f   node:node.exe
 0001:00023d68       ??0_Init_locks@std@@QEAA@XZ 0000000180024d68 f   libcpmt:xlock.obj
 0001:00023db4       ??0_Lockit@std@@QEAA@H@Z   0000000180024db4 f   libcpmt:xlock.obj
 0001:00023df0       ??1_Init_locks@std@@QEAA@XZ 0000000180024df0 f   libcpmt:xlock.obj
 0001:00023e34       ??1_Lockit@std@@QEAA@XZ    0000000180024e34 f   libcpmt:xlock.obj
 0001:00023e68       ??4?$_Yarn@D@std@@QEAAAEAV01@PEBD@Z 0000000180024e68 f i libcpmt:locale0.obj
 0001:00023ee0       ??_G_Fac_node@std@@QEAAPEAXI@Z 0000000180024ee0 f i libcpmt:locale0.obj
 0001:00023f6c       ??_E_Locimp@locale@std@@MEAAPEAXI@Z 0000000180024f6c f i libcpmt:locale0.obj
 0001:00023f6c       ??_G_Locimp@locale@std@@MEAAPEAXI@Z 0000000180024f6c f i libcpmt:locale0.obj
 0001:00023fd8       ?_Facet_Register@std@@YAXPEAV_Facet_base@1@@Z 0000000180024fd8 f   libcpmt:locale0.obj
 0001:00024010       ?_Getgloballocale@locale@std@@CAPEAV_Locimp@12@XZ 0000000180025010 f   libcpmt:locale0.obj
 0001:00024018       ?_Init@locale@std@@CAPEAV_Locimp@12@_N@Z 0000000180025018 f   libcpmt:locale0.obj
 0001:000240d4       ?_Locimp_dtor@_Locimp@locale@std@@CAXPEAV123@@Z 00000001800250d4 f   libcpmt:locale0.obj
 0001:0002417c       ?_Locinfo_ctor@_Locinfo@std@@SAXPEAV12@PEBD@Z 000000018002517c f   libcpmt:locale0.obj
 0001:000241e8       ?_Locinfo_dtor@_Locinfo@std@@SAXPEAV12@@Z 00000001800251e8 f   libcpmt:locale0.obj
 0001:0002420c       ?_New_Locimp@_Locimp@locale@std@@CAPEAV123@_N@Z 000000018002520c f   libcpmt:locale0.obj
 0001:0002427c       ?_Setgloballocale@locale@std@@CAXPEAX@Z 000000018002527c f   libcpmt:locale0.obj
 0001:000242b0       _Deletegloballocale        00000001800252b0 f   libcpmt:locale0.obj
 0001:00024338       ??0bad_alloc@std@@QEAA@AEBV01@@Z 0000000180025338 f i libcpmt:xthrow.obj
 0001:00024378       ??0bad_alloc@std@@QEAA@XZ  0000000180025378 f i libcpmt:xthrow.obj
 0001:00024398       ??0exception@std@@QEAA@AEBV01@@Z 0000000180025398 f i libcpmt:xthrow.obj
 0001:000243d0       ??0length_error@std@@QEAA@AEBV01@@Z 00000001800253d0 f i libcpmt:xthrow.obj
 0001:00024410       ??0length_error@std@@QEAA@PEBD@Z 0000000180025410 f i libcpmt:xthrow.obj
 0001:0002445c       ??0logic_error@std@@QEAA@AEBV01@@Z 000000018002545c f i libcpmt:xthrow.obj
 0001:0002449c       ??0out_of_range@std@@QEAA@AEBV01@@Z 000000018002549c f i libcpmt:xthrow.obj
 0001:000244dc       ??0out_of_range@std@@QEAA@PEBD@Z 00000001800254dc f i libcpmt:xthrow.obj
 0001:00024528       ??_Glogic_error@std@@UEAAPEAXI@Z 0000000180025528 f i libcpmt:xthrow.obj
 0001:00024528       ??_Gbad_exception@std@@UEAAPEAXI@Z 0000000180025528 f i libvcruntime:frame.obj
 0001:00024528       ??_Ebad_exception@std@@UEAAPEAXI@Z 0000000180025528 f i libvcruntime:frame.obj
 0001:00024528       ??_Gbad_alloc@std@@UEAAPEAXI@Z 0000000180025528 f i libcpmt:xthrow.obj
 0001:00024528       ??_Eout_of_range@std@@UEAAPEAXI@Z 0000000180025528 f i libcpmt:xthrow.obj
 0001:00024528       ??_Gout_of_range@std@@UEAAPEAXI@Z 0000000180025528 f i libcpmt:xthrow.obj
 0001:00024528       ??_Elength_error@std@@UEAAPEAXI@Z 0000000180025528 f i libcpmt:xthrow.obj
 0001:00024528       ??_Elogic_error@std@@UEAAPEAXI@Z 0000000180025528 f i libcpmt:xthrow.obj
 0001:00024528       ??_Gexception@std@@UEAAPEAXI@Z 0000000180025528 f i libcpmt:xthrow.obj
 0001:00024528       ??_Eexception@std@@UEAAPEAXI@Z 0000000180025528 f i libcpmt:xthrow.obj
 0001:00024528       ??_Ebad_array_new_length@std@@UEAAPEAXI@Z 0000000180025528 f i LIBCMT:throw_bad_alloc.obj
 0001:00024528       ??_Glength_error@std@@UEAAPEAXI@Z 0000000180025528 f i libcpmt:xthrow.obj
 0001:00024528       ??_Ebad_alloc@std@@UEAAPEAXI@Z 0000000180025528 f i libcpmt:xthrow.obj
 0001:00024528       ??_Gbad_array_new_length@std@@UEAAPEAXI@Z 0000000180025528 f i LIBCMT:throw_bad_alloc.obj
 0001:0002456c       ?__scrt_throw_std_bad_alloc@@YAXXZ 000000018002556c f   LIBCMT:throw_bad_alloc.obj
 0001:0002456c       ?_Xbad_alloc@std@@YAXXZ    000000018002556c f   libcpmt:xthrow.obj
 0001:0002458c       ?_Xlength_error@std@@YAXPEBD@Z 000000018002558c f   libcpmt:xthrow.obj
 0001:000245b0       ?_Xout_of_range@std@@YAXPEBD@Z 00000001800255b0 f   libcpmt:xthrow.obj
 0001:000245d4       ?what@exception@std@@UEBAPEBDXZ 00000001800255d4 f i libcpmt:xthrow.obj
 0001:000245e8       ?_Ios_base_dtor@ios_base@std@@CAXPEAV12@@Z 00000001800255e8 f   libcpmt:ios.obj
 0001:0002462c       ?_Tidy@ios_base@std@@AEAAXXZ 000000018002562c f i libcpmt:ios.obj
 0001:000246bc       ?_Syserror_map@std@@YAPEBDH@Z 00000001800256bc f   libcpmt:syserror.obj
 0001:000246e4       _Getctype                  00000001800256e4 f   libcpmt:_tolower.obj
 0001:000247a4       _Tolower                   00000001800257a4 f   libcpmt:_tolower.obj
 0001:000248cc       _Getcvt                    00000001800258cc f   libcpmt:xwctomb.obj
 0001:0002495c       _Toupper                   000000018002595c f   libcpmt:_toupper.obj
 0001:00024a94       ?setw@std@@YA?AU?$_Smanip@_J@1@_J@Z 0000000180025a94 f   libcpmt:iomanip.obj
 0001:00024ab0       _Mtxdst                    0000000180025ab0 f   libcpmt:xmtx.obj
 0001:00024ab8       _Mtxinit                   0000000180025ab8 f   libcpmt:xmtx.obj
 0001:00024ac8       _Mtxlock                   0000000180025ac8 f   libcpmt:xmtx.obj
 0001:00024ad0       _Mtxunlock                 0000000180025ad0 f   libcpmt:xmtx.obj
 0001:00024ad8       ?_Atexit@@YAXP6AXXZ@Z      0000000180025ad8 f   libcpmt:iosptrs.obj
 0001:00024b18       __crtLCMapStringA          0000000180025b18 f   libcpmt:StlLCMapStringA.obj
 0001:000252dc       __crtInitializeCriticalSectionEx 00000001800262dc f   libcpmt:winapisupp.obj
 0001:0002533c       GetTableIndexFromLocaleName 000000018002633c f   libcpmt:winapinls.obj
 0001:000253c8       __crtDownlevelLocaleNameToLCID 00000001800263c8 f   libcpmt:winapinls.obj
 0001:000253fc       __crtLCMapStringEx         00000001800263fc f   libcpmt:winapinls.obj
 0001:000254b8       __wcsnicmp_ascii           00000001800264b8 f   libcpmt:winapinls.obj
 0001:00025520       __security_check_cookie    0000000180026520 f   LIBCMT:_amdsecgs_.obj
 0001:00025544       ??_V@YAXPEAX@Z             0000000180026544 f   LIBCMT:delete_array.obj
 0001:00025544       ??3@YAXPEAX_K@Z            0000000180026544 f   LIBCMT:delete_scalar_size.obj
 0001:00025694       _Init_thread_footer        0000000180026694 f   LIBCMT:thread_safe_statics.obj
 0001:000256f4       _Init_thread_header        00000001800266f4 f   LIBCMT:thread_safe_statics.obj
 0001:0002575c       _Init_thread_notify        000000018002675c f   LIBCMT:thread_safe_statics.obj
 0001:000257b8       _Init_thread_wait          00000001800267b8 f   LIBCMT:thread_safe_statics.obj
 0001:00025850       ??2@YAPEAX_K@Z             0000000180026850 f   LIBCMT:new_scalar.obj
 0001:0002588c       __scrt_acquire_startup_lock 000000018002688c f   LIBCMT:utility.obj
 0001:000258c8       __scrt_dllmain_after_initialize_c 00000001800268c8 f   LIBCMT:utility.obj
 0001:000258e8       __scrt_dllmain_before_initialize_c 00000001800268e8 f   LIBCMT:utility.obj
 0001:00025900       __scrt_dllmain_crt_thread_attach 0000000180026900 f   LIBCMT:utility.obj
 0001:00025928       __scrt_dllmain_crt_thread_detach 0000000180026928 f   LIBCMT:utility.obj
 0001:00025940       __scrt_dllmain_exception_filter 0000000180026940 f   LIBCMT:utility.obj
 0001:000259a4       __scrt_dllmain_uninitialize_c 00000001800269a4 f   LIBCMT:utility.obj
 0001:000259d4       __scrt_dllmain_uninitialize_critical 00000001800269d4 f   LIBCMT:utility.obj
 0001:000259e8       __scrt_initialize_crt      00000001800269e8 f   LIBCMT:utility.obj
 0001:00025a34       __scrt_initialize_onexit_tables 0000000180026a34 f   LIBCMT:utility.obj
 0001:00025b00       __scrt_is_nonwritable_in_current_image 0000000180026b00 f   LIBCMT:utility.obj
 0001:00025b9c       __scrt_release_startup_lock 0000000180026b9c f   LIBCMT:utility.obj
 0001:00025bc0       __scrt_uninitialize_crt    0000000180026bc0 f   LIBCMT:utility.obj
 0001:00025bec       _onexit                    0000000180026bec f   LIBCMT:utility.obj
 0001:00025c3c       atexit                     0000000180026c3c f   LIBCMT:utility.obj
 0001:00025c54       ??3@YAXPEAX@Z              0000000180026c54 f   LIBCMT:delete_scalar.obj
 0001:00025c5c       ??_Gtype_info@@UEAAPEAXI@Z 0000000180026c5c f i LIBCMT:std_type_info_static.obj
 0001:00025c5c       ??_Etype_info@@UEAAPEAXI@Z 0000000180026c5c f i LIBCMT:std_type_info_static.obj
 0001:00025c88       ??_V@YAXPEAX_K@Z           0000000180026c88 f   LIBCMT:delete_array_size.obj
 0001:00025c90       ??_M@YAXPEAX_K1P6AX0@Z@Z   0000000180026c90 f   LIBCMT:ehvecdtr.obj
 0001:00025cfc       ?__ArrayUnwind@@YAXPEAX_K1P6AX0@Z@Z 0000000180026cfc f   LIBCMT:ehvecdtr.obj
 0001:00025d60       ??_U@YAPEAX_K@Z            0000000180026d60 f   LIBCMT:new_array.obj
 0001:00025d68       ??_L@YAXPEAX_K1P6AX0@Z2@Z  0000000180026d68 f   LIBCMT:ehvecctr.obj
 0001:00025dd8       __raise_securityfailure    0000000180026dd8 f   LIBCMT:gs_report.obj
 0001:00025e0c       __report_gsfailure         0000000180026e0c f   LIBCMT:gs_report.obj
 0001:00025ee0       __report_rangecheckfailure 0000000180026ee0 f   LIBCMT:gs_report.obj
 0001:00025ef4       __report_securityfailure   0000000180026ef4 f   LIBCMT:gs_report.obj
 0001:000263d0       _DllMainCRTStartup         00000001800273d0 f   LIBCMT:dll_dllmain.obj
 0001:00026410       _guard_check_icall         0000000180027410 f i LIBCMT:checkcfg.obj
 0001:00026418       __GSHandlerCheck           0000000180027418 f   LIBCMT:_gshandler_.obj
 0001:00026438       __GSHandlerCheckCommon     0000000180027438 f   LIBCMT:_gshandler_.obj
 0001:00026494       __GSHandlerCheck_EH        0000000180027494 f   LIBCMT:gshandlereh.obj
 0001:00026540       __chkstk                   0000000180027540 f   LIBCMT:_chkstk_.obj
 0001:00026540       _alloca_probe              0000000180027540 f   LIBCMT:_chkstk_.obj
 0001:00026594       __crt_debugger_hook        0000000180027594 f   LIBCMT:utility_desktop.obj
 0001:0002659c       __scrt_fastfail            000000018002759c f   LIBCMT:utility_desktop.obj
 0001:000266e4       ??0bad_array_new_length@std@@QEAA@AEBV01@@Z 00000001800276e4 f i LIBCMT:throw_bad_alloc.obj
 0001:00026724       ??0bad_array_new_length@std@@QEAA@XZ 0000000180027724 f i LIBCMT:throw_bad_alloc.obj
 0001:00026744       ??1out_of_range@std@@UEAA@XZ 0000000180027744 f i libcpmt:xthrow.obj
 0001:00026744       ??1bad_exception@std@@UEAA@XZ 0000000180027744 f i libvcruntime:frame.obj
 0001:00026744       ??1bad_array_new_length@std@@UEAA@XZ 0000000180027744 f i LIBCMT:throw_bad_alloc.obj
 0001:00026744       ??1length_error@std@@UEAA@XZ 0000000180027744 f i libcpmt:xthrow.obj
 0001:00026744       ??1bad_alloc@std@@UEAA@XZ  0000000180027744 f i libcpmt:xthrow.obj
 0001:00026758       ?__scrt_throw_std_bad_array_new_length@@YAXXZ 0000000180027758 f   LIBCMT:throw_bad_alloc.obj
 0001:00026778       __isa_available_init       0000000180027778 f   LIBCMT:_cpu_disp_.obj
 0001:0002693c       __scrt_is_ucrt_dll_in_use  000000018002793c f   LIBCMT:ucrt_detection.obj
 0001:00026948       __security_init_cookie     0000000180027948 f   LIBCMT:gs_support.obj
 0001:000269f4       DllMain                    00000001800279f4 f   LIBCMT:dll_dllmain_stub.obj
 0001:000269fc       ?__scrt_initialize_type_info@@YAXXZ 00000001800279fc f   LIBCMT:tncleanup.obj
 0001:00026a0c       ?__scrt_uninitialize_type_info@@YAXXZ 0000000180027a0c f   LIBCMT:tncleanup.obj
 0001:00026a18       __local_stdio_scanf_options 0000000180027a18 f i LIBCMT:default_local_stdio_options.obj
 0001:00026a20       __scrt_initialize_default_local_stdio_options 0000000180027a20 f   LIBCMT:default_local_stdio_options.obj
 0001:00026a3c       __scrt_get_dyn_tls_init_callback 0000000180027a3c f   LIBCMT:dyn_tls_init.obj
 0001:00026a44       _RTC_Initialize            0000000180027a44 f   LIBCMT:_initsect_.obj
 0001:00026a90       _RTC_Terminate             0000000180027a90 f   LIBCMT:_initsect_.obj
 0001:00026af0       memmove                    0000000180027af0 f   libvcruntime:memcpy.obj
 0001:00026af0       memcpy                     0000000180027af0 f   libvcruntime:memcpy.obj
 0001:00026f28       _purecall                  0000000180027f28 f   libvcruntime:purevirt.obj
 0001:00026f64       __DestructExceptionObject  0000000180027f64 f   libvcruntime:frame.obj
 0001:00026fec       ??0bad_exception@std@@QEAA@AEBV01@@Z 0000000180027fec f i libvcruntime:frame.obj
 0001:0002702c       ??0bad_exception@std@@QEAA@XZ 000000018002802c f i libvcruntime:frame.obj
 0001:00027974       ?_CallMemberFunction0@@YAXPEAXP6AX0@Z@Z 0000000180028974 f i libvcruntime:frame.obj
 0001:00027978       ?_CallMemberFunction1@@YAXPEAXP6AX0@Z0@Z 0000000180028978 f i libvcruntime:frame.obj
 0001:00027984       ?_CallMemberFunction2@@YAXPEAXP6AX0@Z0H@Z 0000000180028984 f i libvcruntime:frame.obj
 0001:00027994       __AdjustPointer            0000000180028994 f   libvcruntime:frame.obj
 0001:000279b8       __BuildCatchObject         00000001800289b8 f   libvcruntime:frame.obj
 0001:00027a80       __BuildCatchObjectHelper   0000000180028a80 f   libvcruntime:frame.obj
 0001:00027c64       __CxxCallCatchBlock        0000000180028c64 f   libvcruntime:frame.obj
 0001:00027e50       __FrameUnwindFilter        0000000180028e50 f   libvcruntime:frame.obj
 0001:00027e9c       __FrameUnwindToState       0000000180028e9c f   libvcruntime:frame.obj
 0001:00028030       __InternalCxxFrameHandler  0000000180029030 f   libvcruntime:frame.obj
 0001:00028288       __TypeMatch                0000000180029288 f   libvcruntime:frame.obj
 0001:000283c8       __std_terminate            00000001800293c8 f   libvcruntime:frame.obj
 0001:000283d4       ?_GetEstablisherFrame@@YAPEA_KPEA_KPEAU_xDISPATCHER_CONTEXT@@PEBU_s_FuncInfo@@0@Z 00000001800293d4 f   libvcruntime:trnsctrl.obj
 0001:000284a0       ?_GetRangeOfTrysToCheck@@YAPEBU_s_TryBlockMapEntry@@PEA_KPEBU_s_FuncInfo@@HHPEAI2PEAU_xDISPATCHER_CONTEXT@@@Z 00000001800294a0 f   libvcruntime:trnsctrl.obj
 0001:000285cc       ?__FrameUnwindToEmptyState@@YAXPEA_KPEAU_xDISPATCHER_CONTEXT@@PEBU_s_FuncInfo@@@Z 00000001800295cc f   libvcruntime:trnsctrl.obj
 0001:00028660       ?__SehTransFilter@@YAHPEAU_EXCEPTION_POINTERS@@PEAUEHExceptionRecord@@PEA_KPEAU_CONTEXT@@PEAU_xDISPATCHER_CONTEXT@@PEBU_s_FuncInfo@@PEAH@Z 0000000180029660 f   libvcruntime:trnsctrl.obj
 0001:000286f8       _CallSETranslator          00000001800296f8 f   libvcruntime:trnsctrl.obj
 0001:00028750       _CreateFrameInfo           0000000180029750 f   libvcruntime:trnsctrl.obj
 0001:0002878c       _FindAndUnlinkFrame        000000018002978c f   libvcruntime:trnsctrl.obj
 0001:000287e4       _GetImageBase              00000001800297e4 f   libvcruntime:trnsctrl.obj
 0001:000287f8       _GetThrowImageBase         00000001800297f8 f   libvcruntime:trnsctrl.obj
 0001:0002880c       _IsExceptionObjectToBeDestroyed 000000018002980c f   libvcruntime:trnsctrl.obj
 0001:0002883c       _SetImageBase              000000018002983c f   libvcruntime:trnsctrl.obj
 0001:00028854       _SetThrowImageBase         0000000180029854 f   libvcruntime:trnsctrl.obj
 0001:0002886c       _UnwindNestedFrames        000000018002986c f   libvcruntime:trnsctrl.obj
 0001:00028990       __CxxFrameHandler3         0000000180029990 f   libvcruntime:trnsctrl.obj
 0001:00028a10       __std_exception_copy       0000000180029a10 f   libvcruntime:std_exception.obj
 0001:00028aa0       __std_exception_destroy    0000000180029aa0 f   libvcruntime:std_exception.obj
 0001:00028ac8       _CxxThrowException         0000000180029ac8 f   libvcruntime:throw.obj
 0001:00028bb0       memset                     0000000180029bb0 f   libvcruntime:memset.obj
 0001:00028d60       memcmp                     0000000180029d60 f   libvcruntime:memcmp.obj
 0001:00028ff0       __vcrt_EventRegister       0000000180029ff0 f   libvcruntime:winapi_downlevel.obj
 0001:00029074       __vcrt_EventSetInformation 000000018002a074 f   libvcruntime:winapi_downlevel.obj
 0001:000290f8       __vcrt_EventUnregister     000000018002a0f8 f   libvcruntime:winapi_downlevel.obj
 0001:0002914c       __vcrt_EventWriteTransfer  000000018002a14c f   libvcruntime:winapi_downlevel.obj
 0001:000291e4       __vcrt_FlsAlloc            000000018002a1e4 f   libvcruntime:winapi_downlevel.obj
 0001:00029238       __vcrt_FlsFree             000000018002a238 f   libvcruntime:winapi_downlevel.obj
 0001:0002928c       __vcrt_FlsGetValue         000000018002a28c f   libvcruntime:winapi_downlevel.obj
 0001:000292e0       __vcrt_FlsSetValue         000000018002a2e0 f   libvcruntime:winapi_downlevel.obj
 0001:00029348       __vcrt_InitializeCriticalSectionEx 000000018002a348 f   libvcruntime:winapi_downlevel.obj
 0001:000293c0       __vcrt_initialize_winapi_thunks 000000018002a3c0 f   libvcruntime:winapi_downlevel.obj
 0001:000293f8       __vcrt_uninitialize_winapi_thunks 000000018002a3f8 f   libvcruntime:winapi_downlevel.obj
 0001:00029438       __vcrt_initialize          000000018002a438 f   libvcruntime:initialization.obj
 0001:00029470       __vcrt_thread_attach       000000018002a470 f   libvcruntime:initialization.obj
 0001:00029484       __vcrt_thread_detach       000000018002a484 f   libvcruntime:initialization.obj
 0001:00029498       __vcrt_uninitialize        000000018002a498 f   libvcruntime:initialization.obj
 0001:000294c4       __vcrt_uninitialize_critical 000000018002a4c4 f   libvcruntime:initialization.obj
 0001:000294d4       __C_specific_handler       000000018002a4d4 f   libvcruntime:_chandler_.obj
 0001:000296c8       __telemetry_main_invoke_trigger 000000018002a6c8 f   libvcruntime:telemetry.obj
 0001:000297e0       __telemetry_main_return_trigger 000000018002a7e0 f   libvcruntime:telemetry.obj
 0001:000298f8       __vcrt_initialize_telemetry_provider 000000018002a8f8 f   libvcruntime:telemetry.obj
 0001:0002990c       __vcrt_uninitialize_telemetry_provider 000000018002a90c f   libvcruntime:telemetry.obj
 0001:0002992c       __std_type_info_compare    000000018002a92c f   libvcruntime:std_type_info.obj
 0001:00029954       __std_type_info_destroy_list 000000018002a954 f   libvcruntime:std_type_info.obj
 0001:00029980       __vcrt_initialize_pure_virtual_call_handler 000000018002a980 f   libvcruntime:purevirt_data.obj
 0001:000299a4       __vcrt_freefls             000000018002a9a4 f   libvcruntime:per_thread_data.obj
 0001:000299c4       __vcrt_freeptd             000000018002a9c4 f   libvcruntime:per_thread_data.obj
 0001:00029a14       __vcrt_getptd              000000018002aa14 f   libvcruntime:per_thread_data.obj
 0001:00029a30       __vcrt_getptd_noexit       000000018002aa30 f   libvcruntime:per_thread_data.obj
 0001:00029ad8       __vcrt_initialize_ptd      000000018002aad8 f   libvcruntime:per_thread_data.obj
 0001:00029b18       __vcrt_uninitialize_ptd    000000018002ab18 f   libvcruntime:per_thread_data.obj
 0001:00029b3c       ?__GetCurrentState@@YAHPEA_KPEAU_xDISPATCHER_CONTEXT@@PEBU_s_FuncInfo@@@Z 000000018002ab3c f   libvcruntime:ehstate.obj
 0001:00029b64       ?__GetUnwindTryBlock@@YAHPEA_KPEAU_xDISPATCHER_CONTEXT@@PEBU_s_FuncInfo@@@Z 000000018002ab64 f   libvcruntime:ehstate.obj
 0001:00029b90       ?__SetState@@YAXPEA_KPEAU_xDISPATCHER_CONTEXT@@PEBU_s_FuncInfo@@H@Z 000000018002ab90 f   libvcruntime:ehstate.obj
 0001:00029b9c       ?__SetUnwindTryBlock@@YAXPEA_KPEAU_xDISPATCHER_CONTEXT@@PEBU_s_FuncInfo@@H@Z 000000018002ab9c f   libvcruntime:ehstate.obj
 0001:00029bd8       ?__StateFromControlPc@@YAHPEBU_s_FuncInfo@@PEAU_xDISPATCHER_CONTEXT@@@Z 000000018002abd8 f   libvcruntime:ehstate.obj
 0001:00029be0       ?__StateFromIp@@YAHPEBU_s_FuncInfo@@PEAU_xDISPATCHER_CONTEXT@@_J@Z 000000018002abe0 f   libvcruntime:ehstate.obj
 0001:00029c60       _CallSettingFrame          000000018002ac60 f   libvcruntime:handlers.obj
 0001:00029cb0       _local_unwind              000000018002acb0 f   libvcruntime:_jmpuwind_.obj
 0001:00029ce0       _NLG_Notify                000000018002ace0 f   libvcruntime:_jmpuwind_.obj
 0001:00029d00       __NLG_Dispatch2            000000018002ad00 f   libvcruntime:_jmpuwind_.obj
 0001:00029d10       __NLG_Return2              000000018002ad10 f   libvcruntime:_jmpuwind_.obj
 0001:00029d14       __vcrt_initialize_locks    000000018002ad14 f   libvcruntime:locks.obj
 0001:00029d5c       __vcrt_uninitialize_locks  000000018002ad5c f   libvcruntime:locks.obj
 0001:00029d94       abort                      000000018002ad94 f   libucrt:abort.obj
 0001:00029dec       calloc                     000000018002adec f   libucrt:calloc.obj
 0001:00029df4       __acrt_call_reportfault    000000018002adf4 f   libucrt:invalid_parameter.obj
 0001:00029f50       __acrt_initialize_invalid_parameter_handler 000000018002af50 f   libucrt:invalid_parameter.obj
 0001:00029f58       _invalid_parameter         000000018002af58 f   libucrt:invalid_parameter.obj
 0001:0002a000       _invalid_parameter_noinfo  000000018002b000 f   libucrt:invalid_parameter.obj
 0001:0002a020       _invalid_parameter_noinfo_noreturn 000000018002b020 f   libucrt:invalid_parameter.obj
 0001:0002a050       _invoke_watson             000000018002b050 f   libucrt:invalid_parameter.obj
 0001:0002a098       strcspn                    000000018002b098 f   libucrt:strcspn.obj
 0001:0002a138       ??$?RV<lambda_7b91131dde12e1c3dfc74ff76b3f2eac>@@AEAV<lambda_dd75445284c072d0bd3768540cc698fa>@@V<lambda_16bc4ecb55b4718497c16bceaea2ceaf>@@@?$__crt_seh_guarded_call@H@@QEAAH$$QEAV<lambda_7b91131dde12e1c3dfc74ff76b3f2eac>@@AEAV<lambda_dd75445284c072d0bd3768540cc698fa>@@$$QEAV<lambda_16bc4ecb55b4718497c16bceaea2ceaf>@@@Z 000000018002b138 f i libucrt:output.obj
 0001:0002a320       ??$ensure_buffer_is_big_enough@D@formatting_buffer@__crt_stdio_output@@QEAA_N_K@Z 000000018002b320 f i libucrt:output.obj
 0001:0002a3cc       ??$is_wide_character_specifier@D@__crt_stdio_output@@YA_N_KDW4length_modifier@0@@Z 000000018002b3cc f i libucrt:output.obj
 0001:0002a3fc       ??$is_wide_character_specifier@_W@__crt_stdio_output@@YA_N_K_WW4length_modifier@0@@Z 000000018002b3fc f i libucrt:output.obj
 0001:0002a440       ??$type_case_integer_parse_into_buffer@I@?$output_processor@DV?$string_output_adapter@D@__crt_stdio_output@@V?$standard_base@DV?$string_output_adapter@D@__crt_stdio_output@@@2@@__crt_stdio_output@@AEAAXII_N@Z 000000018002b440 f i libucrt:output.obj
 0001:0002a440       ??$type_case_integer_parse_into_buffer@I@?$output_processor@DV?$string_output_adapter@D@__crt_stdio_output@@V?$format_validation_base@DV?$string_output_adapter@D@__crt_stdio_output@@@2@@__crt_stdio_output@@AEAAXII_N@Z 000000018002b440 f i libucrt:output.obj
 0001:0002a440       ??$type_case_integer_parse_into_buffer@I@?$output_processor@_WV?$stream_output_adapter@_W@__crt_stdio_output@@V?$standard_base@_WV?$stream_output_adapter@_W@__crt_stdio_output@@@2@@__crt_stdio_output@@AEAAXII_N@Z 000000018002b440 f i libucrt:output.obj
 0001:0002a440       ??$type_case_integer_parse_into_buffer@I@?$output_processor@_WV?$string_output_adapter@_W@__crt_stdio_output@@V?$standard_base@_WV?$string_output_adapter@_W@__crt_stdio_output@@@2@@__crt_stdio_output@@AEAAXII_N@Z 000000018002b440 f i libucrt:output.obj
 0001:0002a4dc       ??$type_case_integer_parse_into_buffer@_K@?$output_processor@_WV?$string_output_adapter@_W@__crt_stdio_output@@V?$standard_base@_WV?$string_output_adapter@_W@__crt_stdio_output@@@2@@__crt_stdio_output@@AEAAX_KI_N@Z 000000018002b4dc f i libucrt:output.obj
 0001:0002a4dc       ??$type_case_integer_parse_into_buffer@_K@?$output_processor@DV?$string_output_adapter@D@__crt_stdio_output@@V?$format_validation_base@DV?$string_output_adapter@D@__crt_stdio_output@@@2@@__crt_stdio_output@@AEAAX_KI_N@Z 000000018002b4dc f i libucrt:output.obj
 0001:0002a4dc       ??$type_case_integer_parse_into_buffer@_K@?$output_processor@_WV?$stream_output_adapter@_W@__crt_stdio_output@@V?$standard_base@_WV?$stream_output_adapter@_W@__crt_stdio_output@@@2@@__crt_stdio_output@@AEAAX_KI_N@Z 000000018002b4dc f i libucrt:output.obj
 0001:0002a4dc       ??$type_case_integer_parse_into_buffer@_K@?$output_processor@DV?$string_output_adapter@D@__crt_stdio_output@@V?$standard_base@DV?$string_output_adapter@D@__crt_stdio_output@@@2@@__crt_stdio_output@@AEAAX_KI_N@Z 000000018002b4dc f i libucrt:output.obj
 0001:0002a578       ??$write_multiple_characters@V?$stream_output_adapter@_W@__crt_stdio_output@@D@__crt_stdio_output@@YAXAEBV?$stream_output_adapter@_W@0@DHQEAH@Z 000000018002b578 f i libucrt:output.obj
 0001:0002a608       ??$write_multiple_characters@V?$string_output_adapter@D@__crt_stdio_output@@D@__crt_stdio_output@@YAXAEBV?$string_output_adapter@D@0@DHQEAH@Z 000000018002b608 f i libucrt:output.obj
 0001:0002a664       ??$write_multiple_characters@V?$string_output_adapter@_W@__crt_stdio_output@@D@__crt_stdio_output@@YAXAEBV?$string_output_adapter@_W@0@DHQEAH@Z 000000018002b664 f i libucrt:output.obj
 0001:0002a6d4       ??0?$output_processor@DV?$string_output_adapter@D@__crt_stdio_output@@V?$standard_base@DV?$string_output_adapter@D@__crt_stdio_output@@@2@@__crt_stdio_output@@QEAA@AEBV?$string_output_adapter@D@1@_KQEBDQEAU__crt_locale_pointers@@QEAD@Z 000000018002b6d4 f i libucrt:output.obj
 0001:0002a6d4       ??0?$output_processor@DV?$string_output_adapter@D@__crt_stdio_output@@V?$format_validation_base@DV?$string_output_adapter@D@__crt_stdio_output@@@2@@__crt_stdio_output@@QEAA@AEBV?$string_output_adapter@D@1@_KQEBDQEAU__crt_locale_pointers@@QEAD@Z 000000018002b6d4 f i libucrt:output.obj
 0001:0002a750       ??0?$output_processor@_WV?$stream_output_adapter@_W@__crt_stdio_output@@V?$standard_base@_WV?$stream_output_adapter@_W@__crt_stdio_output@@@2@@__crt_stdio_output@@QEAA@AEBV?$stream_output_adapter@_W@1@_KQEB_WQEAU__crt_locale_pointers@@QEAD@Z 000000018002b750 f i libucrt:output.obj
 0001:0002a750       ??0?$output_processor@_WV?$string_output_adapter@_W@__crt_stdio_output@@V?$standard_base@_WV?$string_output_adapter@_W@__crt_stdio_output@@@2@@__crt_stdio_output@@QEAA@AEBV?$string_output_adapter@_W@1@_KQEB_WQEAU__crt_locale_pointers@@QEAD@Z 000000018002b750 f i libucrt:output.obj
 0001:0002a7d0       ??0_LocaleUpdate@@QEAA@QEAU__crt_locale_pointers@@@Z 000000018002b7d0 f i libucrt:output.obj
 0001:0002a950       ?force_decimal_point@__crt_stdio_output@@YAXPEADQEAU__crt_locale_pointers@@@Z 000000018002b950 f i libucrt:output.obj
 0001:0002a9c0       ?parse_int_from_format_string@?$output_processor@DV?$string_output_adapter@D@__crt_stdio_output@@V?$format_validation_base@DV?$string_output_adapter@D@__crt_stdio_output@@@2@@__crt_stdio_output@@AEAA_NQEAH@Z 000000018002b9c0 f i libucrt:output.obj
 0001:0002a9c0       ?parse_int_from_format_string@?$output_processor@DV?$string_output_adapter@D@__crt_stdio_output@@V?$standard_base@DV?$string_output_adapter@D@__crt_stdio_output@@@2@@__crt_stdio_output@@AEAA_NQEAH@Z 000000018002b9c0 f i libucrt:output.obj
 0001:0002aa44       ?parse_int_from_format_string@?$output_processor@_WV?$stream_output_adapter@_W@__crt_stdio_output@@V?$standard_base@_WV?$stream_output_adapter@_W@__crt_stdio_output@@@2@@__crt_stdio_output@@AEAA_NQEAH@Z 000000018002ba44 f i libucrt:output.obj
 0001:0002aa44       ?parse_int_from_format_string@?$output_processor@_WV?$string_output_adapter@_W@__crt_stdio_output@@V?$standard_base@_WV?$string_output_adapter@_W@__crt_stdio_output@@@2@@__crt_stdio_output@@AEAA_NQEAH@Z 000000018002ba44 f i libucrt:output.obj
 0001:0002aac4       ?process@?$output_processor@DV?$string_output_adapter@D@__crt_stdio_output@@V?$format_validation_base@DV?$string_output_adapter@D@__crt_stdio_output@@@2@@__crt_stdio_output@@QEAAHXZ 000000018002bac4 f i libucrt:output.obj
 0001:0002acd8       ?process@?$output_processor@DV?$string_output_adapter@D@__crt_stdio_output@@V?$standard_base@DV?$string_output_adapter@D@__crt_stdio_output@@@2@@__crt_stdio_output@@QEAAHXZ 000000018002bcd8 f i libucrt:output.obj
 0001:0002aedc       ?process@?$output_processor@_WV?$stream_output_adapter@_W@__crt_stdio_output@@V?$standard_base@_WV?$stream_output_adapter@_W@__crt_stdio_output@@@2@@__crt_stdio_output@@QEAAHXZ 000000018002bedc f i libucrt:output.obj
 0001:0002b154       ?process@?$output_processor@_WV?$string_output_adapter@_W@__crt_stdio_output@@V?$standard_base@_WV?$string_output_adapter@_W@__crt_stdio_output@@@2@@__crt_stdio_output@@QEAAHXZ 000000018002c154 f i libucrt:output.obj
 0001:0002b3d0       ?state_case_normal@?$output_processor@DV?$string_output_adapter@D@__crt_stdio_output@@V?$standard_base@DV?$string_output_adapter@D@__crt_stdio_output@@@2@@__crt_stdio_output@@AEAA_NXZ 000000018002c3d0 f i libucrt:output.obj
 0001:0002b3d0       ?state_case_normal@?$output_processor@DV?$string_output_adapter@D@__crt_stdio_output@@V?$format_validation_base@DV?$string_output_adapter@D@__crt_stdio_output@@@2@@__crt_stdio_output@@AEAA_NXZ 000000018002c3d0 f i libucrt:output.obj
 0001:0002b444       ?state_case_normal_tchar@?$output_processor@DV?$string_output_adapter@D@__crt_stdio_output@@V?$standard_base@DV?$string_output_adapter@D@__crt_stdio_output@@@2@@__crt_stdio_output@@AEAA_ND@Z 000000018002c444 f i libucrt:output.obj
 0001:0002b444       ?state_case_normal_tchar@?$output_processor@DV?$string_output_adapter@D@__crt_stdio_output@@V?$format_validation_base@DV?$string_output_adapter@D@__crt_stdio_output@@@2@@__crt_stdio_output@@AEAA_ND@Z 000000018002c444 f i libucrt:output.obj
 0001:0002b4dc       ?state_case_size@?$output_processor@DV?$string_output_adapter@D@__crt_stdio_output@@V?$standard_base@DV?$string_output_adapter@D@__crt_stdio_output@@@2@@__crt_stdio_output@@AEAA_NXZ 000000018002c4dc f i libucrt:output.obj
 0001:0002b4dc       ?state_case_size@?$output_processor@DV?$string_output_adapter@D@__crt_stdio_output@@V?$format_validation_base@DV?$string_output_adapter@D@__crt_stdio_output@@@2@@__crt_stdio_output@@AEAA_NXZ 000000018002c4dc f i libucrt:output.obj
 0001:0002b658       ?state_case_size@?$output_processor@_WV?$stream_output_adapter@_W@__crt_stdio_output@@V?$standard_base@_WV?$stream_output_adapter@_W@__crt_stdio_output@@@2@@__crt_stdio_output@@AEAA_NXZ 000000018002c658 f i libucrt:output.obj
 0001:0002b7fc       ?state_case_size@?$output_processor@_WV?$string_output_adapter@_W@__crt_stdio_output@@V?$standard_base@_WV?$string_output_adapter@_W@__crt_stdio_output@@@2@@__crt_stdio_output@@AEAA_NXZ 000000018002c7fc f i libucrt:output.obj
 0001:0002b9a0       ?state_case_type@?$output_processor@DV?$string_output_adapter@D@__crt_stdio_output@@V?$format_validation_base@DV?$string_output_adapter@D@__crt_stdio_output@@@2@@__crt_stdio_output@@AEAA_NXZ 000000018002c9a0 f i libucrt:output.obj
 0001:0002b9a0       ?state_case_type@?$output_processor@DV?$string_output_adapter@D@__crt_stdio_output@@V?$standard_base@DV?$string_output_adapter@D@__crt_stdio_output@@@2@@__crt_stdio_output@@AEAA_NXZ 000000018002c9a0 f i libucrt:output.obj
 0001:0002bc1c       ?state_case_type@?$output_processor@_WV?$stream_output_adapter@_W@__crt_stdio_output@@V?$standard_base@_WV?$stream_output_adapter@_W@__crt_stdio_output@@@2@@__crt_stdio_output@@AEAA_NXZ 000000018002cc1c f i libucrt:output.obj
 0001:0002bee8       ?state_case_type@?$output_processor@_WV?$string_output_adapter@_W@__crt_stdio_output@@V?$standard_base@_WV?$string_output_adapter@_W@__crt_stdio_output@@@2@@__crt_stdio_output@@AEAA_NXZ 000000018002cee8 f i libucrt:output.obj
 0001:0002c1b4       ?type_case_Z@?$output_processor@DV?$string_output_adapter@D@__crt_stdio_output@@V?$standard_base@DV?$string_output_adapter@D@__crt_stdio_output@@@2@@__crt_stdio_output@@AEAA_NXZ 000000018002d1b4 f i libucrt:output.obj
 0001:0002c1b4       ?type_case_Z@?$output_processor@DV?$string_output_adapter@D@__crt_stdio_output@@V?$format_validation_base@DV?$string_output_adapter@D@__crt_stdio_output@@@2@@__crt_stdio_output@@AEAA_NXZ 000000018002d1b4 f i libucrt:output.obj
 0001:0002c234       ?type_case_Z@?$output_processor@_WV?$stream_output_adapter@_W@__crt_stdio_output@@V?$standard_base@_WV?$stream_output_adapter@_W@__crt_stdio_output@@@2@@__crt_stdio_output@@AEAA_NXZ 000000018002d234 f i libucrt:output.obj
 0001:0002c234       ?type_case_Z@?$output_processor@_WV?$string_output_adapter@_W@__crt_stdio_output@@V?$standard_base@_WV?$string_output_adapter@_W@__crt_stdio_output@@@2@@__crt_stdio_output@@AEAA_NXZ 000000018002d234 f i libucrt:output.obj
 0001:0002c2b4       ?type_case_a@?$output_processor@DV?$string_output_adapter@D@__crt_stdio_output@@V?$format_validation_base@DV?$string_output_adapter@D@__crt_stdio_output@@@2@@__crt_stdio_output@@AEAA_NXZ 000000018002d2b4 f i libucrt:output.obj
 0001:0002c2b4       ?type_case_a@?$output_processor@DV?$string_output_adapter@D@__crt_stdio_output@@V?$standard_base@DV?$string_output_adapter@D@__crt_stdio_output@@@2@@__crt_stdio_output@@AEAA_NXZ 000000018002d2b4 f i libucrt:output.obj
 0001:0002c4d0       ?type_case_a@?$output_processor@_WV?$stream_output_adapter@_W@__crt_stdio_output@@V?$standard_base@_WV?$stream_output_adapter@_W@__crt_stdio_output@@@2@@__crt_stdio_output@@AEAA_NXZ 000000018002d4d0 f i libucrt:output.obj
 0001:0002c4d0       ?type_case_a@?$output_processor@_WV?$string_output_adapter@_W@__crt_stdio_output@@V?$standard_base@_WV?$string_output_adapter@_W@__crt_stdio_output@@@2@@__crt_stdio_output@@AEAA_NXZ 000000018002d4d0 f i libucrt:output.obj
 0001:0002c714       ?type_case_c_tchar@?$output_processor@DV?$string_output_adapter@D@__crt_stdio_output@@V?$format_validation_base@DV?$string_output_adapter@D@__crt_stdio_output@@@2@@__crt_stdio_output@@AEAA_ND@Z 000000018002d714 f i libucrt:output.obj
 0001:0002c714       ?type_case_c_tchar@?$output_processor@DV?$string_output_adapter@D@__crt_stdio_output@@V?$standard_base@DV?$string_output_adapter@D@__crt_stdio_output@@@2@@__crt_stdio_output@@AEAA_ND@Z 000000018002d714 f i libucrt:output.obj
 0001:0002c7c8       ?type_case_c_tchar@?$output_processor@_WV?$string_output_adapter@_W@__crt_stdio_output@@V?$standard_base@_WV?$string_output_adapter@_W@__crt_stdio_output@@@2@@__crt_stdio_output@@AEAA_N_W@Z 000000018002d7c8 f i libucrt:output.obj
 0001:0002c7c8       ?type_case_c_tchar@?$output_processor@_WV?$stream_output_adapter@_W@__crt_stdio_output@@V?$standard_base@_WV?$stream_output_adapter@_W@__crt_stdio_output@@@2@@__crt_stdio_output@@AEAA_N_W@Z 000000018002d7c8 f i libucrt:output.obj
 0001:0002c870       ?type_case_integer@?$output_processor@_WV?$stream_output_adapter@_W@__crt_stdio_output@@V?$standard_base@_WV?$stream_output_adapter@_W@__crt_stdio_output@@@2@@__crt_stdio_output@@AEAA_NI_N@Z 000000018002d870 f i libucrt:output.obj
 0001:0002c870       ?type_case_integer@?$output_processor@DV?$string_output_adapter@D@__crt_stdio_output@@V?$format_validation_base@DV?$string_output_adapter@D@__crt_stdio_output@@@2@@__crt_stdio_output@@AEAA_NI_N@Z 000000018002d870 f i libucrt:output.obj
 0001:0002c870       ?type_case_integer@?$output_processor@DV?$string_output_adapter@D@__crt_stdio_output@@V?$standard_base@DV?$string_output_adapter@D@__crt_stdio_output@@@2@@__crt_stdio_output@@AEAA_NI_N@Z 000000018002d870 f i libucrt:output.obj
 0001:0002c870       ?type_case_integer@?$output_processor@_WV?$string_output_adapter@_W@__crt_stdio_output@@V?$standard_base@_WV?$string_output_adapter@_W@__crt_stdio_output@@@2@@__crt_stdio_output@@AEAA_NI_N@Z 000000018002d870 f i libucrt:output.obj
 0001:0002ca10       ?type_case_n@?$output_processor@_WV?$string_output_adapter@_W@__crt_stdio_output@@V?$standard_base@_WV?$string_output_adapter@_W@__crt_stdio_output@@@2@@__crt_stdio_output@@AEAA_NXZ 000000018002da10 f i libucrt:output.obj
 0001:0002ca10       ?type_case_n@?$output_processor@DV?$string_output_adapter@D@__crt_stdio_output@@V?$format_validation_base@DV?$string_output_adapter@D@__crt_stdio_output@@@2@@__crt_stdio_output@@AEAA_NXZ 000000018002da10 f i libucrt:output.obj
 0001:0002ca10       ?type_case_n@?$output_processor@_WV?$stream_output_adapter@_W@__crt_stdio_output@@V?$standard_base@_WV?$stream_output_adapter@_W@__crt_stdio_output@@@2@@__crt_stdio_output@@AEAA_NXZ 000000018002da10 f i libucrt:output.obj
 0001:0002ca10       ?type_case_n@?$output_processor@DV?$string_output_adapter@D@__crt_stdio_output@@V?$standard_base@DV?$string_output_adapter@D@__crt_stdio_output@@@2@@__crt_stdio_output@@AEAA_NXZ 000000018002da10 f i libucrt:output.obj
 0001:0002caec       ?type_case_s@?$output_processor@DV?$string_output_adapter@D@__crt_stdio_output@@V?$format_validation_base@DV?$string_output_adapter@D@__crt_stdio_output@@@2@@__crt_stdio_output@@AEAA_NXZ 000000018002daec f i libucrt:output.obj
 0001:0002caec       ?type_case_s@?$output_processor@DV?$string_output_adapter@D@__crt_stdio_output@@V?$standard_base@DV?$string_output_adapter@D@__crt_stdio_output@@@2@@__crt_stdio_output@@AEAA_NXZ 000000018002daec f i libucrt:output.obj
 0001:0002cb7c       ?type_case_s@?$output_processor@_WV?$stream_output_adapter@_W@__crt_stdio_output@@V?$standard_base@_WV?$stream_output_adapter@_W@__crt_stdio_output@@@2@@__crt_stdio_output@@AEAA_NXZ 000000018002db7c f i libucrt:output.obj
 0001:0002cb7c       ?type_case_s@?$output_processor@_WV?$string_output_adapter@_W@__crt_stdio_output@@V?$standard_base@_WV?$string_output_adapter@_W@__crt_stdio_output@@@2@@__crt_stdio_output@@AEAA_NXZ 000000018002db7c f i libucrt:output.obj
 0001:0002cc44       ?write_stored_string_tchar@?$output_processor@DV?$string_output_adapter@D@__crt_stdio_output@@V?$format_validation_base@DV?$string_output_adapter@D@__crt_stdio_output@@@2@@__crt_stdio_output@@AEAA_ND@Z 000000018002dc44 f i libucrt:output.obj
 0001:0002cc44       ?write_stored_string_tchar@?$output_processor@DV?$string_output_adapter@D@__crt_stdio_output@@V?$standard_base@DV?$string_output_adapter@D@__crt_stdio_output@@@2@@__crt_stdio_output@@AEAA_ND@Z 000000018002dc44 f i libucrt:output.obj
 0001:0002cd1c       ?write_stored_string_tchar@?$output_processor@_WV?$stream_output_adapter@_W@__crt_stdio_output@@V?$standard_base@_WV?$stream_output_adapter@_W@__crt_stdio_output@@@2@@__crt_stdio_output@@AEAA_N_W@Z 000000018002dd1c f i libucrt:output.obj
 0001:0002ce08       ?write_stored_string_tchar@?$output_processor@_WV?$string_output_adapter@_W@__crt_stdio_output@@V?$standard_base@_WV?$string_output_adapter@_W@__crt_stdio_output@@@2@@__crt_stdio_output@@AEAA_N_W@Z 000000018002de08 f i libucrt:output.obj
 0001:0002cef8       ?write_string@?$stream_output_adapter@_W@__crt_stdio_output@@QEBAXQEB_WHQEAH1@Z 000000018002def8 f i libucrt:output.obj
 0001:0002d004       ?write_string@?$string_output_adapter@D@__crt_stdio_output@@QEBAXQEBDHQEAH1@Z 000000018002e004 f i libucrt:output.obj
 0001:0002d0c0       ?write_string@?$string_output_adapter@_W@__crt_stdio_output@@QEBAXQEB_WHQEAH1@Z 000000018002e0c0 f i libucrt:output.obj
 0001:0002d180       __stdio_common_vfwprintf   000000018002e180 f   libucrt:output.obj
 0001:0002d20c       __stdio_common_vsprintf    000000018002e20c f   libucrt:output.obj
 0001:0002d440       __stdio_common_vsprintf_s  000000018002e440 f   libucrt:output.obj
 0001:0002d4a4       __stdio_common_vswprintf   000000018002e4a4 f   libucrt:output.obj
 0001:0002d6dc       localeconv                 000000018002e6dc f   libucrt:localeconv.obj
 0001:0002d710       free                       000000018002e710 f   libucrt:free.obj
 0001:0002d718       frexp                      000000018002e718 f   libucrt:frexp.obj
 0001:0002e1f8       ??$ftprintf@PEAU_iobuf@@PEB_WAEBQEB_WAEBQEB_WAEBI@?$__crt_char_traits@_W@@SAH$$QEAPEAU_iobuf@@$$QEAPEB_WAEBQEB_W2AEBI@Z 000000018002f1f8 f i libucrt:assert.obj
 0001:0002e220       _wassert                   000000018002f220 f   libucrt:assert.obj
 0001:0002e2a4       fwprintf                   000000018002f2a4 f i libucrt:assert.obj
 0001:0002e2e8       swprintf                   000000018002f2e8 f i libucrt:assert.obj
 0001:0002e33c       malloc                     000000018002f33c f   libucrt:malloc.obj
 0001:0002e344       __ascii_stricmp            000000018002f344 f   libucrt:stricmp.obj
 0001:0002e380       _stricmp                   000000018002f380 f   libucrt:stricmp.obj
 0001:0002e3c8       _stricmp_l                 000000018002f3c8 f   libucrt:stricmp.obj
 0001:0002e47c       __acrt_initialize_locks    000000018002f47c f   libucrt:locks.obj
 0001:0002e4c4       __acrt_lock                000000018002f4c4 f   libucrt:locks.obj
 0001:0002e4e0       __acrt_uninitialize_locks  000000018002f4e0 f   libucrt:locks.obj
 0001:0002e518       __acrt_unlock              000000018002f518 f   libucrt:locks.obj
 0001:0002e534       _lock_locales              000000018002f534 f   libucrt:locks.obj
 0001:0002e544       _unlock_locales            000000018002f544 f   libucrt:locks.obj
 0001:0002e63c       setlocale                  000000018002f63c f   libucrt:setlocale.obj
 0001:0002e808       _calloc_base               000000018002f808 f   libucrt:calloc_base.obj
 0001:0002e880       __pctype_func              000000018002f880 f   libucrt:ctype.obj
 0001:0002e8b0       isdigit                    000000018002f8b0 f i libucrt:_ctype.obj
 0001:0002e924       islower                    000000018002f924 f i libucrt:_ctype.obj
 0001:0002e998       isupper                    000000018002f998 f i libucrt:_ctype.obj
 0001:0002ea0c       _wcsdup                    000000018002fa0c f   libucrt:wcsdup.obj
 0001:0002ea90       ___lc_codepage_func        000000018002fa90 f   libucrt:initctype.obj
 0001:0002eac0       ___lc_locale_name_func     000000018002fac0 f   libucrt:initctype.obj
 0001:0002eaf4       ___mb_cur_max_func         000000018002faf4 f   libucrt:initctype.obj
 0001:0002eb24       __acrt_locale_initialize_ctype 000000018002fb24 f   libucrt:initctype.obj
 0001:0002f0f8       __acrt_errno_from_os_error 00000001800300f8 f   libucrt:errno.obj
 0001:0002f140       __acrt_errno_map_os_error  0000000180030140 f   libucrt:errno.obj
 0001:0002f190       __doserrno                 0000000180030190 f   libucrt:errno.obj
 0001:0002f1b0       _errno                     00000001800301b0 f   libucrt:errno.obj
 0001:0002f248       _ismbblead                 0000000180030248 f   libucrt:ismbbyte.obj
 0001:0002f25c       _malloc_base               000000018003025c f   libucrt:malloc_base.obj
 0001:0002f2bc       _realloc_base              00000001800302bc f   libucrt:realloc_base.obj
 0001:0002f340       __strncnt                  0000000180030340 f   libucrt:strncnt.obj
 0001:0002f358       _free_base                 0000000180030358 f   libucrt:free_base.obj
 0001:0002f3e8       _tolower_l                 00000001800303e8 f   libucrt:tolower_toupper.obj
 0001:0002f528       tolower                    0000000180030528 f   libucrt:tolower_toupper.obj
 0001:0002f554       wcscpy_s                   0000000180030554 f   libucrt:wcscpy_s.obj
 0001:0002f5bc       strnlen                    00000001800305bc f   libucrt:strnlen.obj
 0001:0002f718       wcsnlen                    0000000180030718 f   libucrt:strnlen.obj
 0001:0002f908       __acrt_initialize_new_handler 0000000180030908 f   libucrt:new_handler.obj
 0001:0002f910       _callnewh                  0000000180030910 f   libucrt:new_handler.obj
 0001:0002f950       _query_new_handler         0000000180030950 f   libucrt:new_handler.obj
 0001:0002f984       _seh_filter_dll            0000000180030984 f   libucrt:exception_filter.obj
 0001:0002f998       _seh_filter_exe            0000000180030998 f   libucrt:exception_filter.obj
 0001:0002fd58       __acrt_initialize_thread_local_exit_callback 0000000180030d58 f   libucrt:exit.obj
 0001:0002fd60       _cexit                     0000000180030d60 f   libucrt:exit.obj
 0001:0002fd70       _exit                      0000000180030d70 f   libucrt:exit.obj
 0001:0002fd7c       _is_c_termination_complete 0000000180030d7c f   libucrt:exit.obj
 0001:0002ff68       __dcrt_uninitialize_environments_nolock 0000000180030f68 f   libucrt:environment_initialization.obj
 0001:0002ffa0       _initialize_narrow_environment 0000000180030fa0 f   libucrt:environment_initialization.obj
 0001:0002ffa8       ??$?RV<lambda_b8c45f8f788dd370798f47cfe8ac3a86>@@AEAV<lambda_4e60a939b0d047cfe11ddc22648dfba9>@@V<lambda_332c3edc96d0294ec56c57d38c1cdfd5>@@@?$__crt_seh_guarded_call@H@@QEAAH$$QEAV<lambda_b8c45f8f788dd370798f47cfe8ac3a86>@@AEAV<lambda_4e60a939b0d047cfe11ddc22648dfba9>@@$$QEAV<lambda_332c3edc96d0294ec56c57d38c1cdfd5>@@@Z 0000000180030fa8 f i libucrt:onexit.obj
 0001:0002ffe4       ??$?RV<lambda_e24bbb7b643b32fcea6fa61b31d4c984>@@AEAV<lambda_275893d493268fdec8709772e3fcec0e>@@V<lambda_9d71df4d7cf3f480f8d633942495c3b0>@@@?$__crt_seh_guarded_call@H@@QEAAH$$QEAV<lambda_e24bbb7b643b32fcea6fa61b31d4c984>@@AEAV<lambda_275893d493268fdec8709772e3fcec0e>@@$$QEAV<lambda_9d71df4d7cf3f480f8d633942495c3b0>@@@Z 0000000180030fe4 f i libucrt:onexit.obj
 0001:00030360       _crt_atexit                0000000180031360 f   libucrt:onexit.obj
 0001:00030370       _execute_onexit_table      0000000180031370 f   libucrt:onexit.obj
 0001:000303ac       _initialize_onexit_table   00000001800313ac f   libucrt:onexit.obj
 0001:000303ec       _register_onexit_function  00000001800313ec f   libucrt:onexit.obj
 0001:00030568       __acrt_initialize          0000000180031568 f   libucrt:initialization.obj
 0001:0003057c       __acrt_thread_attach       000000018003157c f   libucrt:initialization.obj
 0001:00030590       __acrt_thread_detach       0000000180031590 f   libucrt:initialization.obj
 0001:000305a0       __acrt_uninitialize        00000001800315a0 f   libucrt:initialization.obj
 0001:000305b4       __acrt_uninitialize_critical 00000001800315b4 f   libucrt:initialization.obj
 0001:000305c4       terminate                  00000001800315c4 f   libucrt:terminate.obj
 0001:000305ec       _initterm                  00000001800315ec f   libucrt:initterm.obj
 0001:00030664       _initterm_e                0000000180031664 f   libucrt:initterm.obj
 0001:000306b0       strcpy_s                   00000001800316b0 f   libucrt:strcpy_s.obj
 0001:00030710       ??$is_overflow_condition@K@__crt_strtox@@YA_NIK@Z 0000000180031710 f i libucrt:atox.obj
 0001:0003073c       ??$parse_integer@KV?$c_string_character_source@D@__crt_strtox@@@__crt_strtox@@YAKQEAU__crt_locale_pointers@@V?$c_string_character_source@D@0@H_N@Z 000000018003173c f i libucrt:atox.obj
 0001:00030a50       ??$parse_integer@KV?$c_string_character_source@_W@__crt_strtox@@@__crt_strtox@@YAKQEAU__crt_locale_pointers@@V?$c_string_character_source@_W@0@H_N@Z 0000000180031a50 f i libucrt:atox.obj
 0001:00031124       _wtol                      0000000180032124 f   libucrt:atox.obj
 0001:00031150       ??$?RV<lambda_c36588078e9f5dfd39652860aa6b3aaf>@@AEAV<lambda_ec61778202f4f5fc7e7711acc23c3bca>@@V<lambda_dc9d2797ccde5d239b4a0efae8ebd7db>@@@?$__crt_seh_guarded_call@P6AXH@Z@@QEAAP6AXH@Z$$QEAV<lambda_c36588078e9f5dfd39652860aa6b3aaf>@@AEAV<lambda_ec61778202f4f5fc7e7711acc23c3bca>@@$$QEAV<lambda_dc9d2797ccde5d239b4a0efae8ebd7db>@@@Z 0000000180032150 f i libucrt:signal.obj
 0001:00031198       __acrt_get_sigabrt_handler 0000000180032198 f   libucrt:signal.obj
 0001:000311c8       __acrt_initialize_signal_handlers 00000001800321c8 f   libucrt:signal.obj
 0001:000311e8       raise                      00000001800321e8 f   libucrt:signal.obj
 0001:00031484       ??$?RV<lambda_46352004c1216016012b18bd6f87e700>@@AEAV<lambda_3bd07e1a1191394380780325891bf33f>@@V<lambda_334532d3f185bcaa59b5be82d7d22bff>@@@?$__crt_seh_guarded_call@X@@QEAAX$$QEAV<lambda_46352004c1216016012b18bd6f87e700>@@AEAV<lambda_3bd07e1a1191394380780325891bf33f>@@$$QEAV<lambda_334532d3f185bcaa59b5be82d7d22bff>@@@Z 0000000180032484 f i libucrt:per_thread_data.obj
 0001:000314e4       ??$?RV<lambda_5e887d1dcbef67a5eb4283622ba103bf>@@AEAV<lambda_4466841279450cc726390878d4a41900>@@V<lambda_341c25c0346d94847f1f3c463c57e077>@@@?$__crt_seh_guarded_call@X@@QEAAX$$QEAV<lambda_5e887d1dcbef67a5eb4283622ba103bf>@@AEAV<lambda_4466841279450cc726390878d4a41900>@@$$QEAV<lambda_341c25c0346d94847f1f3c463c57e077>@@@Z 00000001800324e4 f i libucrt:per_thread_data.obj
 0001:0003152c       ??$?RV<lambda_72d1df2b273a38828b1ce30cbf4cdab5>@@AEAV<lambda_876a65b173b8412d3a47c70a915b0cf4>@@V<lambda_41932305e351933ebe8f8be3ed8bb5dc>@@@?$__crt_seh_guarded_call@X@@QEAAX$$QEAV<lambda_72d1df2b273a38828b1ce30cbf4cdab5>@@AEAV<lambda_876a65b173b8412d3a47c70a915b0cf4>@@$$QEAV<lambda_41932305e351933ebe8f8be3ed8bb5dc>@@@Z 000000018003252c f i libucrt:per_thread_data.obj
 0001:0003156c       ??$?RV<lambda_fb3a7dec4e47f37f22dae91bb15c9095>@@AEAV<lambda_698284760c8add0bfb0756c19673e34b>@@V<lambda_dfb8eca1e75fef3034a8fb18dd509707>@@@?$__crt_seh_guarded_call@X@@QEAAX$$QEAV<lambda_fb3a7dec4e47f37f22dae91bb15c9095>@@AEAV<lambda_698284760c8add0bfb0756c19673e34b>@@$$QEAV<lambda_dfb8eca1e75fef3034a8fb18dd509707>@@@Z 000000018003256c f i libucrt:per_thread_data.obj
 0001:000317fc       __acrt_freeptd             00000001800327fc f   libucrt:per_thread_data.obj
 0001:00031840       __acrt_getptd              0000000180032840 f   libucrt:per_thread_data.obj
 0001:000318d4       __acrt_getptd_noexit       00000001800328d4 f   libucrt:per_thread_data.obj
 0001:00031974       __acrt_initialize_ptd      0000000180032974 f   libucrt:per_thread_data.obj
 0001:000319b0       __acrt_uninitialize_ptd    00000001800329b0 f   libucrt:per_thread_data.obj
 0001:000319d4       ??$make_c_string_character_source@_W$$T@__crt_strtox@@YA?AV?$c_string_character_source@_W@0@QEB_W$$T@Z 00000001800329d4 f i libucrt:atox.obj
 0001:000319d4       ??$make_c_string_character_source@DPEAPEAD@__crt_strtox@@YA?AV?$c_string_character_source@D@0@QEBDQEAPEAD@Z 00000001800329d4 f i libucrt:strtox.obj
 0001:000319d4       ??$make_c_string_character_source@_WPEAPEA_W@__crt_strtox@@YA?AV?$c_string_character_source@_W@0@QEB_WQEAPEA_W@Z 00000001800329d4 f i libucrt:strtox.obj
 0001:000319e8       strtol                     00000001800329e8 f   libucrt:strtox.obj
 0001:00031a18       wcstol                     0000000180032a18 f   libucrt:strtox.obj
 0001:00031a48       _mbtowc_l                  0000000180032a48 f   libucrt:mbtowc.obj
 0001:00031b90       mbtowc                     0000000180032b90 f   libucrt:mbtowc.obj
 0001:00031b98       _wctomb_s_l                0000000180032b98 f   libucrt:wctomb.obj
 0001:00031d1c       wctomb_s                   0000000180032d1c f   libucrt:wctomb.obj
 0001:00031d30       __acrt_update_locale_info  0000000180032d30 f   libucrt:locale_update.obj
 0001:00031d64       __acrt_update_multibyte_info 0000000180032d64 f   libucrt:locale_update.obj
 0001:00031d98       ?__acrt_fp_classify@@YA?AW4__acrt_fp_class@@AEBN@Z 0000000180032d98 f i libucrt:cvt.obj
 0001:000327d0       __acrt_fp_format           00000001800337d0 f   libucrt:cvt.obj
 0001:00032a14       _fputwc_nolock             0000000180033a14 f   libucrt:fputwc.obj
 0001:00032b90       _fileno                    0000000180033b90 f   libucrt:fileno.obj
 0001:00032bb8       __acrt_initialize_stdio    0000000180033bb8 f   libucrt:_file.obj
 0001:00032cd8       __acrt_iob_func            0000000180033cd8 f   libucrt:_file.obj
 0001:00032cec       __acrt_uninitialize_stdio  0000000180033cec f   libucrt:_file.obj
 0001:00032d48       _lock_file                 0000000180033d48 f   libucrt:_file.obj
 0001:00032d54       _unlock_file               0000000180033d54 f   libucrt:_file.obj
 0001:00032d60       _fputc_nolock              0000000180033d60 f   libucrt:fputc.obj
 0001:00032d78       _get_printf_count_output   0000000180033d78 f   libucrt:printf_count_output.obj
 0001:00032d90       __acrt_stdio_begin_temporary_buffering_nolock 0000000180033d90 f   libucrt:_sftbuf.obj
 0001:00032e60       __acrt_stdio_end_temporary_buffering_nolock 0000000180033e60 f   libucrt:_sftbuf.obj
 0001:00032e9c       ??$?RV<lambda_5df02c53a8f32f81fd64e5bbb78039f1>@@AEAV<lambda_2af78c5f5901b1372d98f9ab3177dfa6>@@AEAV<lambda_f51fe5fd7c79a33db34fc9310f277369>@@@?$__crt_seh_guarded_call@X@@QEAAX$$QEAV<lambda_5df02c53a8f32f81fd64e5bbb78039f1>@@AEAV<lambda_2af78c5f5901b1372d98f9ab3177dfa6>@@AEAV<lambda_f51fe5fd7c79a33db34fc9310f277369>@@@Z 0000000180033e9c f i libucrt:wsetlocale.obj
 0001:00032ec8       ??$?RV<lambda_d67e8342c384adda8f857579ab50b2ae>@@AEAV<lambda_30712929f77e709619002f448b6a9510>@@V<lambda_4525336fd7e478d965fb7ca7a337cad8>@@@?$__crt_seh_guarded_call@X@@QEAAX$$QEAV<lambda_d67e8342c384adda8f857579ab50b2ae>@@AEAV<lambda_30712929f77e709619002f448b6a9510>@@$$QEAV<lambda_4525336fd7e478d965fb7ca7a337cad8>@@@Z 0000000180033ec8 f i libucrt:wsetlocale.obj
 0001:00033094       __acrt_copy_locale_name    0000000180034094 f   libucrt:wsetlocale.obj
 0001:00033118       __acrt_set_locale_changed  0000000180034118 f   libucrt:wsetlocale.obj
 0001:00033124       __acrt_uninitialize_locale 0000000180034124 f   libucrt:wsetlocale.obj
 0001:0003316c       __lc_lctowcs               000000018003416c f   libucrt:wsetlocale.obj
 0001:00033210       __lc_wcstolc               0000000180034210 f   libucrt:wsetlocale.obj
 0001:00033488       _expandlocale              0000000180034488 f   libucrt:wsetlocale.obj
 0001:00033884       _wcscats                   0000000180034884 f   libucrt:wsetlocale.obj
 0001:000338ec       _wsetlocale                00000001800348ec f   libucrt:wsetlocale.obj
 0001:00034320       __acrt_initialize_lowio    0000000180035320 f   libucrt:ioinit.obj
 0001:0003435c       __acrt_uninitialize_lowio  000000018003535c f   libucrt:ioinit.obj
 0001:0003439c       _dsign                     000000018003539c f   libucrt:nan.obj
 0001:000343b4       _errcode                   00000001800353b4 f   libucrt:fpexcept.obj
 0001:000343f8       _except1                   00000001800353f8 f   libucrt:fpexcept.obj
 0001:000344ec       _handle_exc                00000001800354ec f   libucrt:fpexcept.obj
 0001:00034754       _raise_exc                 0000000180035754 f   libucrt:fpexcept.obj
 0001:0003477c       _raise_exc_ex              000000018003577c f   libucrt:fpexcept.obj
 0001:00034a84       _set_errno_from_matherr    0000000180035a84 f   libucrt:fpexcept.obj
 0001:00034ab4       _umatherr                  0000000180035ab4 f   libucrt:fpexcept.obj
 0001:00034b88       _decomp                    0000000180035b88 f   libucrt:util.obj
 0001:00034cbc       _sptype                    0000000180035cbc f   libucrt:util.obj
 0001:00034d30       _clrfp                     0000000180035d30 f   libucrt:fpctrl.obj
 0001:00034d50       _ctrlfp                    0000000180035d50 f   libucrt:fpctrl.obj
 0001:00034dcc       _set_statfp                0000000180035dcc f   libucrt:fpctrl.obj
 0001:00034dec       _statfp                    0000000180035dec f   libucrt:fpctrl.obj
 0001:00034e00       _query_app_type            0000000180035e00 f   libucrt:report_runtime_error.obj
 0001:00034f30       _itow_s                    0000000180035f30 f   libucrt:xtoa.obj
 0001:00034f50       _set_error_mode            0000000180035f50 f   libucrt:set_error_mode.obj
 0001:00034f90       wcscat_s                   0000000180035f90 f   libucrt:wcscat_s.obj
 0001:00035010       wcsncat_s                  0000000180036010 f   libucrt:wcsncat_s.obj
 0001:00035138       __acrt_show_wide_message_box 0000000180036138 f   libucrt:crtmbox.obj
 0001:00035254       __acrt_stdio_flush_nolock  0000000180036254 f   libucrt:fflush.obj
 0001:000352cc       _fflush_nolock             00000001800362cc f   libucrt:fflush.obj
 0001:00035318       _flushall                  0000000180036318 f   libucrt:fflush.obj
 0001:00035408       fflush                     0000000180036408 f   libucrt:fflush.obj
 0001:0003544c       ??$?RV<lambda_7a5ef57ff966f610505f1d28a3d40618>@@AEAV<lambda_b721fa326cdb32351d23dfa67958c160>@@V<lambda_5e0fb27672408a07956fe59e48ccb2aa>@@@?$__crt_seh_guarded_call@H@@QEAAH$$QEAV<lambda_7a5ef57ff966f610505f1d28a3d40618>@@AEAV<lambda_b721fa326cdb32351d23dfa67958c160>@@$$QEAV<lambda_5e0fb27672408a07956fe59e48ccb2aa>@@@Z 000000018003644c f i libucrt:setvbuf.obj
 0001:0003557c       setvbuf                    000000018003657c f   libucrt:setvbuf.obj
 0001:00035660       ??$?RV<lambda_630b2aca97f6d20d5b5ea6529ea6b6af>@@AEAV<lambda_af91936f1d075d609f72d9d8cba980af>@@V<lambda_e82fa975f615b5c7c7b0e4d178fdae67>@@@?$__crt_seh_guarded_call@H@@QEAAH$$QEAV<lambda_630b2aca97f6d20d5b5ea6529ea6b6af>@@AEAV<lambda_af91936f1d075d609f72d9d8cba980af>@@$$QEAV<lambda_e82fa975f615b5c7c7b0e4d178fdae67>@@@Z 0000000180036660 f i libucrt:winapi_thunks.obj
 0001:00035898       __acrt_EnumSystemLocalesEx 0000000180036898 f   libucrt:winapi_thunks.obj
 0001:00035940       __acrt_FlsAlloc            0000000180036940 f   libucrt:winapi_thunks.obj
 0001:00035998       __acrt_FlsFree             0000000180036998 f   libucrt:winapi_thunks.obj
 0001:000359f0       __acrt_FlsGetValue         00000001800369f0 f   libucrt:winapi_thunks.obj
 0001:00035a48       __acrt_FlsSetValue         0000000180036a48 f   libucrt:winapi_thunks.obj
 0001:00035ab0       __acrt_GetLocaleInfoEx     0000000180036ab0 f   libucrt:winapi_thunks.obj
 0001:00035b48       __acrt_GetUserDefaultLocaleName 0000000180036b48 f   libucrt:winapi_thunks.obj
 0001:00035bbc       __acrt_InitializeCriticalSectionEx 0000000180036bbc f   libucrt:winapi_thunks.obj
 0001:00035c34       __acrt_IsValidLocaleName   0000000180036c34 f   libucrt:winapi_thunks.obj
 0001:00035c9c       __acrt_LCIDToLocaleName    0000000180036c9c f   libucrt:winapi_thunks.obj
 0001:00035d28       __acrt_LCMapStringEx       0000000180036d28 f   libucrt:winapi_thunks.obj
 0001:00035e18       __acrt_LocaleNameToLCID    0000000180036e18 f   libucrt:winapi_thunks.obj
 0001:00035e80       __acrt_MessageBoxW         0000000180036e80 f   libucrt:winapi_thunks.obj
 0001:00035f08       __acrt_can_show_message_box 0000000180036f08 f   libucrt:winapi_thunks.obj
 0001:00035f64       __acrt_can_use_vista_locale_apis 0000000180036f64 f   libucrt:winapi_thunks.obj
 0001:00035f94       __acrt_get_parent_window   0000000180036f94 f   libucrt:winapi_thunks.obj
 0001:00036024       __acrt_initialize_winapi_thunks 0000000180037024 f   libucrt:winapi_thunks.obj
 0001:0003605c       __acrt_is_interactive      000000018003705c f   libucrt:winapi_thunks.obj
 0001:00036130       __acrt_is_packaged_app     0000000180037130 f   libucrt:winapi_thunks.obj
 0001:000361b8       __acrt_uninitialize_winapi_thunks 00000001800371b8 f   libucrt:winapi_thunks.obj
 0001:000363d8       _mbstowcs_s_l              00000001800373d8 f   libucrt:mbstowcs.obj
 0001:00036508       mbstowcs_s                 0000000180037508 f   libucrt:mbstowcs.obj
 0001:0003685c       _wcstombs_s_l              000000018003785c f   libucrt:wcstombs.obj
 0001:00036948       _query_new_mode            0000000180037948 f   libucrt:new_mode.obj
 0001:00036950       __acrt_initialize_heap     0000000180037950 f   libucrt:heap_handle.obj
 0001:0003696c       __acrt_uninitialize_heap   000000018003796c f   libucrt:heap_handle.obj
 0001:00036978       _isctype_l                 0000000180037978 f   libucrt:isctype.obj
 0001:00036c28       __acrt_GetLocaleInfoA      0000000180037c28 f   libucrt:getlocaleinfoa.obj
 0001:00036df0       __acrt_GetStringTypeA      0000000180037df0 f   libucrt:getstringtypea.obj
 0001:00037300       __acrt_LCMapStringA        0000000180038300 f   libucrt:lcmapstringa.obj
 0001:00037398       _wcsicmp                   0000000180038398 f   libucrt:wcsicmp.obj
 0001:00037420       _wcsicmp_l                 0000000180038420 f   libucrt:wcsicmp.obj
 0001:00037510       __acrt_initialize_timeset  0000000180038510 f   libucrt:timeset.obj
 0001:00037540       _isleadbyte_l              0000000180038540 f i libucrt:_wctype.obj
 0001:000376a4       _handle_error              00000001800386a4 f   libucrt:libm_error.obj
 0001:000377cc       _handle_nan                00000001800387cc f   libucrt:libm_error.obj
 0001:000377e8       ??$?RV<lambda_99476a1ad63dd22509b5d3e65b0ffc95>@@AEAV<lambda_ad1ced32f4ac17aa236e5ef05d6b3b7c>@@V<lambda_f7424dd8d45958661754dc4f2697e9c3>@@@?$__crt_seh_guarded_call@X@@QEAAX$$QEAV<lambda_99476a1ad63dd22509b5d3e65b0ffc95>@@AEAV<lambda_ad1ced32f4ac17aa236e5ef05d6b3b7c>@@$$QEAV<lambda_f7424dd8d45958661754dc4f2697e9c3>@@@Z 00000001800387e8 f i libucrt:mbctype.obj
 0001:00037ee4       __acrt_initialize_multibyte 0000000180038ee4 f   libucrt:mbctype.obj
 0001:00037f0c       __acrt_update_thread_multibyte_data 0000000180038f0c f   libucrt:mbctype.obj
 0001:00037fcc       _setmbcp_nolock            0000000180038fcc f   libucrt:mbctype.obj
 0001:00038274       __dcrt_get_narrow_environment_from_os 0000000180039274 f   libucrt:get_environment_from_os.obj
 0001:00038378       _recalloc                  0000000180039378 f   libucrt:recalloc.obj
 0001:00038380       _recalloc_base             0000000180039380 f   libucrt:recalloc.obj
 0001:00038418       __acrt_initialize_command_line 0000000180039418 f   libucrt:argv_data.obj
 0001:00038440       __acrt_uninitialize_command_line 0000000180039440 f   libucrt:argv_data.obj
 0001:00038444       __acrt_execute_initializers 0000000180039444 f   libucrt:shared_initialization.obj
 0001:000384d8       __acrt_execute_uninitializers 00000001800394d8 f   libucrt:shared_initialization.obj
 0001:00038528       __acrt_has_user_matherr    0000000180039528 f   libucrt:matherr.obj
 0001:00038548       __acrt_initialize_user_matherr 0000000180039548 f   libucrt:matherr.obj
 0001:00038550       __acrt_invoke_user_matherr 0000000180039550 f   libucrt:matherr.obj
 0001:00038598       iswctype                   0000000180039598 f   libucrt:iswctype.obj
 0001:00038608       __acrt_add_locale_ref      0000000180039608 f   libucrt:locale_refcounting.obj
 0001:00038694       __acrt_free_locale         0000000180039694 f   libucrt:locale_refcounting.obj
 0001:0003880c       __acrt_locale_add_lc_time_reference 000000018003980c f   libucrt:locale_refcounting.obj
 0001:00038834       __acrt_locale_free_lc_time_if_unreferenced 0000000180039834 f   libucrt:locale_refcounting.obj
 0001:0003886c       __acrt_locale_release_lc_time_reference 000000018003986c f   libucrt:locale_refcounting.obj
 0001:00038894       __acrt_release_locale_ref  0000000180039894 f   libucrt:locale_refcounting.obj
 0001:0003893c       __acrt_update_thread_locale_data 000000018003993c f   libucrt:locale_refcounting.obj
 0001:000389ac       _updatetlocinfoEx_nolock   00000001800399ac f   libucrt:locale_refcounting.obj
 0001:00038a14       __acrt_fp_strflt_to_string 0000000180039a14 f   libucrt:_fptostr.obj
 0001:00038ae0       ?divide@__crt_strtox@@YA_KAEAUbig_integer@1@AEBU21@@Z 0000000180039ae0 f i libucrt:cfout.obj
 0001:00038fb0       __acrt_fltout              0000000180039fb0 f   libucrt:cfout.obj
 0001:0003a5b4       __acrt_stdio_flush_and_write_narrow_nolock 000000018003b5b4 f   libucrt:_flsbuf.obj
 0001:0003a69c       __acrt_stdio_flush_and_write_wide_nolock 000000018003b69c f   libucrt:_flsbuf.obj
 0001:0003a788       _fcloseall                 000000018003b788 f   libucrt:closeall.obj
 0001:0003a83c       __acrt_stdio_free_buffer_nolock 000000018003b83c f   libucrt:_freebuf.obj
 0001:0003a87c       _isatty                    000000018003b87c f   libucrt:isatty.obj
 0001:0003a8dc       __acrt_locale_free_monetary 000000018003b8dc f   libucrt:initmon.obj
 0001:0003a9e8       __acrt_locale_initialize_monetary 000000018003b9e8 f   libucrt:initmon.obj
 0001:0003af20       __acrt_locale_free_numeric 000000018003bf20 f   libucrt:initnum.obj
 0001:0003af8c       __acrt_locale_initialize_numeric 000000018003bf8c f   libucrt:initnum.obj
 0001:0003b610       __acrt_locale_free_time    000000018003c610 f   libucrt:inittime.obj
 0001:0003b718       __acrt_locale_initialize_time 000000018003c718 f   libucrt:inittime.obj
 0001:0003b7ac       wcsncpy_s                  000000018003c7ac f   libucrt:wcsncpy_s.obj
 0001:0003b890       wcscspn                    000000018003c890 f   libucrt:wcscspn.obj
 0001:0003b8d0       wcsncmp                    000000018003c8d0 f   libucrt:wcsncmp.obj
 0001:0003b8fc       wcspbrk                    000000018003c8fc f   libucrt:wcspbrk.obj
 0001:0003c1a0       __acrt_get_qualified_locale 000000018003d1a0 f   libucrt:get_qualified_locale.obj
 0001:0003cb8c       __acrt_get_qualified_locale_downlevel 000000018003db8c f   libucrt:getqloc_downlevel.obj
 0001:0003ce1c       __acrt_lowio_create_handle_array 000000018003de1c f   libucrt:osfinfo.obj
 0001:0003ceb4       __acrt_lowio_destroy_handle_array 000000018003deb4 f   libucrt:osfinfo.obj
 0001:0003cf04       __acrt_lowio_ensure_fh_exists 000000018003df04 f   libucrt:osfinfo.obj
 0001:0003cfbc       __acrt_lowio_lock_fh       000000018003dfbc f   libucrt:osfinfo.obj
 0001:0003cfe0       __acrt_lowio_unlock_fh     000000018003dfe0 f   libucrt:osfinfo.obj
 0001:0003d004       _free_osfhnd               000000018003e004 f   libucrt:osfinfo.obj
 0001:0003d0c0       _get_osfhandle             000000018003e0c0 f   libucrt:osfinfo.obj
 0001:0003d150       _get_fpsr                  000000018003e150 f   libucrt:fpsr.obj
 0001:0003d160       _set_fpsr                  000000018003e160 f   libucrt:fpsr.obj
 0001:0003d16a       _fclrf                     000000018003e16a f   libucrt:fpsr.obj
 0001:0003d17e       _frnd                      000000018003e17e f   libucrt:fpsr.obj
 0001:0003d1a0       ??$?RV<lambda_b521505b218e5242e90febf6bfebc422>@@AEAV<lambda_6978c1fb23f02e42e1d9e99668cc68aa>@@V<lambda_314360699dd331753a4119843814e9a7>@@@?$__crt_seh_guarded_call@H@@QEAAH$$QEAV<lambda_b521505b218e5242e90febf6bfebc422>@@AEAV<lambda_6978c1fb23f02e42e1d9e99668cc68aa>@@$$QEAV<lambda_314360699dd331753a4119843814e9a7>@@@Z 000000018003e1a0 f i libucrt:commit.obj
 0001:0003d22c       _commit                    000000018003e22c f   libucrt:commit.obj
 0001:0003d860       _write                     000000018003e860 f   libucrt:write.obj
 0001:0003d94c       _write_nolock              000000018003e94c f   libucrt:write.obj
 0001:0003dcf8       __acrt_DownlevelLCIDToLocaleName 000000018003ecf8 f   libucrt:lcidtoname_downlevel.obj
 0001:0003dddc       __acrt_DownlevelLocaleNameToLCID 000000018003eddc f   libucrt:lcidtoname_downlevel.obj
 0001:0003de10       strncpy_s                  000000018003ee10 f   libucrt:strncpy_s.obj
 0001:0003dee4       _towlower_l                000000018003eee4 f   libucrt:towlower.obj
 0001:0003dfc0       _msize                     000000018003efc0 f   libucrt:msize.obj
 0001:0003dffc       fegetenv                   000000018003effc f   libucrt:fegetenv.obj
 0001:0003e01c       fesetenv                   000000018003f01c f   libucrt:fesetenv.obj
 0001:0003e068       feholdexcept               000000018003f068 f   libucrt:feholdexcept.obj
 0001:0003e0b8       ceil                       000000018003f0b8 f   libucrt:ceil.obj
 0001:0003e180       log10                      000000018003f180 f   libucrt:log10.obj
 0001:0003e8b8       _lseeki64                  000000018003f8b8 f   libucrt:lseek.obj
 0001:0003e8c0       _lseeki64_nolock           000000018003f8c0 f   libucrt:lseek.obj
 0001:0003e8c8       __acrt_stdio_allocate_buffer_nolock 000000018003f8c8 f   libucrt:_getbuf.obj
 0001:0003e92c       _fclose_nolock             000000018003f92c f   libucrt:fclose.obj
 0001:0003e9b0       fclose                     000000018003f9b0 f   libucrt:fclose.obj
 0001:0003ea1c       _wcsnicmp                  000000018003fa1c f   libucrt:wcsnicmp.obj
 0001:0003eab8       _wcsnicmp_l                000000018003fab8 f   libucrt:wcsnicmp.obj
 0001:0003ebd0       wcscmp                     000000018003fbd0 f   libucrt:wcscmp.obj
 0001:0003ec08       _getfpcontrolword          000000018003fc08 f   libucrt:_fenvutils.obj
 0001:0003ec20       _getfpstatusword           000000018003fc20 f   libucrt:_fenvutils.obj
 0001:0003ec34       _setfpcontrolword          000000018003fc34 f   libucrt:_fenvutils.obj
 0001:0003ec40       _setfpstatusword           000000018003fc40 f   libucrt:_fenvutils.obj
 0001:0003ec90       _putwch_nolock             000000018003fc90 f   libucrt:putwch.obj
 0001:0003ecec       __acrt_LCMapStringW        000000018003fcec f   libucrt:lcmapstringw.obj
 0001:0003ed74       _clearfp                   000000018003fd74 f   libucrt:ieee.obj
 0001:0003edc8       _controlfp                 000000018003fdc8 f   libucrt:ieee.obj
 0001:0003edd4       _statusfp                  000000018003fdd4 f   libucrt:ieee.obj
 0001:0003f0c0       __acrt_initialize_fma3     00000001800400c0 f   libucrt:fma3_available.obj
 0001:0003f130       _log10_special             0000000180040130 f   libucrt:log_special.obj
 0001:0003f1e8       ??$?RV<lambda_bfedae4ebbf01fab1bb6dcc6a9e276e0>@@AEAV<lambda_2fe9b910cf3cbf4a0ab98a02ba45b3ec>@@V<lambda_237c231691f317818eb88cc1d5d642d6>@@@?$__crt_seh_guarded_call@H@@QEAAH$$QEAV<lambda_bfedae4ebbf01fab1bb6dcc6a9e276e0>@@AEAV<lambda_2fe9b910cf3cbf4a0ab98a02ba45b3ec>@@$$QEAV<lambda_237c231691f317818eb88cc1d5d642d6>@@@Z 00000001800401e8 f i libucrt:close.obj
 0001:0003f25c       _close                     000000018004025c f   libucrt:close.obj
 0001:0003f300       _close_nolock              0000000180040300 f   libucrt:close.obj
 0001:0003f3bc       ?__acrt_stdio_free_stream@@YAXV__crt_stdio_stream@@@Z 00000001800403bc f   libucrt:stream.obj
 0001:0003f400       __dcrt_lowio_initialize_console_output 0000000180040400 f   libucrt:initcon.obj
 0001:0003f43c       __dcrt_terminate_console_output 000000018004043c f   libucrt:initcon.obj
 0001:0003f45c       IsProcessorFeaturePresent  000000018004045c f   kernel32:KERNEL32.dll
 0001:0003f462       RtlUnwindEx                0000000180040462 f   kernel32:KERNEL32.dll
 0001:0003f468       SystemFunction036          0000000180040468 f   advapi32:ADVAPI32.dll
 0001:0003f470       ?DloadAcquireSectionWriteAccess@@YAXXZ 0000000180040470 f i DelayImp:delayhlp.obj
 0001:0003f52c       ?DloadGetSRWLockFunctionPointers@@YAEXZ 000000018004052c f i DelayImp:delayhlp.obj
 0001:0003f5c8       ?DloadMakePermanentImageCommit@@YAXPEAX_K@Z 00000001800405c8 f i DelayImp:delayhlp.obj
 0001:0003f660       ?DloadObtainSection@@YAPEAXPEAK0@Z 0000000180040660 f i DelayImp:delayhlp.obj
 0001:0003f6f8       ?DloadProtectSection@@YAXKPEAK@Z 00000001800406f8 f i DelayImp:delayhlp.obj
 0001:0003f788       ?DloadReleaseSectionWriteAccess@@YAXXZ 0000000180040788 f i DelayImp:delayhlp.obj
 0001:0003f82c       __delayLoadHelper2         000000018004082c f   DelayImp:delayhlp.obj
 0001:0003fb40       _FindPESection             0000000180040b40 f   LIBCMT:pesect.obj
 0001:0003fb90       _IsNonwritableInCurrentImage 0000000180040b90 f   LIBCMT:pesect.obj
 0001:0003fbe0       _ValidateImageBase         0000000180040be0 f   LIBCMT:pesect.obj
 0001:0003fc10       strrchr                    0000000180040c10 f   libvcruntime:strrchr.obj
 0001:0003fd54       wcschr                     0000000180040d54 f   libvcruntime:wcschr.obj
 0001:0003fdf0       _guard_dispatch_icall_nop  0000000180040df0 f   LIBCMT:_guard_dispatch_.obj
 0001:00043890       ??__F_Static@?1???$_Immortalize@V_Iostream_error_category@std@@@std@@YAAEAV_Iostream_error_category@0@XZ@YAXXZ 0000000180044890 f i njsOracle.obj
 0002:00000000       __imp_SystemFunction036    0000000180045000     advapi32:ADVAPI32.dll
 0002:00000008       \177ADVAPI32_NULL_THUNK_DATA 0000000180045008     advapi32:ADVAPI32.dll
 0002:00000010       __imp_VirtualProtect       0000000180045010     kernel32:KERNEL32.dll
 0002:00000018       __imp_GetSystemInfo        0000000180045018     kernel32:KERNEL32.dll
 0002:00000020       __imp_VirtualQuery         0000000180045020     kernel32:KERNEL32.dll
 0002:00000028       __imp_GetModuleHandleA     0000000180045028     kernel32:KERNEL32.dll
 0002:00000030       __imp_CreateFileW          0000000180045030     kernel32:KERNEL32.dll
 0002:00000038       __imp_SetFilePointerEx     0000000180045038     kernel32:KERNEL32.dll
 0002:00000040       __imp_HeapSize             0000000180045040     kernel32:KERNEL32.dll
 0002:00000048       __imp_GetConsoleMode       0000000180045048     kernel32:KERNEL32.dll
 0002:00000050       __imp_GetConsoleCP         0000000180045050     kernel32:KERNEL32.dll
 0002:00000058       __imp_FlushFileBuffers     0000000180045058     kernel32:KERNEL32.dll
 0002:00000060       __imp_SetStdHandle         0000000180045060     kernel32:KERNEL32.dll
 0002:00000068       __imp_GetCommandLineW      0000000180045068     kernel32:KERNEL32.dll
 0002:00000070       __imp_GetCommandLineA      0000000180045070     kernel32:KERNEL32.dll
 0002:00000078       __imp_FreeEnvironmentStringsW 0000000180045078     kernel32:KERNEL32.dll
 0002:00000080       __imp_GetEnvironmentStringsW 0000000180045080     kernel32:KERNEL32.dll
 0002:00000088       __imp_GetOEMCP             0000000180045088     kernel32:KERNEL32.dll
 0002:00000090       __imp_IsValidCodePage      0000000180045090     kernel32:KERNEL32.dll
 0002:00000098       __imp_GetProcessHeap       0000000180045098     kernel32:KERNEL32.dll
 0002:000000a0       __imp_EnumSystemLocalesW   00000001800450a0     kernel32:KERNEL32.dll
 0002:000000a8       __imp_GetUserDefaultLCID   00000001800450a8     kernel32:KERNEL32.dll
 0002:000000b0       __imp_IsValidLocale        00000001800450b0     kernel32:KERNEL32.dll
 0002:000000b8       __imp_CreateThread         00000001800450b8     kernel32:KERNEL32.dll
 0002:000000c0       __imp_OutputDebugStringW   00000001800450c0     kernel32:KERNEL32.dll
 0002:000000c8       __imp_WriteFile            00000001800450c8     kernel32:KERNEL32.dll
 0002:000000d0       __imp_GetACP               00000001800450d0     kernel32:KERNEL32.dll
 0002:000000d8       __imp_ExitProcess          00000001800450d8     kernel32:KERNEL32.dll
 0002:000000e0       __imp_HeapFree             00000001800450e0     kernel32:KERNEL32.dll
 0002:000000e8       __imp_HeapReAlloc          00000001800450e8     kernel32:KERNEL32.dll
 0002:000000f0       __imp_HeapAlloc            00000001800450f0     kernel32:KERNEL32.dll
 0002:000000f8       __imp_WideCharToMultiByte  00000001800450f8     kernel32:KERNEL32.dll
 0002:00000100       __imp_EnterCriticalSection 0000000180045100     kernel32:KERNEL32.dll
 0002:00000108       __imp_LeaveCriticalSection 0000000180045108     kernel32:KERNEL32.dll
 0002:00000110       __imp_DeleteCriticalSection 0000000180045110     kernel32:KERNEL32.dll
 0002:00000118       __imp_EncodePointer        0000000180045118     kernel32:KERNEL32.dll
 0002:00000120       __imp_DecodePointer        0000000180045120     kernel32:KERNEL32.dll
 0002:00000128       __imp_MultiByteToWideChar  0000000180045128     kernel32:KERNEL32.dll
 0002:00000130       __imp_SetLastError         0000000180045130     kernel32:KERNEL32.dll
 0002:00000138       __imp_InitializeCriticalSectionAndSpinCount 0000000180045138     kernel32:KERNEL32.dll
 0002:00000140       __imp_CreateEventW         0000000180045140     kernel32:KERNEL32.dll
 0002:00000148       __imp_TlsAlloc             0000000180045148     kernel32:KERNEL32.dll
 0002:00000150       __imp_TlsGetValue          0000000180045150     kernel32:KERNEL32.dll
 0002:00000158       __imp_TlsSetValue          0000000180045158     kernel32:KERNEL32.dll
 0002:00000160       __imp_TlsFree              0000000180045160     kernel32:KERNEL32.dll
 0002:00000168       __imp_GetSystemTimeAsFileTime 0000000180045168     kernel32:KERNEL32.dll
 0002:00000170       __imp_GetModuleHandleW     0000000180045170     kernel32:KERNEL32.dll
 0002:00000178       __imp_GetProcAddress       0000000180045178     kernel32:KERNEL32.dll
 0002:00000180       __imp_LCMapStringW         0000000180045180     kernel32:KERNEL32.dll
 0002:00000188       __imp_GetLocaleInfoW       0000000180045188     kernel32:KERNEL32.dll
 0002:00000190       __imp_GetStringTypeW       0000000180045190     kernel32:KERNEL32.dll
 0002:00000198       __imp_GetCPInfo            0000000180045198     kernel32:KERNEL32.dll
 0002:000001a0       __imp_CloseHandle          00000001800451a0     kernel32:KERNEL32.dll
 0002:000001a8       __imp_SetEvent             00000001800451a8     kernel32:KERNEL32.dll
 0002:000001b0       __imp_ResetEvent           00000001800451b0     kernel32:KERNEL32.dll
 0002:000001b8       __imp_WaitForSingleObjectEx 00000001800451b8     kernel32:KERNEL32.dll
 0002:000001c0       __imp_RtlCaptureContext    00000001800451c0     kernel32:KERNEL32.dll
 0002:000001c8       __imp_RtlLookupFunctionEntry 00000001800451c8     kernel32:KERNEL32.dll
 0002:000001d0       __imp_RtlVirtualUnwind     00000001800451d0     kernel32:KERNEL32.dll
 0002:000001d8       __imp_UnhandledExceptionFilter 00000001800451d8     kernel32:KERNEL32.dll
 0002:000001e0       __imp_SetUnhandledExceptionFilter 00000001800451e0     kernel32:KERNEL32.dll
 0002:000001e8       __imp_GetCurrentProcess    00000001800451e8     kernel32:KERNEL32.dll
 0002:000001f0       __imp_TerminateProcess     00000001800451f0     kernel32:KERNEL32.dll
 0002:000001f8       __imp_IsProcessorFeaturePresent 00000001800451f8     kernel32:KERNEL32.dll
 0002:00000200       __imp_IsDebuggerPresent    0000000180045200     kernel32:KERNEL32.dll
 0002:00000208       __imp_GetStartupInfoW      0000000180045208     kernel32:KERNEL32.dll
 0002:00000210       __imp_QueryPerformanceCounter 0000000180045210     kernel32:KERNEL32.dll
 0002:00000218       __imp_GetCurrentProcessId  0000000180045218     kernel32:KERNEL32.dll
 0002:00000220       __imp_GetCurrentThreadId   0000000180045220     kernel32:KERNEL32.dll
 0002:00000228       __imp_InitializeSListHead  0000000180045228     kernel32:KERNEL32.dll
 0002:00000230       __imp_RtlPcToFileHeader    0000000180045230     kernel32:KERNEL32.dll
 0002:00000238       __imp_RaiseException       0000000180045238     kernel32:KERNEL32.dll
 0002:00000240       __imp_RtlUnwindEx          0000000180045240     kernel32:KERNEL32.dll
 0002:00000248       __imp_GetLastError         0000000180045248     kernel32:KERNEL32.dll
 0002:00000250       __imp_FreeLibrary          0000000180045250     kernel32:KERNEL32.dll
 0002:00000258       __imp_LoadLibraryExW       0000000180045258     kernel32:KERNEL32.dll
 0002:00000260       __imp_GetModuleFileNameW   0000000180045260     kernel32:KERNEL32.dll
 0002:00000268       __imp_InterlockedFlushSList 0000000180045268     kernel32:KERNEL32.dll
 0002:00000270       __imp_GetStdHandle         0000000180045270     kernel32:KERNEL32.dll
 0002:00000278       __imp_GetFileType          0000000180045278     kernel32:KERNEL32.dll
 0002:00000280       __imp_GetModuleHandleExW   0000000180045280     kernel32:KERNEL32.dll
 0002:00000288       __imp_WriteConsoleW        0000000180045288     kernel32:KERNEL32.dll
 0002:00000290       __imp_LoadLibraryExA       0000000180045290     kernel32:KERNEL32.dll
 0002:00000298       \177KERNEL32_NULL_THUNK_DATA 0000000180045298     kernel32:KERNEL32.dll
 0002:000002a0       __imp_OCIClientVersion     00000001800452a0     oci:OCI.dll
 0002:000002a8       __imp_OCILobWrite2         00000001800452a8     oci:OCI.dll
 0002:000002b0       __imp_OCILobRead2          00000001800452b0     oci:OCI.dll
 0002:000002b8       __imp_OCILobGetLength2     00000001800452b8     oci:OCI.dll
 0002:000002c0       __imp_OCILobGetChunkSize   00000001800452c0     oci:OCI.dll
 0002:000002c8       __imp_OCIErrorGet          00000001800452c8     oci:OCI.dll
 0002:000002d0       __imp_OCIStmtRelease       00000001800452d0     oci:OCI.dll
 0002:000002d8       __imp_OCIStmtFetch2        00000001800452d8     oci:OCI.dll
 0002:000002e0       __imp_OCIBindByPos2        00000001800452e0     oci:OCI.dll
 0002:000002e8       __imp_OCIBindDynamic       00000001800452e8     oci:OCI.dll
 0002:000002f0       __imp_OCIParamGet          00000001800452f0     oci:OCI.dll
 0002:000002f8       __imp_OCIStmtPrepare2      00000001800452f8     oci:OCI.dll
 0002:00000300       __imp_OCIBindByName2       0000000180045300     oci:OCI.dll
 0002:00000308       __imp_OCIDefineByPos2      0000000180045308     oci:OCI.dll
 0002:00000310       __imp_OCIStmtExecute       0000000180045310     oci:OCI.dll
 0002:00000318       __imp_OCISessionPoolDestroy 0000000180045318     oci:OCI.dll
 0002:00000320       __imp_OCISessionPoolCreate 0000000180045320     oci:OCI.dll
 0002:00000328       __imp_OCIIntervalSetDaySecond 0000000180045328     oci:OCI.dll
 0002:00000330       __imp_OCIDateTimeIntervalAdd 0000000180045330     oci:OCI.dll
 0002:00000338       __imp_OCIIntervalGetDaySecond 0000000180045338     oci:OCI.dll
 0002:00000340       __imp_OCIDateTimeSubtract  0000000180045340     oci:OCI.dll
 0002:00000348       __imp_OCIDateTimeConstruct 0000000180045348     oci:OCI.dll
 0002:00000350       __imp_OCIBreak             0000000180045350     oci:OCI.dll
 0002:00000358       __imp_OCIAttrSet           0000000180045358     oci:OCI.dll
 0002:00000360       __imp_OCIServerRelease     0000000180045360     oci:OCI.dll
 0002:00000368       __imp_OCIAttrGet           0000000180045368     oci:OCI.dll
 0002:00000370       __imp_OCISessionGet        0000000180045370     oci:OCI.dll
 0002:00000378       __imp_OCISessionRelease    0000000180045378     oci:OCI.dll
 0002:00000380       __imp_OCITransRollback     0000000180045380     oci:OCI.dll
 0002:00000388       __imp_OCITransCommit       0000000180045388     oci:OCI.dll
 0002:00000390       __imp_OCIHandleAlloc       0000000180045390     oci:OCI.dll
 0002:00000398       __imp_OCIArrayDescriptorAlloc 0000000180045398     oci:OCI.dll
 0002:000003a0       __imp_OCIDescriptorAlloc   00000001800453a0     oci:OCI.dll
 0002:000003a8       __imp_OCIEnvNlsCreate      00000001800453a8     oci:OCI.dll
 0002:000003b0       __imp_OCIArrayDescriptorFree 00000001800453b0     oci:OCI.dll
 0002:000003b8       __imp_OCIHandleFree        00000001800453b8     oci:OCI.dll
 0002:000003c0       __imp_OCIDescriptorFree    00000001800453c0     oci:OCI.dll
 0002:000003c8       \177OCI_NULL_THUNK_DATA    00000001800453c8     oci:OCI.dll
 0002:000003d0       __guard_check_icall_fptr   00000001800453d0     LIBCMT:guard_support.obj
 0002:000003d8       __guard_dispatch_icall_fptr 00000001800453d8     LIBCMT:guard_support.obj
 0002:000003e0       __xc_a                     00000001800453e0     LIBCMT:initializers.obj
 0002:00000410       _register_oracledb_        0000000180045410     njsOracle.obj
 0002:00000440       __xc_z                     0000000180045440     LIBCMT:initializers.obj
 0002:00000448       __xi_a                     0000000180045448     LIBCMT:initializers.obj
 0002:00000460       __acrt_stdio_initializer   0000000180045460     libucrt:stdio_initializer.obj
 0002:00000468       __acrt_timeset_initializer 0000000180045468     libucrt:timeset_initializer.obj
 0002:00000470       __acrt_multibyte_initializer 0000000180045470     libucrt:multibyte_initializer.obj
 0002:00000478       __acrt_tran_fma3_initializer 0000000180045478     libucrt:fma3_initializer.obj
 0002:00000480       __xi_z                     0000000180045480     LIBCMT:initializers.obj
 0002:00000488       __xl_a                     0000000180045488     LIBCMT:tlssup.obj
 0002:00000490       __xl_z                     0000000180045490     LIBCMT:tlssup.obj
 0002:00000498       __xp_a                     0000000180045498     LIBCMT:initializers.obj
 0002:000004a0       __acrt_locale_terminator   00000001800454a0     libucrt:locale_initializer.obj
 0002:000004a8       __dcrt_console_output_terminator 00000001800454a8     libucrt:console_output_initializer.obj
 0002:000004b0       __acrt_stdio_terminator    00000001800454b0     libucrt:stdio_initializer.obj
 0002:000004b8       __xp_z                     00000001800454b8     LIBCMT:initializers.obj
 0002:000004c0       __xt_a                     00000001800454c0     LIBCMT:initializers.obj
 0002:000004c8       __xt_z                     00000001800454c8     LIBCMT:initializers.obj
 0002:000004d0       __sz_node_exe              00000001800454d0     node:node.exe
 0002:000005b0       ??_7_Facet_base@std@@6B@   00000001800455b0     libcpmt:locale0.obj
 0002:000005d0       ??_7_Locimp@locale@std@@6B@ 00000001800455d0     libcpmt:locale0.obj
 0002:000005e8       ??_C@_01NBENCBCI@?$CK?$AA@ 00000001800455e8     libcpmt:locale0.obj
 0002:000005ec       ??_C@_01GFHCPBMG@C?$AA@    00000001800455ec     libcpmt:locale0.obj
 0002:000005f8       ??_7exception@std@@6B@     00000001800455f8     libcpmt:xthrow.obj
 0002:00000608       ??_C@_0BC@EOODALEL@Unknown?5exception?$AA@ 0000000180045608     libcpmt:xthrow.obj
 0002:00000628       ??_7bad_alloc@std@@6B@     0000000180045628     libcpmt:xthrow.obj
 0002:00000638       ??_C@_0P@GHFPNOJB@bad?5allocation?$AA@ 0000000180045638     libcpmt:xthrow.obj
 0002:00000650       ??_7logic_error@std@@6B@   0000000180045650     libcpmt:xthrow.obj
 0002:00000668       ??_7length_error@std@@6B@  0000000180045668     libcpmt:xthrow.obj
 0002:00000680       ??_7out_of_range@std@@6B@  0000000180045680     libcpmt:xthrow.obj
 0002:00000698       ??_7runtime_error@std@@6B@ 0000000180045698     libcpmt:xthrow.obj
 0002:000006a8       ?_BADOFF@std@@3_JB         00000001800456a8     libcpmt:ios.obj
 0002:00000de0       ??_C@_0BN@LKKBCCDB@address?5family?5not?5supported?$AA@ 0000000180045de0     libcpmt:syserror.obj
 0002:00000e00       ??_C@_0P@LDMLAFHI@address?5in?5use?$AA@ 0000000180045e00     libcpmt:syserror.obj
 0002:00000e10       ??_C@_0BG@DHPCNBJB@address?5not?5available?$AA@ 0000000180045e10     libcpmt:syserror.obj
 0002:00000e28       ??_C@_0BC@DFIBIBIL@already?5connected?$AA@ 0000000180045e28     libcpmt:syserror.obj
 0002:00000e40       ??_C@_0BH@CAKOHOMI@argument?5list?5too?5long?$AA@ 0000000180045e40     libcpmt:syserror.obj
 0002:00000e58       ??_C@_0BH@CGIMPKIM@argument?5out?5of?5domain?$AA@ 0000000180045e58     libcpmt:syserror.obj
 0002:00000e70       ??_C@_0M@KGHGGJGL@bad?5address?$AA@ 0000000180045e70     libcpmt:syserror.obj
 0002:00000e80       ??_C@_0BE@MPJPGCEO@bad?5file?5descriptor?$AA@ 0000000180045e80     libcpmt:syserror.obj
 0002:00000e98       ??_C@_0M@PMMIEFCP@bad?5message?$AA@ 0000000180045e98     libcpmt:syserror.obj
 0002:00000ea8       ??_C@_0M@KPHOFDBE@broken?5pipe?$AA@ 0000000180045ea8     libcpmt:syserror.obj
 0002:00000eb8       ??_C@_0BD@MGNDDEGM@connection?5aborted?$AA@ 0000000180045eb8     libcpmt:syserror.obj
 0002:00000ed0       ??_C@_0BP@KAIHPOGN@connection?5already?5in?5progress?$AA@ 0000000180045ed0     libcpmt:syserror.obj
 0002:00000ef0       ??_C@_0BD@PJLIIJEL@connection?5refused?$AA@ 0000000180045ef0     libcpmt:syserror.obj
 0002:00000f08       ??_C@_0BB@IECNJNOI@connection?5reset?$AA@ 0000000180045f08     libcpmt:syserror.obj
 0002:00000f20       ??_C@_0BC@PPHBOELF@cross?5device?5link?$AA@ 0000000180045f20     libcpmt:syserror.obj
 0002:00000f38       ??_C@_0BN@KDMIFEIP@destination?5address?5required?$AA@ 0000000180045f38     libcpmt:syserror.obj
 0002:00000f58       ??_C@_0BI@NGCEHDD@device?5or?5resource?5busy?$AA@ 0000000180045f58     libcpmt:syserror.obj
 0002:00000f70       ??_C@_0BE@JIDOCPHM@directory?5not?5empty?$AA@ 0000000180045f70     libcpmt:syserror.obj
 0002:00000f88       ??_C@_0BI@BNCLIGPB@executable?5format?5error?$AA@ 0000000180045f88     libcpmt:syserror.obj
 0002:00000fa0       ??_C@_0M@MIDIAGJP@file?5exists?$AA@ 0000000180045fa0     libcpmt:syserror.obj
 0002:00000fb0       ??_C@_0P@DNAJLBJK@file?5too?5large?$AA@ 0000000180045fb0     libcpmt:syserror.obj
 0002:00000fc0       ??_C@_0BC@EJHOMAAK@filename?5too?5long?$AA@ 0000000180045fc0     libcpmt:syserror.obj
 0002:00000fd8       ??_C@_0BH@KEFGLDAF@function?5not?5supported?$AA@ 0000000180045fd8     libcpmt:syserror.obj
 0002:00000ff0       ??_C@_0BB@DHFDFGDM@host?5unreachable?$AA@ 0000000180045ff0     libcpmt:syserror.obj
 0002:00001008       ??_C@_0BD@JPHBMONG@identifier?5removed?$AA@ 0000000180046008     libcpmt:syserror.obj
 0002:00001020       ??_C@_0BG@CDNPAGJK@illegal?5byte?5sequence?$AA@ 0000000180046020     libcpmt:syserror.obj
 0002:00001038       ??_C@_0CD@BNPLBMNA@inappropriate?5io?5control?5operati@ 0000000180046038     libcpmt:syserror.obj
 0002:00001060       ??_C@_0M@EGEKIIMP@interrupted?$AA@ 0000000180046060     libcpmt:syserror.obj
 0002:00001070       ??_C@_0BB@FCMFBGOM@invalid?5argument?$AA@ 0000000180046070     libcpmt:syserror.obj
 0002:00001088       ??_C@_0N@OHAFKDEK@invalid?5seek?$AA@ 0000000180046088     libcpmt:syserror.obj
 0002:00001098       ??_C@_08GLNPIFBN@io?5error?$AA@ 0000000180046098     libcpmt:syserror.obj
 0002:000010a8       ??_C@_0P@FLLDBIDK@is?5a?5directory?$AA@ 00000001800460a8     libcpmt:syserror.obj
 0002:000010b8       ??_C@_0N@IFLPBIOP@message?5size?$AA@ 00000001800460b8     libcpmt:syserror.obj
 0002:000010c8       ??_C@_0N@KIIEAAIO@network?5down?$AA@ 00000001800460c8     libcpmt:syserror.obj
 0002:000010d8       ??_C@_0O@FNPDBHEE@network?5reset?$AA@ 00000001800460d8     libcpmt:syserror.obj
 0002:000010e8       ??_C@_0BE@IFNCKGE@network?5unreachable?$AA@ 00000001800460e8     libcpmt:syserror.obj
 0002:00001100       ??_C@_0BA@PFFCAOFK@no?5buffer?5space?$AA@ 0000000180046100     libcpmt:syserror.obj
 0002:00001110       ??_C@_0BB@IEPBLJHK@no?5child?5process?$AA@ 0000000180046110     libcpmt:syserror.obj
 0002:00001128       ??_C@_07PLECNNKG@no?5link?$AA@ 0000000180046128     libcpmt:syserror.obj
 0002:00001130       ??_C@_0BC@NJECKMKE@no?5lock?5available?$AA@ 0000000180046130     libcpmt:syserror.obj
 0002:00001148       ??_C@_0BF@PBGGPKKE@no?5message?5available?$AA@ 0000000180046148     libcpmt:syserror.obj
 0002:00001160       ??_C@_0L@EDOLMPAK@no?5message?$AA@ 0000000180046160     libcpmt:syserror.obj
 0002:00001170       ??_C@_0BD@EAMBFIDF@no?5protocol?5option?$AA@ 0000000180046170     libcpmt:syserror.obj
 0002:00001188       ??_C@_0BD@IJDJKDEA@no?5space?5on?5device?$AA@ 0000000180046188     libcpmt:syserror.obj
 0002:000011a0       ??_C@_0BE@MKFDAFMP@no?5stream?5resources?$AA@ 00000001800461a0     libcpmt:syserror.obj
 0002:000011b8       ??_C@_0BK@IMCPHCBI@no?5such?5device?5or?5address?$AA@ 00000001800461b8     libcpmt:syserror.obj
 0002:000011d8       ??_C@_0P@FDINDDOK@no?5such?5device?$AA@ 00000001800461d8     libcpmt:syserror.obj
 0002:000011e8       ??_C@_0BK@NDOCBPGE@no?5such?5file?5or?5directory?$AA@ 00000001800461e8     libcpmt:syserror.obj
 0002:00001208       ??_C@_0BA@ENLPPKBN@no?5such?5process?$AA@ 0000000180046208     libcpmt:syserror.obj
 0002:00001218       ??_C@_0BA@DOCPFFJG@not?5a?5directory?$AA@ 0000000180046218     libcpmt:syserror.obj
 0002:00001228       ??_C@_0N@POEIPGGF@not?5a?5socket?$AA@ 0000000180046228     libcpmt:syserror.obj
 0002:00001238       ??_C@_0N@LGAPMMPI@not?5a?5stream?$AA@ 0000000180046238     libcpmt:syserror.obj
 0002:00001248       ??_C@_0O@GLMIBBEG@not?5connected?$AA@ 0000000180046248     libcpmt:syserror.obj
 0002:00001258       ??_C@_0BC@ENOOLCNF@not?5enough?5memory?$AA@ 0000000180046258     libcpmt:syserror.obj
 0002:00001270       ??_C@_0O@NHEDABJP@not?5supported?$AA@ 0000000180046270     libcpmt:syserror.obj
 0002:00001280       ??_C@_0BD@MOLBPMEA@operation?5canceled?$AA@ 0000000180046280     libcpmt:syserror.obj
 0002:00001298       ??_C@_0BG@KDKHOPCO@operation?5in?5progress?$AA@ 0000000180046298     libcpmt:syserror.obj
 0002:000012b0       ??_C@_0BI@OHIEJAAB@operation?5not?5permitted?$AA@ 00000001800462b0     libcpmt:syserror.obj
 0002:000012c8       ??_C@_0BI@LNEGIFLN@operation?5not?5supported?$AA@ 00000001800462c8     libcpmt:syserror.obj
 0002:000012e0       ??_C@_0BG@OEMDKMEE@operation?5would?5block?$AA@ 00000001800462e0     libcpmt:syserror.obj
 0002:000012f8       ??_C@_0L@BLPOFLNJ@owner?5dead?$AA@ 00000001800462f8     libcpmt:syserror.obj
 0002:00001308       ??_C@_0BC@CIJDGCDI@permission?5denied?$AA@ 0000000180046308     libcpmt:syserror.obj
 0002:00001320       ??_C@_0P@FNPOCJBE@protocol?5error?$AA@ 0000000180046320     libcpmt:syserror.obj
 0002:00001330       ??_C@_0BH@JPPPLHJB@protocol?5not?5supported?$AA@ 0000000180046330     libcpmt:syserror.obj
 0002:00001348       ??_C@_0BG@EICBIHDP@read?5only?5file?5system?$AA@ 0000000180046348     libcpmt:syserror.obj
 0002:00001360       ??_C@_0BO@BJBOMOEJ@resource?5deadlock?5would?5occur?$AA@ 0000000180046360     libcpmt:syserror.obj
 0002:00001380       ??_C@_0BP@LKNGHENJ@resource?5unavailable?5try?5again?$AA@ 0000000180046380     libcpmt:syserror.obj
 0002:000013a0       ??_C@_0BE@GOIPJJHG@result?5out?5of?5range?$AA@ 00000001800463a0     libcpmt:syserror.obj
 0002:000013b8       ??_C@_0BG@MPLKFPAE@state?5not?5recoverable?$AA@ 00000001800463b8     libcpmt:syserror.obj
 0002:000013d0       ??_C@_0P@DIIFGFCG@stream?5timeout?$AA@ 00000001800463d0     libcpmt:syserror.obj
 0002:000013e0       ??_C@_0P@IPFDMIFL@text?5file?5busy?$AA@ 00000001800463e0     libcpmt:syserror.obj
 0002:000013f0       ??_C@_09KJPPMAOI@timed?5out?$AA@ 00000001800463f0     libcpmt:syserror.obj
 0002:00001400       ??_C@_0BO@HACHBEKI@too?5many?5files?5open?5in?5system?$AA@ 0000000180046400     libcpmt:syserror.obj
 0002:00001420       ??_C@_0BE@GHAFMPAH@too?5many?5files?5open?$AA@ 0000000180046420     libcpmt:syserror.obj
 0002:00001438       ??_C@_0P@HCOMKFCC@too?5many?5links?$AA@ 0000000180046438     libcpmt:syserror.obj
 0002:00001448       ??_C@_0BO@EFGOJEF@too?5many?5symbolic?5link?5levels?$AA@ 0000000180046448     libcpmt:syserror.obj
 0002:00001468       ??_C@_0BA@KGKGOOJA@value?5too?5large?$AA@ 0000000180046468     libcpmt:syserror.obj
 0002:00001478       ??_C@_0BE@MIEJDDNH@wrong?5protocol?5type?$AA@ 0000000180046478     libcpmt:syserror.obj
 0002:00001490       ??_C@_0O@BFJCFAAK@unknown?5error?$AA@ 0000000180046490     libcpmt:syserror.obj
 0002:000014d0       ??_7?$ctype@D@std@@6B@     00000001800464d0     libcpmt:locale.obj
 0002:00001530       ??_7?$num_put@DV?$ostreambuf_iterator@DU?$char_traits@D@std@@@std@@@std@@6B@ 0000000180046530     libcpmt:locale.obj
 0002:00001590       ??_7?$numpunct@D@std@@6B@  0000000180046590     libcpmt:locale.obj
 0002:000015d0       ??_C@_1BK@MGMFAEKH@?$AAk?$AAe?$AAr?$AAn?$AAe?$AAl?$AA3?$AA2?$AA?4?$AAd?$AAl?$AAl?$AA?$AA@ 00000001800465d0     libcpmt:winapisupp.obj
 0002:000015f0       ??_C@_08KNHFBNJ@FlsAlloc?$AA@ 00000001800465f0     libcpmt:winapisupp.obj
 0002:00001600       ??_C@_07PEJMOBNF@FlsFree?$AA@ 0000000180046600     libcpmt:winapisupp.obj
 0002:00001608       ??_C@_0M@GDNOONDI@FlsGetValue?$AA@ 0000000180046608     libcpmt:winapisupp.obj
 0002:00001618       ??_C@_0M@JCPCPOEF@FlsSetValue?$AA@ 0000000180046618     libcpmt:winapisupp.obj
 0002:00001628       ??_C@_0BM@HCFOFFN@InitializeCriticalSectionEx?$AA@ 0000000180046628     libcpmt:winapisupp.obj
 0002:00001648       ??_C@_0BE@GPLMMCMH@InitOnceExecuteOnce?$AA@ 0000000180046648     libcpmt:winapisupp.obj
 0002:00001660       ??_C@_0P@DLHPPCNH@CreateEventExW?$AA@ 0000000180046660     libcpmt:winapisupp.obj
 0002:00001670       ??_C@_0BB@MEFPJLHN@CreateSemaphoreW?$AA@ 0000000180046670     libcpmt:winapisupp.obj
 0002:00001688       ??_C@_0BD@KIEEOEEH@CreateSemaphoreExW?$AA@ 0000000180046688     libcpmt:winapisupp.obj
 0002:000016a0       ??_C@_0BG@OGFAJCKC@CreateThreadpoolTimer?$AA@ 00000001800466a0     libcpmt:winapisupp.obj
 0002:000016b8       ??_C@_0BD@LPLEMMDI@SetThreadpoolTimer?$AA@ 00000001800466b8     libcpmt:winapisupp.obj
 0002:000016d0       ??_C@_0CA@FMNJENH@WaitForThreadpoolTimerCallbacks?$AA@ 00000001800466d0     libcpmt:winapisupp.obj
 0002:000016f0       ??_C@_0BF@DCFCCNOC@CloseThreadpoolTimer?$AA@ 00000001800466f0     libcpmt:winapisupp.obj
 0002:00001708       ??_C@_0BF@FLABGKKM@CreateThreadpoolWait?$AA@ 0000000180046708     libcpmt:winapisupp.obj
 0002:00001720       ??_C@_0BC@MGCOHNA@SetThreadpoolWait?$AA@ 0000000180046720     libcpmt:winapisupp.obj
 0002:00001738       ??_C@_0BE@OCIOMIMP@CloseThreadpoolWait?$AA@ 0000000180046738     libcpmt:winapisupp.obj
 0002:00001750       ??_C@_0BJ@LKGHFHBO@FlushProcessWriteBuffers?$AA@ 0000000180046750     libcpmt:winapisupp.obj
 0002:00001770       ??_C@_0BP@KALKKPMO@FreeLibraryWhenCallbackReturns?$AA@ 0000000180046770     libcpmt:winapisupp.obj
 0002:00001790       ??_C@_0BK@DFNBACLA@GetCurrentProcessorNumber?$AA@ 0000000180046790     libcpmt:winapisupp.obj
 0002:000017b0       ??_C@_0BE@FKKLLFLM@CreateSymbolicLinkW?$AA@ 00000001800467b0     libcpmt:winapisupp.obj
 0002:000017c8       ??_C@_0BE@JOGNEJCI@GetCurrentPackageId?$AA@ 00000001800467c8     libcpmt:winapisupp.obj
 0002:000017e0       ??_C@_0P@CDHHOHKP@GetTickCount64?$AA@ 00000001800467e0     libcpmt:winapisupp.obj
 0002:000017f0       ??_C@_0BN@NEEHBBPO@GetFileInformationByHandleEx?$AA@ 00000001800467f0     libcpmt:winapisupp.obj
 0002:00001810       ??_C@_0BL@KBBHGKCM@SetFileInformationByHandle?$AA@ 0000000180046810     libcpmt:winapisupp.obj
 0002:00001830       ??_C@_0BP@FPNJPEJC@GetSystemTimePreciseAsFileTime?$AA@ 0000000180046830     libcpmt:winapisupp.obj
 0002:00001850       ??_C@_0BM@HLJJNPAH@InitializeConditionVariable?$AA@ 0000000180046850     libcpmt:winapisupp.obj
 0002:00001870       ??_C@_0BG@BFNILBLN@WakeConditionVariable?$AA@ 0000000180046870     libcpmt:winapisupp.obj
 0002:00001888       ??_C@_0BJ@PGPPEPCC@WakeAllConditionVariable?$AA@ 0000000180046888     libcpmt:winapisupp.obj
 0002:000018a8       ??_C@_0BJ@JEBJOJFJ@SleepConditionVariableCS?$AA@ 00000001800468a8     libcpmt:winapisupp.obj
 0002:000018c8       ??_C@_0BC@MMLHEBPB@InitializeSRWLock?$AA@ 00000001800468c8     libcpmt:winapisupp.obj
 0002:000018e0       ??_C@_0BI@OMNLIJDB@AcquireSRWLockExclusive?$AA@ 00000001800468e0     libcpmt:winapisupp.obj
 0002:000018f8       ??_C@_0BL@OGHFEMNA@TryAcquireSRWLockExclusive?$AA@ 00000001800468f8     libcpmt:winapisupp.obj
 0002:00001918       ??_C@_0BI@HMIEPCNJ@ReleaseSRWLockExclusive?$AA@ 0000000180046918     libcpmt:winapisupp.obj
 0002:00001930       ??_C@_0BK@LGACAGIC@SleepConditionVariableSRW?$AA@ 0000000180046930     libcpmt:winapisupp.obj
 0002:00001950       ??_C@_0BF@GGPHFPJA@CreateThreadpoolWork?$AA@ 0000000180046950     libcpmt:winapisupp.obj
 0002:00001968       ??_C@_0BF@NHDAIMMO@SubmitThreadpoolWork?$AA@ 0000000180046968     libcpmt:winapisupp.obj
 0002:00001980       ??_C@_0BE@NPHIPNPD@CloseThreadpoolWork?$AA@ 0000000180046980     libcpmt:winapisupp.obj
 0002:00001998       ??_C@_0BA@IHGNDAEB@CompareStringEx?$AA@ 0000000180046998     libcpmt:winapisupp.obj
 0002:000019a8       ??_C@_0BA@ONOKGCMP@GetLocaleInfoEx?$AA@ 00000001800469a8     libcpmt:winapisupp.obj
 0002:000019b8       ??_C@_0O@KKBNKAPF@LCMapStringEx?$AA@ 00000001800469b8     libcpmt:winapisupp.obj
 0002:000019c8       ??_C@_11LOCGONAA@?$AA?$AA@ 00000001800469c8     libcpmt:wlocale.obj
 0002:000019d0       __xmm@80000000000000008000000000000000 00000001800469d0     libcpmt:wlocale.obj
 0002:00001a80       ??_C@_1M@GMDGLDOB@?$AAe?$AAn?$AA?9?$AAp?$AAh?$AA?$AA@ 0000000180046a80     libcpmt:winapinls.obj
 0002:00001a90       ??_C@_1M@ONGIBJNA@?$AAe?$AAn?$AA?9?$AAt?$AAt?$AA?$AA@ 0000000180046a90     libcpmt:winapinls.obj
 0002:00001aa0       ??_C@_1M@LLODPCMM@?$AAe?$AAn?$AA?9?$AAu?$AAs?$AA?$AA@ 0000000180046aa0     libcpmt:winapinls.obj
 0002:00001ab0       ??_C@_1M@LAKFNPAN@?$AAe?$AAn?$AA?9?$AAz?$AAa?$AA?$AA@ 0000000180046ab0     libcpmt:winapinls.obj
 0002:00001ac0       ??_C@_1M@MFNHNHEO@?$AAe?$AAn?$AA?9?$AAz?$AAw?$AA?$AA@ 0000000180046ac0     libcpmt:winapinls.obj
 0002:00001ad0       ??_C@_1M@EJEINPHM@?$AAe?$AAs?$AA?9?$AAa?$AAr?$AA?$AA@ 0000000180046ad0     libcpmt:winapinls.obj
 0002:00001ae0       ??_C@_1M@GNKPCCJA@?$AAe?$AAs?$AA?9?$AAb?$AAo?$AA?$AA@ 0000000180046ae0     libcpmt:winapinls.obj
 0002:00001af0       ??_C@_1M@LEEGFONL@?$AAe?$AAs?$AA?9?$AAc?$AAl?$AA?$AA@ 0000000180046af0     libcpmt:winapinls.obj
 0002:00001b00       ??_C@_1M@KGPDPBDF@?$AAe?$AAs?$AA?9?$AAc?$AAo?$AA?$AA@ 0000000180046b00     libcpmt:winapinls.obj
 0002:00001b10       ??_C@_1M@EIAHOHH@?$AAe?$AAs?$AA?9?$AAc?$AAr?$AA?$AA@ 0000000180046b10     libcpmt:winapinls.obj
 0002:00001b20       ??_C@_1M@LLPGMBIN@?$AAe?$AAs?$AA?9?$AAd?$AAo?$AA?$AA@ 0000000180046b20     libcpmt:winapinls.obj
 0002:00001b30       ??_C@_1M@DKHMKNJA@?$AAe?$AAs?$AA?9?$AAe?$AAc?$AA?$AA@ 0000000180046b30     libcpmt:winapinls.obj
 0002:00001b40       ??_C@_1M@GKGFPKAP@?$AAe?$AAs?$AA?9?$AAe?$AAs?$AA?$AA@ 0000000180046b40     libcpmt:winapinls.obj
 0002:00001b50       ??_C@_1M@LKHKGDLN@?$AAe?$AAs?$AA?9?$AAg?$AAt?$AA?$AA@ 0000000180046b50     libcpmt:winapinls.obj
 0002:00001b60       ??_C@_1M@HEIIGGJD@?$AAe?$AAs?$AA?9?$AAh?$AAn?$AA?$AA@ 0000000180046b60     libcpmt:winapinls.obj
 0002:00001b70       ??_C@_1M@FBDHPPGD@?$AAe?$AAs?$AA?9?$AAm?$AAx?$AA?$AA@ 0000000180046b70     libcpmt:winapinls.obj
 0002:00001b80       ??_C@_1M@DPAGLNDH@?$AAe?$AAs?$AA?9?$AAn?$AAi?$AA?$AA@ 0000000180046b80     libcpmt:winapinls.obj
 0002:00001b90       ??_C@_1M@MDGOPGDD@?$AAe?$AAs?$AA?9?$AAp?$AAa?$AA?$AA@ 0000000180046b90     libcpmt:winapinls.obj
 0002:00001ba0       ??_C@_1M@EMAMGBGE@?$AAe?$AAs?$AA?9?$AAp?$AAe?$AA?$AA@ 0000000180046ba0     libcpmt:winapinls.obj
 0002:00001bb0       ??_C@_1M@IBMCAOEC@?$AAe?$AAs?$AA?9?$AAp?$AAr?$AA?$AA@ 0000000180046bb0     libcpmt:winapinls.obj
 0002:00001bc0       ??_C@_1M@FGMDIJED@?$AAe?$AAs?$AA?9?$AAp?$AAy?$AA?$AA@ 0000000180046bc0     libcpmt:winapinls.obj
 0002:00001bd0       ??_C@_1M@IIDEOLLL@?$AAe?$AAs?$AA?9?$AAs?$AAv?$AA?$AA@ 0000000180046bd0     libcpmt:winapinls.obj
 0002:00001be0       ??_C@_1M@GAOBIPA@?$AAe?$AAs?$AA?9?$AAu?$AAy?$AA?$AA@ 0000000180046be0     libcpmt:winapinls.obj
 0002:00001bf0       ??_C@_1M@JKFFICHJ@?$AAe?$AAs?$AA?9?$AAv?$AAe?$AA?$AA@ 0000000180046bf0     libcpmt:winapinls.obj
 0002:00001c00       ??_C@_1M@PNMLOJDF@?$AAe?$AAt?$AA?9?$AAe?$AAe?$AA?$AA@ 0000000180046c00     libcpmt:winapinls.obj
 0002:00001c10       ??_C@_1M@GHHLIKEI@?$AAe?$AAu?$AA?9?$AAe?$AAs?$AA?$AA@ 0000000180046c10     libcpmt:winapinls.obj
 0002:00001c20       ??_C@_1M@PBNONODE@?$AAf?$AAa?$AA?9?$AAi?$AAr?$AA?$AA@ 0000000180046c20     libcpmt:winapinls.obj
 0002:00001c30       ??_C@_1M@JEEHPMIL@?$AAf?$AAi?$AA?9?$AAf?$AAi?$AA?$AA@ 0000000180046c30     libcpmt:winapinls.obj
 0002:00001c40       ??_C@_1M@LMDCNDBA@?$AAf?$AAo?$AA?9?$AAf?$AAo?$AA?$AA@ 0000000180046c40     libcpmt:winapinls.obj
 0002:00001c50       ??_C@_1M@JKEOHLDK@?$AAf?$AAr?$AA?9?$AAb?$AAe?$AA?$AA@ 0000000180046c50     libcpmt:winapinls.obj
 0002:00001c60       ??_C@_1M@NOHADPMI@?$AAf?$AAr?$AA?9?$AAc?$AAa?$AA?$AA@ 0000000180046c60     libcpmt:winapinls.obj
 0002:00001c70       ??_C@_1M@KDHIHAEC@?$AAf?$AAr?$AA?9?$AAc?$AAh?$AA?$AA@ 0000000180046c70     libcpmt:winapinls.obj
 0002:00001c80       ??_C@_1M@MMBBFGAK@?$AAf?$AAr?$AA?9?$AAf?$AAr?$AA?$AA@ 0000000180046c80     libcpmt:winapinls.obj
 0002:00001c90       ??_C@_1M@PAFNENNF@?$AAf?$AAr?$AA?9?$AAl?$AAu?$AA?$AA@ 0000000180046c90     libcpmt:winapinls.obj
 0002:00001ca0       ??_C@_1M@EOHDJGDD@?$AAf?$AAr?$AA?9?$AAm?$AAc?$AA?$AA@ 0000000180046ca0     libcpmt:winapinls.obj
 0002:00001cb0       ??_C@_1M@FAPLLOPF@?$AAg?$AAl?$AA?9?$AAe?$AAs?$AA?$AA@ 0000000180046cb0     libcpmt:winapinls.obj
 0002:00001cc0       ??_C@_1M@FOPBFLOO@?$AAg?$AAu?$AA?9?$AAi?$AAn?$AA?$AA@ 0000000180046cc0     libcpmt:winapinls.obj
 0002:00001cd0       ??_C@_1M@KBMCINPM@?$AAh?$AAe?$AA?9?$AAi?$AAl?$AA?$AA@ 0000000180046cd0     libcpmt:winapinls.obj
 0002:00001ce0       ??_C@_1M@BBPHKFPJ@?$AAh?$AAi?$AA?9?$AAi?$AAn?$AA?$AA@ 0000000180046ce0     libcpmt:winapinls.obj
 0002:00001cf0       ??_C@_1M@PMBNDPHD@?$AAh?$AAr?$AA?9?$AAb?$AAa?$AA?$AA@ 0000000180046cf0     libcpmt:winapinls.obj
 0002:00001d00       ??_C@_1M@BPCKOEGE@?$AAh?$AAr?$AA?9?$AAh?$AAr?$AA?$AA@ 0000000180046d00     libcpmt:winapinls.obj
 0002:00001d10       ??_C@_1M@GACBMHKE@?$AAh?$AAu?$AA?9?$AAh?$AAu?$AA?$AA@ 0000000180046d10     libcpmt:winapinls.obj
 0002:00001d20       ??_C@_1M@MILPAJJC@?$AAh?$AAy?$AA?9?$AAa?$AAm?$AA?$AA@ 0000000180046d20     libcpmt:winapinls.obj
 0002:00001d30       ??_C@_1M@BABBICEC@?$AAi?$AAd?$AA?9?$AAi?$AAd?$AA?$AA@ 0000000180046d30     libcpmt:winapinls.obj
 0002:00001d40       ??_C@_1M@BIKNHHPF@?$AAi?$AAs?$AA?9?$AAi?$AAs?$AA?$AA@ 0000000180046d40     libcpmt:winapinls.obj
 0002:00001d50       ??_C@_1M@NMPCJPHE@?$AAi?$AAt?$AA?9?$AAc?$AAh?$AA?$AA@ 0000000180046d50     libcpmt:winapinls.obj
 0002:00001d60       ??_C@_1M@GHKGFEDF@?$AAi?$AAt?$AA?9?$AAi?$AAt?$AA?$AA@ 0000000180046d60     libcpmt:winapinls.obj
 0002:00001d70       ??_C@_1M@NIEJCJJA@?$AAj?$AAa?$AA?9?$AAj?$AAp?$AA?$AA@ 0000000180046d70     libcpmt:winapinls.obj
 0002:00001d80       ??_C@_1M@JILFNBIM@?$AAk?$AAa?$AA?9?$AAg?$AAe?$AA?$AA@ 0000000180046d80     libcpmt:winapinls.obj
 0002:00001d90       ??_C@_1M@PACPMGPH@?$AAk?$AAk?$AA?9?$AAk?$AAz?$AA?$AA@ 0000000180046d90     libcpmt:winapinls.obj
 0002:00001da0       ??_C@_1M@IELFGMHA@?$AAk?$AAn?$AA?9?$AAi?$AAn?$AA?$AA@ 0000000180046da0     libcpmt:winapinls.obj
 0002:00001db0       ??_C@_1M@DMHAEOGC@?$AAk?$AAo?$AA?9?$AAk?$AAr?$AA?$AA@ 0000000180046db0     libcpmt:winapinls.obj
 0002:00001dc0       ??_C@_1O@IBBJHCH@?$AAk?$AAo?$AAk?$AA?9?$AAi?$AAn?$AA?$AA@ 0000000180046dc0     libcpmt:winapinls.obj
 0002:00001dd0       ??_C@_1M@HBAHBIGA@?$AAk?$AAy?$AA?9?$AAk?$AAg?$AA?$AA@ 0000000180046dd0     libcpmt:winapinls.obj
 0002:00001de0       ??_C@_1M@KPMILCJG@?$AAl?$AAt?$AA?9?$AAl?$AAt?$AA?$AA@ 0000000180046de0     libcpmt:winapinls.obj
 0002:00001df0       ??_C@_1M@BDEKKCA@?$AAl?$AAv?$AA?9?$AAl?$AAv?$AA?$AA@ 0000000180046df0     libcpmt:winapinls.obj
 0002:00001e00       ??_C@_1M@ELCKCCJJ@?$AAm?$AAi?$AA?9?$AAn?$AAz?$AA?$AA@ 0000000180046e00     libcpmt:winapinls.obj
 0002:00001e10       ??_C@_1M@CBOOLAPA@?$AAm?$AAk?$AA?9?$AAm?$AAk?$AA?$AA@ 0000000180046e10     libcpmt:winapinls.obj
 0002:00001e20       ??_C@_1M@GPHNBJKN@?$AAm?$AAl?$AA?9?$AAi?$AAn?$AA?$AA@ 0000000180046e20     libcpmt:winapinls.obj
 0002:00001e30       ??_C@_1M@PABJILIG@?$AAm?$AAn?$AA?9?$AAm?$AAn?$AA?$AA@ 0000000180046e30     libcpmt:winapinls.obj
 0002:00001e40       ??_C@_1M@FGBKKIPG@?$AAm?$AAr?$AA?9?$AAi?$AAn?$AA?$AA@ 0000000180046e40     libcpmt:winapinls.obj
 0002:00001e50       ??_C@_1M@NDBPDDAL@?$AAm?$AAs?$AA?9?$AAb?$AAn?$AA?$AA@ 0000000180046e50     libcpmt:winapinls.obj
 0002:00001e60       ??_C@_1M@OPIHOOPI@?$AAm?$AAs?$AA?9?$AAm?$AAy?$AA?$AA@ 0000000180046e60     libcpmt:winapinls.obj
 0002:00001e70       ??_C@_1M@PPDBCNFM@?$AAm?$AAt?$AA?9?$AAm?$AAt?$AA?$AA@ 0000000180046e70     libcpmt:winapinls.obj
 0002:00001e80       ??_C@_1M@KDJDKMDD@?$AAn?$AAb?$AA?9?$AAn?$AAo?$AA?$AA@ 0000000180046e80     libcpmt:winapinls.obj
 0002:00001e90       ??_C@_1M@KFCFLMJP@?$AAn?$AAl?$AA?9?$AAb?$AAe?$AA?$AA@ 0000000180046e90     libcpmt:winapinls.obj
 0002:00001ea0       ??_C@_1M@KPOPDDGO@?$AAn?$AAl?$AA?9?$AAn?$AAl?$AA?$AA@ 0000000180046ea0     libcpmt:winapinls.obj
 0002:00001eb0       ??_C@_1M@LJKPEMLN@?$AAn?$AAn?$AA?9?$AAn?$AAo?$AA?$AA@ 0000000180046eb0     libcpmt:winapinls.obj
 0002:00001ec0       ??_C@_1M@BDGHHBFL@?$AAn?$AAs?$AA?9?$AAz?$AAa?$AA?$AA@ 0000000180046ec0     libcpmt:winapinls.obj
 0002:00001ed0       ??_C@_1M@IDEHOAP@?$AAp?$AAa?$AA?9?$AAi?$AAn?$AA?$AA@ 0000000180046ed0     libcpmt:winapinls.obj
 0002:00001ee0       ??_C@_1M@HDBKGOGH@?$AAp?$AAl?$AA?9?$AAp?$AAl?$AA?$AA@ 0000000180046ee0     libcpmt:winapinls.obj
 0002:00001ef0       ??_C@_1M@LJLLCMEH@?$AAp?$AAt?$AA?9?$AAb?$AAr?$AA?$AA@ 0000000180046ef0     libcpmt:winapinls.obj
 0002:00001f00       ??_C@_1M@NCMONAAL@?$AAp?$AAt?$AA?9?$AAp?$AAt?$AA?$AA@ 0000000180046f00     libcpmt:winapinls.obj
 0002:00001f10       ??_C@_1O@EAKMAJDN@?$AAq?$AAu?$AAz?$AA?9?$AAb?$AAo?$AA?$AA@ 0000000180046f10     libcpmt:winapinls.obj
 0002:00001f20       ??_C@_1O@BHHPIGDN@?$AAq?$AAu?$AAz?$AA?9?$AAe?$AAc?$AA?$AA@ 0000000180046f20     libcpmt:winapinls.obj
 0002:00001f30       ??_C@_1O@GBAPEKMJ@?$AAq?$AAu?$AAz?$AA?9?$AAp?$AAe?$AA?$AA@ 0000000180046f30     libcpmt:winapinls.obj
 0002:00001f40       ??_C@_1M@CLGLEFBO@?$AAr?$AAo?$AA?9?$AAr?$AAo?$AA?$AA@ 0000000180046f40     libcpmt:winapinls.obj
 0002:00001f50       ??_C@_1M@CEEDODME@?$AAr?$AAu?$AA?9?$AAr?$AAu?$AA?$AA@ 0000000180046f50     libcpmt:winapinls.obj
 0002:00001f60       ??_C@_1M@HPKKKMPP@?$AAs?$AAa?$AA?9?$AAi?$AAn?$AA?$AA@ 0000000180046f60     libcpmt:winapinls.obj
 0002:00001f70       ??_C@_1M@BKMAIGOJ@?$AAs?$AAe?$AA?9?$AAf?$AAi?$AA?$AA@ 0000000180046f70     libcpmt:winapinls.obj
 0002:00001f80       ??_C@_1M@NDPIFLFI@?$AAs?$AAe?$AA?9?$AAn?$AAo?$AA?$AA@ 0000000180046f80     libcpmt:winapinls.obj
 0002:00001f90       ??_C@_1M@DANKKHJ@?$AAs?$AAe?$AA?9?$AAs?$AAe?$AA?$AA@ 0000000180046f90     libcpmt:winapinls.obj
 0002:00001fa0       ??_C@_1M@PNBLONPJ@?$AAs?$AAk?$AA?9?$AAs?$AAk?$AA?$AA@ 0000000180046fa0     libcpmt:winapinls.obj
 0002:00001fb0       ??_C@_1M@LFMODOAL@?$AAs?$AAl?$AA?9?$AAs?$AAi?$AA?$AA@ 0000000180046fb0     libcpmt:winapinls.obj
 0002:00001fc0       ??_C@_1O@DFKOMPG@?$AAs?$AAm?$AAa?$AA?9?$AAn?$AAo?$AA?$AA@ 0000000180046fc0     libcpmt:winapinls.obj
 0002:00001fd0       ??_C@_1O@NDKPBNNH@?$AAs?$AAm?$AAa?$AA?9?$AAs?$AAe?$AA?$AA@ 0000000180046fd0     libcpmt:winapinls.obj
 0002:00001fe0       ??_C@_1O@PLLKBHAB@?$AAs?$AAm?$AAj?$AA?9?$AAn?$AAo?$AA?$AA@ 0000000180046fe0     libcpmt:winapinls.obj
 0002:00001ff0       ??_C@_1O@CLEPOGCA@?$AAs?$AAm?$AAj?$AA?9?$AAs?$AAe?$AA?$AA@ 0000000180046ff0     libcpmt:winapinls.obj
 0002:00002000       ??_C@_1O@DLGJGKMK@?$AAs?$AAm?$AAn?$AA?9?$AAf?$AAi?$AA?$AA@ 0000000180047000     libcpmt:winapinls.obj
 0002:00002010       ??_C@_1O@OJDJGAJC@?$AAs?$AAm?$AAs?$AA?9?$AAf?$AAi?$AA?$AA@ 0000000180047010     libcpmt:winapinls.obj
 0002:00002020       ??_C@_1M@BOFOGHPB@?$AAs?$AAq?$AA?9?$AAa?$AAl?$AA?$AA@ 0000000180047020     libcpmt:winapinls.obj
 0002:00002030       ??_C@_1BG@LJBBIPGB@?$AAs?$AAr?$AA?9?$AAb?$AAa?$AA?9?$AAc?$AAy?$AAr?$AAl?$AA?$AA@ 0000000180047030     libcpmt:winapinls.obj
 0002:00002048       ??_C@_1BG@JLBENFOE@?$AAs?$AAr?$AA?9?$AAb?$AAa?$AA?9?$AAl?$AAa?$AAt?$AAn?$AA?$AA@ 0000000180047048     libcpmt:winapinls.obj
 0002:00002060       ??_C@_1BG@KODPNHE@?$AAs?$AAr?$AA?9?$AAs?$AAp?$AA?9?$AAc?$AAy?$AAr?$AAl?$AA?$AA@ 0000000180047060     libcpmt:winapinls.obj
 0002:00002078       ??_C@_1BG@CIOGKHPB@?$AAs?$AAr?$AA?9?$AAs?$AAp?$AA?9?$AAl?$AAa?$AAt?$AAn?$AA?$AA@ 0000000180047078     libcpmt:winapinls.obj
 0002:00002090       ??_C@_1M@NGFJLMAC@?$AAs?$AAv?$AA?9?$AAf?$AAi?$AA?$AA@ 0000000180047090     libcpmt:winapinls.obj
 0002:000020a0       ??_C@_1M@MPJEJAJC@?$AAs?$AAv?$AA?9?$AAs?$AAe?$AA?$AA@ 00000001800470a0     libcpmt:winapinls.obj
 0002:000020b0       ??_C@_1M@MPNDHLFK@?$AAs?$AAw?$AA?9?$AAk?$AAe?$AA?$AA@ 00000001800470b0     libcpmt:winapinls.obj
 0002:000020c0       ??_C@_1O@KOHBJJI@?$AAs?$AAy?$AAr?$AA?9?$AAs?$AAy?$AA?$AA@ 00000001800470c0     libcpmt:winapinls.obj
 0002:000020d0       ??_C@_1M@LDCEFHA@?$AAt?$AAa?$AA?9?$AAi?$AAn?$AA?$AA@ 00000001800470d0     libcpmt:winapinls.obj
 0002:000020e0       ??_C@_1M@CNJOFAK@?$AAt?$AAe?$AA?9?$AAi?$AAn?$AA?$AA@ 00000001800470e0     libcpmt:winapinls.obj
 0002:000020f0       ??_C@_1M@GNAECACD@?$AAt?$AAh?$AA?9?$AAt?$AAh?$AA?$AA@ 00000001800470f0     libcpmt:winapinls.obj
 0002:00002100       ??_C@_1M@CHBIHOJO@?$AAt?$AAn?$AA?9?$AAz?$AAa?$AA?$AA@ 0000000180047100     libcpmt:winapinls.obj
 0002:00002110       ??_C@_1M@GCCMIGPJ@?$AAt?$AAr?$AA?9?$AAt?$AAr?$AA?$AA@ 0000000180047110     libcpmt:winapinls.obj
 0002:00002120       ??_C@_1M@CELMCNBK@?$AAt?$AAt?$AA?9?$AAr?$AAu?$AA?$AA@ 0000000180047120     libcpmt:winapinls.obj
 0002:00002130       ??_C@_1M@KLMCELGA@?$AAu?$AAk?$AA?9?$AAu?$AAa?$AA?$AA@ 0000000180047130     libcpmt:winapinls.obj
 0002:00002140       ??_C@_1M@EPAJJAJF@?$AAu?$AAr?$AA?9?$AAp?$AAk?$AA?$AA@ 0000000180047140     libcpmt:winapinls.obj
 0002:00002150       ??_C@_1BG@GEGPMCDJ@?$AAu?$AAz?$AA?9?$AAu?$AAz?$AA?9?$AAc?$AAy?$AAr?$AAl?$AA?$AA@ 0000000180047150     libcpmt:winapinls.obj
 0002:00002168       ??_C@_1BG@EGGKJILM@?$AAu?$AAz?$AA?9?$AAu?$AAz?$AA?9?$AAl?$AAa?$AAt?$AAn?$AA?$AA@ 0000000180047168     libcpmt:winapinls.obj
 0002:00002180       ??_C@_1M@GFOCLFF@?$AAv?$AAi?$AA?9?$AAv?$AAn?$AA?$AA@ 0000000180047180     libcpmt:winapinls.obj
 0002:00002190       ??_C@_1M@CPAMEDFI@?$AAx?$AAh?$AA?9?$AAz?$AAa?$AA?$AA@ 0000000180047190     libcpmt:winapinls.obj
 0002:000021a0       ??_C@_1O@EBKIFIGN@?$AAz?$AAh?$AA?9?$AAc?$AAh?$AAs?$AA?$AA@ 00000001800471a0     libcpmt:winapinls.obj
 0002:000021b0       ??_C@_1O@NMHPGANE@?$AAz?$AAh?$AA?9?$AAc?$AAh?$AAt?$AA?$AA@ 00000001800471b0     libcpmt:winapinls.obj
 0002:000021c0       ??_C@_1M@LPINJOMC@?$AAz?$AAh?$AA?9?$AAc?$AAn?$AA?$AA@ 00000001800471c0     libcpmt:winapinls.obj
 0002:000021d0       ??_C@_1M@OCJEJODD@?$AAz?$AAh?$AA?9?$AAh?$AAk?$AA?$AA@ 00000001800471d0     libcpmt:winapinls.obj
 0002:000021e0       ??_C@_1M@DNDLJINH@?$AAz?$AAh?$AA?9?$AAm?$AAo?$AA?$AA@ 00000001800471e0     libcpmt:winapinls.obj
 0002:000021f0       ??_C@_1M@MBFDNDND@?$AAz?$AAh?$AA?9?$AAs?$AAg?$AA?$AA@ 00000001800471f0     libcpmt:winapinls.obj
 0002:00002200       ??_C@_1M@IMEPLEPE@?$AAz?$AAh?$AA?9?$AAt?$AAw?$AA?$AA@ 0000000180047200     libcpmt:winapinls.obj
 0002:00002210       ??_C@_1M@BBGHNHJP@?$AAz?$AAu?$AA?9?$AAz?$AAa?$AA?$AA@ 0000000180047210     libcpmt:winapinls.obj
 0002:00003ea0       ??_C@_15EMKDOKLE@?$AAa?$AAr?$AA?$AA@ 0000000180048ea0     libcpmt:winapinls.obj
 0002:00003ea8       ??_C@_15KNPADPLH@?$AAb?$AAg?$AA?$AA@ 0000000180048ea8     libcpmt:winapinls.obj
 0002:00003eb0       ??_C@_15EDMHLDMO@?$AAc?$AAa?$AA?$AA@ 0000000180048eb0     libcpmt:winapinls.obj
 0002:00003eb8       ??_C@_1O@BPEAJADD@?$AAz?$AAh?$AA?9?$AAC?$AAH?$AAS?$AA?$AA@ 0000000180048eb8     libcpmt:winapinls.obj
 0002:00003ec8       ??_C@_15LJNHCMNK@?$AAc?$AAs?$AA?$AA@ 0000000180048ec8     libcpmt:winapinls.obj
 0002:00003ed0       ??_C@_15FOMCIDHG@?$AAd?$AAa?$AA?$AA@ 0000000180048ed0     libcpmt:winapinls.obj
 0002:00003ed8       ??_C@_15NBKABECB@?$AAd?$AAe?$AA?$AA@ 0000000180048ed8     libcpmt:winapinls.obj
 0002:00003ee0       ??_C@_15GHPEIIAO@?$AAe?$AAl?$AA?$AA@ 0000000180048ee0     libcpmt:winapinls.obj
 0002:00003ee8       ??_C@_15MNPNEAIF@?$AAe?$AAn?$AA?$AA@ 0000000180048ee8     libcpmt:winapinls.obj
 0002:00003ef0       ??_C@_15GPIOMPMH@?$AAe?$AAs?$AA?$AA@ 0000000180048ef0     libcpmt:winapinls.obj
 0002:00003ef8       ??_C@_15NGLOAKJC@?$AAf?$AAi?$AA?$AA@ 0000000180048ef8     libcpmt:winapinls.obj
 0002:00003f00       ??_C@_15FBKGNKAM@?$AAf?$AAr?$AA?$AA@ 0000000180048f00     libcpmt:winapinls.obj
 0002:00003f08       ??_C@_15KGGCNEFK@?$AAh?$AAe?$AA?$AA@ 0000000180048f08     libcpmt:winapinls.obj
 0002:00003f10       ??_C@_15PGHLIDMF@?$AAh?$AAu?$AA?$AA@ 0000000180048f10     libcpmt:winapinls.obj
 0002:00003f18       ??_C@_15BIEMAPLM@?$AAi?$AAs?$AA?$AA@ 0000000180048f18     libcpmt:winapinls.obj
 0002:00003f20       ??_C@_15IFJLDHAF@?$AAi?$AAt?$AA?$AA@ 0000000180048f20     libcpmt:winapinls.obj
 0002:00003f28       ??_C@_15GEMIOCAG@?$AAj?$AAa?$AA?$AA@ 0000000180048f28     libcpmt:winapinls.obj
 0002:00003f30       ??_C@_15EPELEGJA@?$AAk?$AAo?$AA?$AA@ 0000000180048f30     libcpmt:winapinls.obj
 0002:00003f38       ??_C@_15NDDHIMN@?$AAn?$AAl?$AA?$AA@ 0000000180048f38     libcpmt:winapinls.obj
 0002:00003f40       ??_C@_15BPIGNHCD@?$AAn?$AAo?$AA?$AA@ 0000000180048f40     libcpmt:winapinls.obj
 0002:00003f48       ??_C@_15DEOPBLCG@?$AAp?$AAl?$AA?$AA@ 0000000180048f48     libcpmt:winapinls.obj
 0002:00003f50       ??_C@_15KBECGEFG@?$AAp?$AAt?$AA?$AA@ 0000000180048f50     libcpmt:winapinls.obj
 0002:00003f58       ??_C@_15GLJCBFMD@?$AAr?$AAo?$AA?$AA@ 0000000180048f58     libcpmt:winapinls.obj
 0002:00003f60       ??_C@_15FEDGKCDI@?$AAr?$AAu?$AA?$AA@ 0000000180048f60     libcpmt:winapinls.obj
 0002:00003f68       ??_C@_15GLKMLLHM@?$AAh?$AAr?$AA?$AA@ 0000000180048f68     libcpmt:winapinls.obj
 0002:00003f70       ??_C@_15CPKMFBDB@?$AAs?$AAk?$AA?$AA@ 0000000180048f70     libcpmt:winapinls.obj
 0002:00003f78       ??_C@_15BAAIOGMK@?$AAs?$AAq?$AA?$AA@ 0000000180048f78     libcpmt:winapinls.obj
 0002:00003f80       ??_C@_15INNPNOHD@?$AAs?$AAv?$AA?$AA@ 0000000180048f80     libcpmt:winapinls.obj
 0002:00003f88       ??_C@_15CABMMOGH@?$AAt?$AAh?$AA?$AA@ 0000000180048f88     libcpmt:winapinls.obj
 0002:00003f90       ??_C@_15BPLIHJJM@?$AAt?$AAr?$AA?$AA@ 0000000180048f90     libcpmt:winapinls.obj
 0002:00003f98       ??_C@_15NEOEKKDJ@?$AAu?$AAr?$AA?$AA@ 0000000180048f98     libcpmt:winapinls.obj
 0002:00003fa0       ??_C@_15NFICGAJK@?$AAi?$AAd?$AA?$AA@ 0000000180048fa0     libcpmt:winapinls.obj
 0002:00003fa8       ??_C@_15PJPFLCCM@?$AAu?$AAk?$AA?$AA@ 0000000180048fa8     libcpmt:winapinls.obj
 0002:00003fb0       ??_C@_15HPJPHDM@?$AAb?$AAe?$AA?$AA@ 0000000180048fb0     libcpmt:winapinls.obj
 0002:00003fb8       ??_C@_15LCHLGJII@?$AAs?$AAl?$AA?$AA@ 0000000180048fb8     libcpmt:winapinls.obj
 0002:00003fc0       ??_C@_15PCFJPHHO@?$AAe?$AAt?$AA?$AA@ 0000000180048fc0     libcpmt:winapinls.obj
 0002:00003fc8       ??_C@_15HPFPGODN@?$AAl?$AAv?$AA?$AA@ 0000000180048fc8     libcpmt:winapinls.obj
 0002:00003fd0       ??_C@_15NFFGKGLG@?$AAl?$AAt?$AA?$AA@ 0000000180048fd0     libcpmt:winapinls.obj
 0002:00003fd8       ??_C@_15BDAKCCHN@?$AAf?$AAa?$AA?$AA@ 0000000180048fd8     libcpmt:winapinls.obj
 0002:00003fe0       ??_C@_15NFGIAIAJ@?$AAv?$AAi?$AA?$AA@ 0000000180048fe0     libcpmt:winapinls.obj
 0002:00003fe8       ??_C@_15LMKNDMHN@?$AAh?$AAy?$AA?$AA@ 0000000180048fe8     libcpmt:winapinls.obj
 0002:00003ff0       ??_C@_15IJBHMCFL@?$AAa?$AAz?$AA?$AA@ 0000000180048ff0     libcpmt:winapinls.obj
 0002:00003ff8       ??_C@_15EKOFJABL@?$AAe?$AAu?$AA?$AA@ 0000000180048ff8     libcpmt:winapinls.obj
 0002:00004000       ??_C@_15BGHADCNK@?$AAm?$AAk?$AA?$AA@ 0000000180049000     libcpmt:winapinls.obj
 0002:00004008       ??_C@_15JDNICKHM@?$AAa?$AAf?$AA?$AA@ 0000000180049008     libcpmt:winapinls.obj
 0002:00004010       ??_C@_15KPJEDBKD@?$AAk?$AAa?$AA?$AA@ 0000000180049010     libcpmt:winapinls.obj
 0002:00004018       ??_C@_15PDNFFFEO@?$AAf?$AAo?$AA?$AA@ 0000000180049018     libcpmt:winapinls.obj
 0002:00004020       ??_C@_15OMLEGLOC@?$AAh?$AAi?$AA?$AA@ 0000000180049020     libcpmt:winapinls.obj
 0002:00004028       ??_C@_15IDNNENKK@?$AAm?$AAs?$AA?$AA@ 0000000180049028     libcpmt:winapinls.obj
 0002:00004030       ??_C@_15MACJNBMH@?$AAk?$AAk?$AA?$AA@ 0000000180049030     libcpmt:winapinls.obj
 0002:00004038       ??_C@_15DKDJEOND@?$AAk?$AAy?$AA?$AA@ 0000000180049038     libcpmt:winapinls.obj
 0002:00004040       ??_C@_15DFGDLJBG@?$AAs?$AAw?$AA?$AA@ 0000000180049040     libcpmt:winapinls.obj
 0002:00004048       ??_C@_15BBFAICNG@?$AAu?$AAz?$AA?$AA@ 0000000180049048     libcpmt:winapinls.obj
 0002:00004050       ??_C@_15DKNDCGEA@?$AAt?$AAt?$AA?$AA@ 0000000180049050     libcpmt:winapinls.obj
 0002:00004058       ??_C@_15MGIFMDPL@?$AAp?$AAa?$AA?$AA@ 0000000180049058     libcpmt:winapinls.obj
 0002:00004060       ??_C@_15HCNDBBA@?$AAg?$AAu?$AA?$AA@ 0000000180049060     libcpmt:winapinls.obj
 0002:00004068       ??_C@_15FNBEIBON@?$AAt?$AAa?$AA?$AA@ 0000000180049068     libcpmt:winapinls.obj
 0002:00004070       ??_C@_15NCHGBGLK@?$AAt?$AAe?$AA?$AA@ 0000000180049070     libcpmt:winapinls.obj
 0002:00004078       ??_C@_15PHPHCBPF@?$AAk?$AAn?$AA?$AA@ 0000000180049078     libcpmt:winapinls.obj
 0002:00004080       ??_C@_15DLGBCKMP@?$AAm?$AAr?$AA?$AA@ 0000000180049080     libcpmt:winapinls.obj
 0002:00004088       ??_C@_15EABBLBFF@?$AAs?$AAa?$AA?$AA@ 0000000180049088     libcpmt:winapinls.obj
 0002:00004090       ??_C@_15CBKOMCOI@?$AAm?$AAn?$AA?$AA@ 0000000180049090     libcpmt:winapinls.obj
 0002:00004098       ??_C@_15CKDMCJAF@?$AAg?$AAl?$AA?$AA@ 0000000180049098     libcpmt:winapinls.obj
 0002:000040a0       ??_C@_17CNJFBPG@?$AAk?$AAo?$AAk?$AA?$AA@ 00000001800490a0     libcpmt:winapinls.obj
 0002:000040a8       ??_C@_17FFBJICPL@?$AAs?$AAy?$AAr?$AA?$AA@ 00000001800490a8     libcpmt:winapinls.obj
 0002:000040b0       ??_C@_17KPNDCPAF@?$AAd?$AAi?$AAv?$AA?$AA@ 00000001800490b0     libcpmt:winapinls.obj
 0002:000040b8       ??_C@_1M@OKAHONE@?$AAa?$AAr?$AA?9?$AAS?$AAA?$AA?$AA@ 00000001800490b8     libcpmt:winapinls.obj
 0002:000040c8       ??_C@_1M@FFFIGIGK@?$AAb?$AAg?$AA?9?$AAB?$AAG?$AA?$AA@ 00000001800490c8     libcpmt:winapinls.obj
 0002:000040d8       ??_C@_1M@BJNKEDC@?$AAc?$AAa?$AA?9?$AAE?$AAS?$AA?$AA@ 00000001800490d8     libcpmt:winapinls.obj
 0002:000040e8       ??_C@_1M@CLNBBOPM@?$AAz?$AAh?$AA?9?$AAT?$AAW?$AA?$AA@ 00000001800490e8     libcpmt:winapinls.obj
 0002:000040f8       ??_C@_1M@IJJHFJHA@?$AAc?$AAs?$AA?9?$AAC?$AAZ?$AA?$AA@ 00000001800490f8     libcpmt:winapinls.obj
 0002:00004108       ??_C@_1M@CLPEOBGI@?$AAd?$AAa?$AA?9?$AAD?$AAK?$AA?$AA@ 0000000180049108     libcpmt:winapinls.obj
 0002:00004118       ??_C@_1M@MCMADGCB@?$AAd?$AAe?$AA?9?$AAD?$AAE?$AA?$AA@ 0000000180049118     libcpmt:winapinls.obj
 0002:00004128       ??_C@_1M@OOCKEMAM@?$AAe?$AAl?$AA?9?$AAG?$AAR?$AA?$AA@ 0000000180049128     libcpmt:winapinls.obj
 0002:00004138       ??_C@_1M@BMHNFIME@?$AAe?$AAn?$AA?9?$AAU?$AAS?$AA?$AA@ 0000000180049138     libcpmt:winapinls.obj
 0002:00004148       ??_C@_1M@DDNJFGID@?$AAf?$AAi?$AA?9?$AAF?$AAI?$AA?$AA@ 0000000180049148     libcpmt:winapinls.obj
 0002:00004158       ??_C@_1M@GLIPPMAC@?$AAf?$AAr?$AA?9?$AAF?$AAR?$AA?$AA@ 0000000180049158     libcpmt:winapinls.obj
 0002:00004168       ??_C@_1M@GFMCHPE@?$AAh?$AAe?$AA?9?$AAI?$AAL?$AA?$AA@ 0000000180049168     libcpmt:winapinls.obj
 0002:00004178       ??_C@_1M@MHLPGNKM@?$AAh?$AAu?$AA?9?$AAH?$AAU?$AA?$AA@ 0000000180049178     libcpmt:winapinls.obj
 0002:00004188       ??_C@_1M@LPDDNNPN@?$AAi?$AAs?$AA?9?$AAI?$AAS?$AA?$AA@ 0000000180049188     libcpmt:winapinls.obj
 0002:00004198       ??_C@_1M@MADIPODN@?$AAi?$AAt?$AA?9?$AAI?$AAT?$AA?$AA@ 0000000180049198     libcpmt:winapinls.obj
 0002:000041a8       ??_C@_1M@HPNHIDJI@?$AAj?$AAa?$AA?9?$AAJ?$AAP?$AA?$AA@ 00000001800491a8     libcpmt:winapinls.obj
 0002:000041b8       ??_C@_1M@JLOOOEGK@?$AAk?$AAo?$AA?9?$AAK?$AAR?$AA?$AA@ 00000001800491b8     libcpmt:winapinls.obj
 0002:000041c8       ??_C@_1M@IHBJJGG@?$AAn?$AAl?$AA?9?$AAN?$AAL?$AA?$AA@ 00000001800491c8     libcpmt:winapinls.obj
 0002:000041d8       ??_C@_1M@EANAGDL@?$AAn?$AAb?$AA?9?$AAN?$AAO?$AA?$AA@ 00000001800491d8     libcpmt:winapinls.obj
 0002:000041e8       ??_C@_1M@NEIEMEGP@?$AAp?$AAl?$AA?9?$AAP?$AAL?$AA?$AA@ 00000001800491e8     libcpmt:winapinls.obj
 0002:000041f8       ??_C@_1M@BOCFIGEP@?$AAp?$AAt?$AA?9?$AAB?$AAR?$AA?$AA@ 00000001800491f8     libcpmt:winapinls.obj
 0002:00004208       ??_C@_1M@IMPFOPBG@?$AAr?$AAo?$AA?9?$AAR?$AAO?$AA?$AA@ 0000000180049208     libcpmt:winapinls.obj
 0002:00004218       ??_C@_1M@IDNNEJMM@?$AAr?$AAu?$AA?9?$AAR?$AAU?$AA?$AA@ 0000000180049218     libcpmt:winapinls.obj
 0002:00004228       ??_C@_1M@LILEEOGM@?$AAh?$AAr?$AA?9?$AAH?$AAR?$AA?$AA@ 0000000180049228     libcpmt:winapinls.obj
 0002:00004238       ??_C@_1M@FKIFEHPB@?$AAs?$AAk?$AA?9?$AAS?$AAK?$AA?$AA@ 0000000180049238     libcpmt:winapinls.obj
 0002:00004248       ??_C@_1M@LJMAMNPJ@?$AAs?$AAq?$AA?9?$AAA?$AAL?$AA?$AA@ 0000000180049248     libcpmt:winapinls.obj
 0002:00004258       ??_C@_1M@GIAKDKJK@?$AAs?$AAv?$AA?9?$AAS?$AAE?$AA?$AA@ 0000000180049258     libcpmt:winapinls.obj
 0002:00004268       ??_C@_1M@MKJKIKCL@?$AAt?$AAh?$AA?9?$AAT?$AAH?$AA?$AA@ 0000000180049268     libcpmt:winapinls.obj
 0002:00004278       ??_C@_1M@MFLCCMPB@?$AAt?$AAr?$AA?9?$AAT?$AAR?$AA?$AA@ 0000000180049278     libcpmt:winapinls.obj
 0002:00004288       ??_C@_1M@OIJHDKJN@?$AAu?$AAr?$AA?9?$AAP?$AAK?$AA?$AA@ 0000000180049288     libcpmt:winapinls.obj
 0002:00004298       ??_C@_1M@LHIPCIEK@?$AAi?$AAd?$AA?9?$AAI?$AAD?$AA?$AA@ 0000000180049298     libcpmt:winapinls.obj
 0002:000042a8       ??_C@_1M@MFMOBGI@?$AAu?$AAk?$AA?9?$AAU?$AAA?$AA?$AA@ 00000001800492a8     libcpmt:winapinls.obj
 0002:000042b8       ??_C@_1M@OBGLJIPL@?$AAb?$AAe?$AA?9?$AAB?$AAY?$AA?$AA@ 00000001800492b8     libcpmt:winapinls.obj
 0002:000042c8       ??_C@_1M@BCFAJEAD@?$AAs?$AAl?$AA?9?$AAS?$AAI?$AA?$AA@ 00000001800492c8     libcpmt:winapinls.obj
 0002:000042d8       ??_C@_1M@FKFFEDDN@?$AAe?$AAt?$AA?9?$AAE?$AAE?$AA?$AA@ 00000001800492d8     libcpmt:winapinls.obj
 0002:000042e8       ??_C@_1M@KGKKAACI@?$AAl?$AAv?$AA?9?$AAL?$AAV?$AA?$AA@ 00000001800492e8     libcpmt:winapinls.obj
 0002:000042f8       ??_C@_1M@IFGBIJO@?$AAl?$AAt?$AA?9?$AAL?$AAT?$AA?$AA@ 00000001800492f8     libcpmt:winapinls.obj
 0002:00004308       ??_C@_1M@FGEAHEDM@?$AAf?$AAa?$AA?9?$AAI?$AAR?$AA?$AA@ 0000000180049308     libcpmt:winapinls.obj
 0002:00004318       ??_C@_1M@KBMAIBFN@?$AAv?$AAi?$AA?9?$AAV?$AAN?$AA?$AA@ 0000000180049318     libcpmt:winapinls.obj
 0002:00004328       ??_C@_1M@GPCBKDJK@?$AAh?$AAy?$AA?9?$AAA?$AAM?$AA?$AA@ 0000000180049328     libcpmt:winapinls.obj
 0002:00004338       ??_C@_1BG@BECMDDJB@?$AAa?$AAz?$AA?9?$AAA?$AAZ?$AA?9?$AAL?$AAa?$AAt?$AAn?$AA?$AA@ 0000000180049338     libcpmt:winapinls.obj
 0002:00004350       ??_C@_1M@MAOFCAEA@?$AAe?$AAu?$AA?9?$AAE?$AAS?$AA?$AA@ 0000000180049350     libcpmt:winapinls.obj
 0002:00004360       ??_C@_1M@IGHABKPI@?$AAm?$AAk?$AA?9?$AAM?$AAK?$AA?$AA@ 0000000180049360     libcpmt:winapinls.obj
 0002:00004370       ??_C@_1M@IAIGNEJG@?$AAt?$AAn?$AA?9?$AAZ?$AAA?$AA?$AA@ 0000000180049370     libcpmt:winapinls.obj
 0002:00004380       ??_C@_1M@IIJCOJFA@?$AAx?$AAh?$AA?9?$AAZ?$AAA?$AA?$AA@ 0000000180049380     libcpmt:winapinls.obj
 0002:00004390       ??_C@_1M@LGPJHNJH@?$AAz?$AAu?$AA?9?$AAZ?$AAA?$AA?$AA@ 0000000180049390     libcpmt:winapinls.obj
 0002:000043a0       ??_C@_1M@HOKAOIO@?$AAa?$AAf?$AA?9?$AAZ?$AAA?$AA?$AA@ 00000001800493a0     libcpmt:winapinls.obj
 0002:000043b0       ??_C@_1M@DPCLHLIE@?$AAk?$AAa?$AA?9?$AAG?$AAE?$AA?$AA@ 00000001800493b0     libcpmt:winapinls.obj
 0002:000043c0       ??_C@_1M@BLKMHJBI@?$AAf?$AAo?$AA?9?$AAF?$AAO?$AA?$AA@ 00000001800493c0     libcpmt:winapinls.obj
 0002:000043d0       ??_C@_1M@LGGJAPPB@?$AAh?$AAi?$AA?9?$AAI?$AAN?$AA?$AA@ 00000001800493d0     libcpmt:winapinls.obj
 0002:000043e0       ??_C@_1M@FIKPIHFE@?$AAm?$AAt?$AA?9?$AAM?$AAT?$AA?$AA@ 00000001800493e0     libcpmt:winapinls.obj
 0002:000043f0       ??_C@_1M@HEGGPBFA@?$AAs?$AAe?$AA?9?$AAN?$AAO?$AA?$AA@ 00000001800493f0     libcpmt:winapinls.obj
 0002:00004400       ??_C@_1M@EIBJEEPA@?$AAm?$AAs?$AA?9?$AAM?$AAY?$AA?$AA@ 0000000180049400     libcpmt:winapinls.obj
 0002:00004410       ??_C@_1M@FHLBGMPP@?$AAk?$AAk?$AA?9?$AAK?$AAZ?$AA?$AA@ 0000000180049410     libcpmt:winapinls.obj
 0002:00004420       ??_C@_1M@NGJJLCGI@?$AAk?$AAy?$AA?9?$AAK?$AAG?$AA?$AA@ 0000000180049420     libcpmt:winapinls.obj
 0002:00004430       ??_C@_1M@GIENNBFC@?$AAs?$AAw?$AA?9?$AAK?$AAE?$AA?$AA@ 0000000180049430     libcpmt:winapinls.obj
 0002:00004440       ??_C@_1BG@NDGMJIMJ@?$AAu?$AAz?$AA?9?$AAU?$AAZ?$AA?9?$AAL?$AAa?$AAt?$AAn?$AA?$AA@ 0000000180049440     libcpmt:winapinls.obj
 0002:00004458       ??_C@_1M@IDCCIHBC@?$AAt?$AAt?$AA?9?$AAR?$AAU?$AA?$AA@ 0000000180049458     libcpmt:winapinls.obj
 0002:00004468       ??_C@_1M@LOICPMOJ@?$AAb?$AAn?$AA?9?$AAI?$AAN?$AA?$AA@ 0000000180049468     libcpmt:winapinls.obj
 0002:00004478       ??_C@_1M@KPKKNEAH@?$AAp?$AAa?$AA?9?$AAI?$AAN?$AA?$AA@ 0000000180049478     libcpmt:winapinls.obj
 0002:00004488       ??_C@_1M@PJGPPBOG@?$AAg?$AAu?$AA?9?$AAI?$AAN?$AA?$AA@ 0000000180049488     libcpmt:winapinls.obj
 0002:00004498       ??_C@_1M@KMKMOPHI@?$AAt?$AAa?$AA?9?$AAI?$AAN?$AA?$AA@ 0000000180049498     libcpmt:winapinls.obj
 0002:000044a8       ??_C@_1M@KFEHEPAC@?$AAt?$AAe?$AA?9?$AAI?$AAN?$AA?$AA@ 00000001800494a8     libcpmt:winapinls.obj
 0002:000044b8       ??_C@_1M@CDCLMGHI@?$AAk?$AAn?$AA?9?$AAI?$AAN?$AA?$AA@ 00000001800494b8     libcpmt:winapinls.obj
 0002:000044c8       ??_C@_1M@MIODLDKF@?$AAm?$AAl?$AA?9?$AAI?$AAN?$AA?$AA@ 00000001800494c8     libcpmt:winapinls.obj
 0002:000044d8       ??_C@_1M@PBIEACPO@?$AAm?$AAr?$AA?9?$AAI?$AAN?$AA?$AA@ 00000001800494d8     libcpmt:winapinls.obj
 0002:000044e8       ??_C@_1M@NIDEAGPH@?$AAs?$AAa?$AA?9?$AAI?$AAN?$AA?$AA@ 00000001800494e8     libcpmt:winapinls.obj
 0002:000044f8       ??_C@_1M@FHIHCBIO@?$AAm?$AAn?$AA?9?$AAM?$AAN?$AA?$AA@ 00000001800494f8     libcpmt:winapinls.obj
 0002:00004508       ??_C@_1M@JAIJPENP@?$AAc?$AAy?$AA?9?$AAG?$AAB?$AA?$AA@ 0000000180049508     libcpmt:winapinls.obj
 0002:00004518       ??_C@_1M@PHGFBEPN@?$AAg?$AAl?$AA?9?$AAE?$AAS?$AA?$AA@ 0000000180049518     libcpmt:winapinls.obj
 0002:00004528       ??_C@_1O@KPIPDNCP@?$AAk?$AAo?$AAk?$AA?9?$AAI?$AAN?$AA?$AA@ 0000000180049528     libcpmt:winapinls.obj
 0002:00004538       ??_C@_1O@KNHJLDJA@?$AAs?$AAy?$AAr?$AA?9?$AAS?$AAY?$AA?$AA@ 0000000180049538     libcpmt:winapinls.obj
 0002:00004548       ??_C@_1O@MKEKBLAH@?$AAd?$AAi?$AAv?$AA?9?$AAM?$AAV?$AA?$AA@ 0000000180049548     libcpmt:winapinls.obj
 0002:00004558       ??_C@_1O@OHDCKDDF@?$AAq?$AAu?$AAz?$AA?9?$AAB?$AAO?$AA?$AA@ 0000000180049558     libcpmt:winapinls.obj
 0002:00004568       ??_C@_1M@LEPJNLFD@?$AAn?$AAs?$AA?9?$AAZ?$AAA?$AA?$AA@ 0000000180049568     libcpmt:winapinls.obj
 0002:00004578       ??_C@_1M@OMLEIIJB@?$AAm?$AAi?$AA?9?$AAN?$AAZ?$AA?$AA@ 0000000180049578     libcpmt:winapinls.obj
 0002:00004588       ??_C@_1M@PMPEAILG@?$AAa?$AAr?$AA?9?$AAI?$AAQ?$AA?$AA@ 0000000180049588     libcpmt:winapinls.obj
 0002:00004598       ??_C@_1M@BIBDDEMK@?$AAz?$AAh?$AA?9?$AAC?$AAN?$AA?$AA@ 0000000180049598     libcpmt:winapinls.obj
 0002:000045a8       ??_C@_1M@CNKPNOEE@?$AAd?$AAe?$AA?9?$AAC?$AAH?$AA?$AA@ 00000001800495a8     libcpmt:winapinls.obj
 0002:000045b8       ??_C@_1M@LKMGMLKO@?$AAe?$AAn?$AA?9?$AAG?$AAB?$AA?$AA@ 00000001800495b8     libcpmt:winapinls.obj
 0002:000045c8       ??_C@_1M@PGKJFFGL@?$AAe?$AAs?$AA?9?$AAM?$AAX?$AA?$AA@ 00000001800495c8     libcpmt:winapinls.obj
 0002:000045d8       ??_C@_1M@DNNANBDC@?$AAf?$AAr?$AA?9?$AAB?$AAE?$AA?$AA@ 00000001800495d8     libcpmt:winapinls.obj
 0002:000045e8       ??_C@_1M@HLGMDFHM@?$AAi?$AAt?$AA?9?$AAC?$AAH?$AA?$AA@ 00000001800495e8     libcpmt:winapinls.obj
 0002:000045f8       ??_C@_1M@CLLBGJH@?$AAn?$AAl?$AA?9?$AAB?$AAE?$AA?$AA@ 00000001800495f8     libcpmt:winapinls.obj
 0002:00004608       ??_C@_1M@BODBOGLF@?$AAn?$AAn?$AA?9?$AAN?$AAO?$AA?$AA@ 0000000180049608     libcpmt:winapinls.obj
 0002:00004618       ??_C@_1M@HFFAHKAD@?$AAp?$AAt?$AA?9?$AAP?$AAT?$AA?$AA@ 0000000180049618     libcpmt:winapinls.obj
 0002:00004628       ??_C@_1BG@LNOAKHIE@?$AAs?$AAr?$AA?9?$AAS?$AAP?$AA?9?$AAL?$AAa?$AAt?$AAn?$AA?$AA@ 0000000180049628     libcpmt:winapinls.obj
 0002:00004640       ??_C@_1M@HBMHBGAK@?$AAs?$AAv?$AA?9?$AAF?$AAI?$AA?$AA@ 0000000180049640     libcpmt:winapinls.obj
 0002:00004650       ??_C@_1BG@DGCJGJBE@?$AAa?$AAz?$AA?9?$AAA?$AAZ?$AA?9?$AAC?$AAy?$AAr?$AAl?$AA?$AA@ 0000000180049650     libcpmt:winapinls.obj
 0002:00004668       ??_C@_1M@KEJDAAHB@?$AAs?$AAe?$AA?9?$AAS?$AAE?$AA?$AA@ 0000000180049668     libcpmt:winapinls.obj
 0002:00004678       ??_C@_1M@HEIBJJAD@?$AAm?$AAs?$AA?9?$AAB?$AAN?$AA?$AA@ 0000000180049678     libcpmt:winapinls.obj
 0002:00004688       ??_C@_1BG@PBGJMCEM@?$AAu?$AAz?$AA?9?$AAU?$AAZ?$AA?9?$AAC?$AAy?$AAr?$AAl?$AA?$AA@ 0000000180049688     libcpmt:winapinls.obj
 0002:000046a0       ??_C@_1O@LAOBCMDF@?$AAq?$AAu?$AAz?$AA?9?$AAE?$AAC?$AA?$AA@ 00000001800496a0     libcpmt:winapinls.obj
 0002:000046b0       ??_C@_1M@POEEMAIO@?$AAa?$AAr?$AA?9?$AAE?$AAG?$AA?$AA@ 00000001800496b0     libcpmt:winapinls.obj
 0002:000046c0       ??_C@_1M@EFAKDEDL@?$AAz?$AAh?$AA?9?$AAH?$AAK?$AA?$AA@ 00000001800496c0     libcpmt:winapinls.obj
 0002:000046d0       ??_C@_1M@HKKIJHGI@?$AAd?$AAe?$AA?9?$AAA?$AAT?$AA?$AA@ 00000001800496d0     libcpmt:winapinls.obj
 0002:000046e0       ??_C@_1M@KBFBEHJF@?$AAe?$AAn?$AA?9?$AAA?$AAU?$AA?$AA@ 00000001800496e0     libcpmt:winapinls.obj
 0002:000046f0       ??_C@_1M@MNPLFAAH@?$AAe?$AAs?$AA?9?$AAE?$AAS?$AA?$AA@ 00000001800496f0     libcpmt:winapinls.obj
 0002:00004700       ??_C@_1M@HJOOJFMA@?$AAf?$AAr?$AA?9?$AAC?$AAA?$AA?$AA@ 0000000180049700     libcpmt:winapinls.obj
 0002:00004710       ??_C@_1BG@JPOFPNAB@?$AAs?$AAr?$AA?9?$AAS?$AAP?$AA?9?$AAC?$AAy?$AAr?$AAl?$AA?$AA@ 0000000180049710     libcpmt:winapinls.obj
 0002:00004728       ??_C@_1M@LNFOCMOB@?$AAs?$AAe?$AA?9?$AAF?$AAI?$AA?$AA@ 0000000180049728     libcpmt:winapinls.obj
 0002:00004738       ??_C@_1O@MGJBOAMB@?$AAq?$AAu?$AAz?$AA?9?$AAP?$AAE?$AA?$AA@ 0000000180049738     libcpmt:winapinls.obj
 0002:00004748       ??_C@_1M@GJINLBOK@?$AAa?$AAr?$AA?9?$AAL?$AAY?$AA?$AA@ 0000000180049748     libcpmt:winapinls.obj
 0002:00004758       ??_C@_1M@GGMNHJNL@?$AAz?$AAh?$AA?9?$AAS?$AAG?$AA?$AA@ 0000000180049758     libcpmt:winapinls.obj
 0002:00004768       ??_C@_1M@HOIKODND@?$AAd?$AAe?$AA?9?$AAL?$AAU?$AA?$AA@ 0000000180049768     libcpmt:winapinls.obj
 0002:00004778       ??_C@_1M@DDOCCGFG@?$AAe?$AAn?$AA?9?$AAC?$AAA?$AA?$AA@ 0000000180049778     libcpmt:winapinls.obj
 0002:00004788       ??_C@_1M@BNOEMJLF@?$AAe?$AAs?$AA?9?$AAG?$AAT?$AA?$AA@ 0000000180049788     libcpmt:winapinls.obj
 0002:00004798       ??_C@_1M@EOGNKEK@?$AAf?$AAr?$AA?9?$AAC?$AAH?$AA?$AA@ 0000000180049798     libcpmt:winapinls.obj
 0002:000047a8       ??_C@_1M@FLIDJFHL@?$AAh?$AAr?$AA?9?$AAB?$AAA?$AA?$AA@ 00000001800497a8     libcpmt:winapinls.obj
 0002:000047b8       ??_C@_1O@FMCELNAJ@?$AAs?$AAm?$AAj?$AA?9?$AAN?$AAO?$AA?$AA@ 00000001800497b8     libcpmt:winapinls.obj
 0002:000047c8       ??_C@_1M@JHGLJMGJ@?$AAa?$AAr?$AA?9?$AAD?$AAZ?$AA?$AA@ 00000001800497c8     libcpmt:winapinls.obj
 0002:000047d8       ??_C@_1M@JKKFDCNP@?$AAz?$AAh?$AA?9?$AAM?$AAO?$AA?$AA@ 00000001800497d8     libcpmt:winapinls.obj
 0002:000047e8       ??_C@_1M@GEEFALPE@?$AAd?$AAe?$AA?9?$AAL?$AAI?$AA?$AA@ 00000001800497e8     libcpmt:winapinls.obj
 0002:000047f8       ??_C@_1M@IGEOFBG@?$AAe?$AAn?$AA?9?$AAN?$AAZ?$AA?$AA@ 00000001800497f8     libcpmt:winapinls.obj
 0002:00004808       ??_C@_1M@KDBONEHP@?$AAe?$AAs?$AA?9?$AAC?$AAR?$AA?$AA@ 0000000180049808     libcpmt:winapinls.obj
 0002:00004818       ??_C@_1M@FHMDOHNN@?$AAf?$AAr?$AA?9?$AAL?$AAU?$AA?$AA@ 0000000180049818     libcpmt:winapinls.obj
 0002:00004828       ??_C@_1BG@NFKKMAFG@?$AAb?$AAs?$AA?9?$AAB?$AAA?$AA?9?$AAL?$AAa?$AAt?$AAn?$AA?$AA@ 0000000180049828     libcpmt:winapinls.obj
 0002:00004840       ??_C@_1O@IMNBEMCI@?$AAs?$AAm?$AAj?$AA?9?$AAS?$AAE?$AA?$AA@ 0000000180049840     libcpmt:winapinls.obj
 0002:00004850       ??_C@_1M@DHHMBNDP@?$AAa?$AAr?$AA?9?$AAM?$AAA?$AA?$AA@ 0000000180049850     libcpmt:winapinls.obj
 0002:00004860       ??_C@_1M@BNBLJCGH@?$AAe?$AAn?$AA?9?$AAI?$AAE?$AA?$AA@ 0000000180049860     libcpmt:winapinls.obj
 0002:00004870       ??_C@_1M@GEPAFMDL@?$AAe?$AAs?$AA?9?$AAP?$AAA?$AA?$AA@ 0000000180049870     libcpmt:winapinls.obj
 0002:00004880       ??_C@_1M@OJONDMDL@?$AAf?$AAr?$AA?9?$AAM?$AAC?$AA?$AA@ 0000000180049880     libcpmt:winapinls.obj
 0002:00004890       ??_C@_1BG@OBCNFJB@?$AAs?$AAr?$AA?9?$AAB?$AAA?$AA?9?$AAL?$AAa?$AAt?$AAn?$AA?$AA@ 0000000180049890     libcpmt:winapinls.obj
 0002:000048a8       ??_C@_1O@KEMEEGPO@?$AAs?$AAm?$AAa?$AA?9?$AAN?$AAO?$AA?$AA@ 00000001800498a8     libcpmt:winapinls.obj
 0002:000048b8       ??_C@_1M@ELMGFODK@?$AAa?$AAr?$AA?9?$AAT?$AAN?$AA?$AA@ 00000001800498b8     libcpmt:winapinls.obj
 0002:000048c8       ??_C@_1M@BHDLHFAF@?$AAe?$AAn?$AA?9?$AAZ?$AAA?$AA?$AA@ 00000001800498c8     libcpmt:winapinls.obj
 0002:000048d8       ??_C@_1M@BMGIGLIF@?$AAe?$AAs?$AA?9?$AAD?$AAO?$AA?$AA@ 00000001800498d8     libcpmt:winapinls.obj
 0002:000048e8       ??_C@_1BG@CMBHIPBE@?$AAs?$AAr?$AA?9?$AAB?$AAA?$AA?9?$AAC?$AAy?$AAr?$AAl?$AA?$AA@ 00000001800498e8     libcpmt:winapinls.obj
 0002:00004900       ??_C@_1O@HEDBLHNP@?$AAs?$AAm?$AAa?$AA?9?$AAS?$AAE?$AA?$AA@ 0000000180049900     libcpmt:winapinls.obj
 0002:00004910       ??_C@_1M@DAGCADIM@?$AAa?$AAr?$AA?9?$AAO?$AAM?$AA?$AA@ 0000000180049910     libcpmt:winapinls.obj
 0002:00004920       ??_C@_1M@FODLMICG@?$AAe?$AAn?$AA?9?$AAJ?$AAM?$AA?$AA@ 0000000180049920     libcpmt:winapinls.obj
 0002:00004930       ??_C@_1M@DNMLCIHB@?$AAe?$AAs?$AA?9?$AAV?$AAE?$AA?$AA@ 0000000180049930     libcpmt:winapinls.obj
 0002:00004940       ??_C@_1O@EOKHMKJK@?$AAs?$AAm?$AAs?$AA?9?$AAF?$AAI?$AA?$AA@ 0000000180049940     libcpmt:winapinls.obj
 0002:00004950       ??_C@_1M@CAFJMKOF@?$AAa?$AAr?$AA?9?$AAY?$AAE?$AA?$AA@ 0000000180049950     libcpmt:winapinls.obj
 0002:00004960       ??_C@_1M@CBFHIJLI@?$AAe?$AAn?$AA?9?$AAC?$AAB?$AA?$AA@ 0000000180049960     libcpmt:winapinls.obj
 0002:00004970       ??_C@_1M@BGNFLDN@?$AAe?$AAs?$AA?9?$AAC?$AAO?$AA?$AA@ 0000000180049970     libcpmt:winapinls.obj
 0002:00004980       ??_C@_1O@JMPHMAMC@?$AAs?$AAm?$AAn?$AA?9?$AAF?$AAI?$AA?$AA@ 0000000180049980     libcpmt:winapinls.obj
 0002:00004990       ??_C@_1M@JLANABKE@?$AAa?$AAr?$AA?9?$AAS?$AAY?$AA?$AA@ 0000000180049990     libcpmt:winapinls.obj
 0002:000049a0       ??_C@_1M@HPKGCFGN@?$AAe?$AAn?$AA?9?$AAB?$AAZ?$AA?$AA@ 00000001800499a0     libcpmt:winapinls.obj
 0002:000049b0       ??_C@_1M@OLJCMLGM@?$AAe?$AAs?$AA?9?$AAP?$AAE?$AA?$AA@ 00000001800499b0     libcpmt:winapinls.obj
 0002:000049c0       ??_C@_1M@MKKGFKLE@?$AAa?$AAr?$AA?9?$AAJ?$AAO?$AA?$AA@ 00000001800499c0     libcpmt:winapinls.obj
 0002:000049d0       ??_C@_1M@EKPGLDNI@?$AAe?$AAn?$AA?9?$AAT?$AAT?$AA?$AA@ 00000001800499d0     libcpmt:winapinls.obj
 0002:000049e0       ??_C@_1M@OONGHFHE@?$AAe?$AAs?$AA?9?$AAA?$AAR?$AA?$AA@ 00000001800499e0     libcpmt:winapinls.obj
 0002:000049f0       ??_C@_1M@OOJFGBHE@?$AAa?$AAr?$AA?9?$AAL?$AAB?$AA?$AA@ 00000001800499f0     libcpmt:winapinls.obj
 0002:00004a00       ??_C@_1M@GCEJHNEG@?$AAe?$AAn?$AA?9?$AAZ?$AAW?$AA?$AA@ 0000000180049a00     libcpmt:winapinls.obj
 0002:00004a10       ??_C@_1M@JNOCAHJI@?$AAe?$AAs?$AA?9?$AAE?$AAC?$AA?$AA@ 0000000180049a10     libcpmt:winapinls.obj
 0002:00004a20       ??_C@_1M@JEFHPGGB@?$AAa?$AAr?$AA?9?$AAK?$AAW?$AA?$AA@ 0000000180049a20     libcpmt:winapinls.obj
 0002:00004a30       ??_C@_1M@MLKIBJOJ@?$AAe?$AAn?$AA?9?$AAP?$AAH?$AA?$AA@ 0000000180049a30     libcpmt:winapinls.obj
 0002:00004a40       ??_C@_1M@BDNIPEND@?$AAe?$AAs?$AA?9?$AAC?$AAL?$AA?$AA@ 0000000180049a40     libcpmt:winapinls.obj
 0002:00004a50       ??_C@_1M@MPNMEKBD@?$AAa?$AAr?$AA?9?$AAA?$AAE?$AA?$AA@ 0000000180049a50     libcpmt:winapinls.obj
 0002:00004a60       ??_C@_1M@KBJALCPI@?$AAe?$AAs?$AA?9?$AAU?$AAY?$AA?$AA@ 0000000180049a60     libcpmt:winapinls.obj
 0002:00004a70       ??_C@_1M@LLCCOAGA@?$AAa?$AAr?$AA?9?$AAB?$AAH?$AA?$AA@ 0000000180049a70     libcpmt:winapinls.obj
 0002:00004a80       ??_C@_1M@PBFNCDEL@?$AAe?$AAs?$AA?9?$AAP?$AAY?$AA?$AA@ 0000000180049a80     libcpmt:winapinls.obj
 0002:00004a90       ??_C@_1M@EDGINPNP@?$AAa?$AAr?$AA?9?$AAQ?$AAA?$AA?$AA@ 0000000180049a90     libcpmt:winapinls.obj
 0002:00004aa0       ??_C@_1M@MKDBIIJI@?$AAe?$AAs?$AA?9?$AAB?$AAO?$AA?$AA@ 0000000180049aa0     libcpmt:winapinls.obj
 0002:00004ab0       ??_C@_1M@CPKKEBLD@?$AAe?$AAs?$AA?9?$AAS?$AAV?$AA?$AA@ 0000000180049ab0     libcpmt:winapinls.obj
 0002:00004ac0       ??_C@_1M@NDBGMMJL@?$AAe?$AAs?$AA?9?$AAH?$AAN?$AA?$AA@ 0000000180049ac0     libcpmt:winapinls.obj
 0002:00004ad0       ??_C@_1M@JIJIBHDP@?$AAe?$AAs?$AA?9?$AAN?$AAI?$AA?$AA@ 0000000180049ad0     libcpmt:winapinls.obj
 0002:00004ae0       ??_C@_1M@CGFMKEEK@?$AAe?$AAs?$AA?9?$AAP?$AAR?$AA?$AA@ 0000000180049ae0     libcpmt:winapinls.obj
 0002:00004af0       ??_C@_1O@ICJHKIIK@?$AAz?$AAh?$AA?9?$AAC?$AAH?$AAT?$AA?$AA@ 0000000180049af0     libcpmt:winapinls.obj
 0002:00004b00       ??_C@_15CLNEJCE@?$AAs?$AAr?$AA?$AA@ 0000000180049b00     libcpmt:winapinls.obj
 0002:00004b08       ??_C@_1M@KAHEKEIG@?$AAa?$AAf?$AA?9?$AAz?$AAa?$AA?$AA@ 0000000180049b08     libcpmt:winapinls.obj
 0002:00004b18       ??_C@_1M@GIECOABL@?$AAa?$AAr?$AA?9?$AAa?$AAe?$AA?$AA@ 0000000180049b18     libcpmt:winapinls.obj
 0002:00004b28       ??_C@_1M@BMLMEKGI@?$AAa?$AAr?$AA?9?$AAb?$AAh?$AA?$AA@ 0000000180049b28     libcpmt:winapinls.obj
 0002:00004b38       ??_C@_1M@DAPFDGGB@?$AAa?$AAr?$AA?9?$AAd?$AAz?$AA?$AA@ 0000000180049b38     libcpmt:winapinls.obj
 0002:00004b48       ??_C@_1M@FJNKGKIG@?$AAa?$AAr?$AA?9?$AAe?$AAg?$AA?$AA@ 0000000180049b48     libcpmt:winapinls.obj
 0002:00004b58       ??_C@_1M@FLGKKCLO@?$AAa?$AAr?$AA?9?$AAi?$AAq?$AA?$AA@ 0000000180049b58     libcpmt:winapinls.obj
 0002:00004b68       ??_C@_1M@GNDIPALM@?$AAa?$AAr?$AA?9?$AAj?$AAo?$AA?$AA@ 0000000180049b68     libcpmt:winapinls.obj
 0002:00004b78       ??_C@_1M@DDMJFMGJ@?$AAa?$AAr?$AA?9?$AAk?$AAw?$AA?$AA@ 0000000180049b78     libcpmt:winapinls.obj
 0002:00004b88       ??_C@_1M@EJALMLHM@?$AAa?$AAr?$AA?9?$AAl?$AAb?$AA?$AA@ 0000000180049b88     libcpmt:winapinls.obj
 0002:00004b98       ??_C@_1M@MOBDBLOC@?$AAa?$AAr?$AA?9?$AAl?$AAy?$AA?$AA@ 0000000180049b98     libcpmt:winapinls.obj
 0002:00004ba8       ??_C@_1M@JAOCLHDH@?$AAa?$AAr?$AA?9?$AAm?$AAa?$AA?$AA@ 0000000180049ba8     libcpmt:winapinls.obj
 0002:00004bb8       ??_C@_1M@JHPMKJIE@?$AAa?$AAr?$AA?9?$AAo?$AAm?$AA?$AA@ 0000000180049bb8     libcpmt:winapinls.obj
 0002:00004bc8       ??_C@_1M@OEPGHFNH@?$AAa?$AAr?$AA?9?$AAq?$AAa?$AA?$AA@ 0000000180049bc8     libcpmt:winapinls.obj
 0002:00004bd8       ??_C@_1M@KJDONENM@?$AAa?$AAr?$AA?9?$AAs?$AAa?$AA?$AA@ 0000000180049bd8     libcpmt:winapinls.obj
 0002:00004be8       ??_C@_1M@DMJDKLKM@?$AAa?$AAr?$AA?9?$AAs?$AAy?$AA?$AA@ 0000000180049be8     libcpmt:winapinls.obj
 0002:00004bf8       ??_C@_1M@OMFIPEDC@?$AAa?$AAr?$AA?9?$AAt?$AAn?$AA?$AA@ 0000000180049bf8     libcpmt:winapinls.obj
 0002:00004c08       ??_C@_1M@IHMHGAON@?$AAa?$AAr?$AA?9?$AAy?$AAe?$AA?$AA@ 0000000180049c08     libcpmt:winapinls.obj
 0002:00004c18       ??_C@_1BG@KDCPGJGB@?$AAa?$AAz?$AA?9?$AAa?$AAz?$AA?9?$AAc?$AAy?$AAr?$AAl?$AA?$AA@ 0000000180049c18     libcpmt:winapinls.obj
 0002:00004c30       ??_C@_1BG@IBCKDDOE@?$AAa?$AAz?$AA?9?$AAa?$AAz?$AA?9?$AAl?$AAa?$AAt?$AAn?$AA?$AA@ 0000000180049c30     libcpmt:winapinls.obj
 0002:00004c48       ??_C@_1M@EGPFDCPD@?$AAb?$AAe?$AA?9?$AAb?$AAy?$AA?$AA@ 0000000180049c48     libcpmt:winapinls.obj
 0002:00004c58       ??_C@_1M@PCMGMCGC@?$AAb?$AAg?$AA?9?$AAb?$AAg?$AA?$AA@ 0000000180049c58     libcpmt:winapinls.obj
 0002:00004c68       ??_C@_1M@BJBMFGOB@?$AAb?$AAn?$AA?9?$AAi?$AAn?$AA?$AA@ 0000000180049c68     libcpmt:winapinls.obj
 0002:00004c78       ??_C@_1BG@EAKMMACD@?$AAb?$AAs?$AA?9?$AAb?$AAa?$AA?9?$AAl?$AAa?$AAt?$AAn?$AA?$AA@ 0000000180049c78     libcpmt:winapinls.obj
 0002:00004c90       ??_C@_1M@KGADAODK@?$AAc?$AAa?$AA?9?$AAe?$AAs?$AA?$AA@ 0000000180049c90     libcpmt:winapinls.obj
 0002:00004ca0       ??_C@_1M@COAJPDHI@?$AAc?$AAs?$AA?9?$AAc?$AAz?$AA?$AA@ 0000000180049ca0     libcpmt:winapinls.obj
 0002:00004cb0       ??_C@_1M@DHBHFONH@?$AAc?$AAy?$AA?9?$AAg?$AAb?$AA?$AA@ 0000000180049cb0     libcpmt:winapinls.obj
 0002:00004cc0       ??_C@_1M@IMGKELGA@?$AAd?$AAa?$AA?9?$AAd?$AAk?$AA?$AA@ 0000000180049cc0     libcpmt:winapinls.obj
 0002:00004cd0       ??_C@_1M@NNDGDNGA@?$AAd?$AAe?$AA?9?$AAa?$AAt?$AA?$AA@ 0000000180049cd0     libcpmt:winapinls.obj
 0002:00004ce0       ??_C@_1M@IKDBHEEM@?$AAd?$AAe?$AA?9?$AAc?$AAh?$AA?$AA@ 0000000180049ce0     libcpmt:winapinls.obj
 0002:00004cf0       ??_C@_1M@GFFOJMCJ@?$AAd?$AAe?$AA?9?$AAd?$AAe?$AA?$AA@ 0000000180049cf0     libcpmt:winapinls.obj
 0002:00004d00       ??_C@_1M@MDNLKBPM@?$AAd?$AAe?$AA?9?$AAl?$AAi?$AA?$AA@ 0000000180049d00     libcpmt:winapinls.obj
 0002:00004d10       ??_C@_1M@NJBEEJNL@?$AAd?$AAe?$AA?9?$AAl?$AAu?$AA?$AA@ 0000000180049d10     libcpmt:winapinls.obj
 0002:00004d20       ??_C@_1O@GNNELBAP@?$AAd?$AAi?$AAv?$AA?9?$AAm?$AAv?$AA?$AA@ 0000000180049d20     libcpmt:winapinls.obj
 0002:00004d30       ??_C@_1M@EJLEOGAE@?$AAe?$AAl?$AA?9?$AAg?$AAr?$AA?$AA@ 0000000180049d30     libcpmt:winapinls.obj
 0002:00004d40       ??_C@_1M@GMPONJN@?$AAe?$AAn?$AA?9?$AAa?$AAu?$AA?$AA@ 0000000180049d40     libcpmt:winapinls.obj
 0002:00004d50       ??_C@_1M@NIDIIPGF@?$AAe?$AAn?$AA?9?$AAb?$AAz?$AA?$AA@ 0000000180049d50     libcpmt:winapinls.obj
 0002:00004d60       ??_C@_1M@JEHMIMFO@?$AAe?$AAn?$AA?9?$AAc?$AAa?$AA?$AA@ 0000000180049d60     libcpmt:winapinls.obj
 0002:00004d70       ??_C@_1M@IGMJCDLA@?$AAe?$AAn?$AA?9?$AAc?$AAb?$AA?$AA@ 0000000180049d70     libcpmt:winapinls.obj
 0002:00004d80       ??_C@_1M@BNFIGBKG@?$AAe?$AAn?$AA?9?$AAg?$AAb?$AA?$AA@ 0000000180049d80     libcpmt:winapinls.obj
 0002:00004d90       ??_C@_1M@LKIFDIGP@?$AAe?$AAn?$AA?9?$AAi?$AAe?$AA?$AA@ 0000000180049d90     libcpmt:winapinls.obj
 0002:00004da0       ??_C@_1M@PJKFGCCO@?$AAe?$AAn?$AA?9?$AAj?$AAm?$AA?$AA@ 0000000180049da0     libcpmt:winapinls.obj
 0002:00004db0       ??_C@_1M@KPPKEPBO@?$AAe?$AAn?$AA?9?$AAn?$AAz?$AA?$AA@ 0000000180049db0     libcpmt:winapinls.obj
 0002:00004e00       __real@0000000000000000    0000000180049e00     libcpmt:xprec.obj
 0002:00004ec0       ??_7type_info@@6B@         0000000180049ec0     LIBCMT:std_type_info_static.obj
 0002:00004ed8       _pRawDllMain               0000000180049ed8     LIBCMT:dll_dllmain.obj
 0002:00004ed8       _pDefaultRawDllMain        0000000180049ed8     LIBCMT:dll_dllmain.obj
 0002:00004ee8       ??_7bad_array_new_length@std@@6B@ 0000000180049ee8     LIBCMT:throw_bad_alloc.obj
 0002:00004ef8       ??_C@_0BF@KINCDENJ@bad?5array?5new?5length?$AA@ 0000000180049ef8     LIBCMT:throw_bad_alloc.obj
 0002:00004f10       _pDestructExceptionObject  0000000180049f10     libvcruntime:frame.obj
 0002:00004f20       ??_7bad_exception@std@@6B@ 0000000180049f20     libvcruntime:frame.obj
 0002:00004f30       ??_C@_0O@DPKOEFFH@bad?5exception?$AA@ 0000000180049f30     libvcruntime:frame.obj
 0002:00005040       ??_C@_1BC@DNHGCMLG@?$AAa?$AAd?$AAv?$AAa?$AAp?$AAi?$AA3?$AA2?$AA?$AA@ 000000018004a040     libvcruntime:winapi_downlevel.obj
 0002:00005058       ??_C@_1DM@KHCHBNEB@?$AAa?$AAp?$AAi?$AA?9?$AAm?$AAs?$AA?9?$AAw?$AAi?$AAn?$AA?9?$AAc?$AAo?$AAr?$AAe?$AA?9?$AAf?$AAi?$AAb?$AAe?$AAr?$AAs?$AA?9?$AAl?$AA1?$AA?9?$AA1?$AA?9?$AA1?$AA?$AA@ 000000018004a058     libvcruntime:winapi_downlevel.obj
 0002:00005098       ??_C@_1DK@LPPGFMPP@?$AAa?$AAp?$AAi?$AA?9?$AAm?$AAs?$AA?9?$AAw?$AAi?$AAn?$AA?9?$AAc?$AAo?$AAr?$AAe?$AA?9?$AAs?$AAy?$AAn?$AAc?$AAh?$AA?9?$AAl?$AA1?$AA?9?$AA2?$AA?9?$AA0?$AA?$AA@ 000000018004a098     libvcruntime:winapi_downlevel.obj
 0002:000050d8       ??_C@_1BC@GDMECMAK@?$AAk?$AAe?$AAr?$AAn?$AAe?$AAl?$AA3?$AA2?$AA?$AA@ 000000018004a0d8     libvcruntime:winapi_downlevel.obj
 0002:000050f0       ??_C@_0O@BAMBGLIE@EventRegister?$AA@ 000000018004a0f0     libvcruntime:winapi_downlevel.obj
 0002:00005108       ??_C@_0BE@BJEEGHGK@EventSetInformation?$AA@ 000000018004a108     libvcruntime:winapi_downlevel.obj
 0002:00005120       ??_C@_0BA@FAKLIPIC@EventUnregister?$AA@ 000000018004a120     libvcruntime:winapi_downlevel.obj
 0002:00005138       ??_C@_0BD@PKLHJPHD@EventWriteTransfer?$AA@ 000000018004a138     libvcruntime:winapi_downlevel.obj
 0002:00005178       _Microsoft_CRTProvider     000000018004a178     libvcruntime:telemetry.obj
 0002:00005180       ??_C@_0O@JEOPJOMI@Main?5Invoked?4?$AA@ 000000018004a180     libvcruntime:telemetry.obj
 0002:00005190       ??_C@_0P@NEAEIBDO@Main?5Returned?4?$AA@ 000000018004a190     libvcruntime:telemetry.obj
 0002:000051a0       ??_C@_01MIFGBAGJ@?$CL?$AA@ 000000018004a1a0     libvcruntime:undname.obj
 0002:000051a4       ??_C@_01HNPIGOCE@?$CG?$AA@ 000000018004a1a4     libvcruntime:undname.obj
 0002:000051a8       ??_C@_03MNHNFDLC@?9?$DO?$CK?$AA@ 000000018004a1a8     libvcruntime:undname.obj
 0002:000051ac       ??_C@_01KMDKNFGN@?1?$AA@   000000018004a1ac     libvcruntime:undname.obj
 0002:000051b0       ??_C@_01FGNFDNOH@?$CF?$AA@ 000000018004a1b0     libvcruntime:undname.obj
 0002:000051b4       ??_C@_01MNNFJEPP@?$DM?$AA@ 000000018004a1b4     libvcruntime:undname.obj
 0002:000051b8       ??_C@_02EHCHHCKH@?$DM?$DN?$AA@ 000000018004a1b8     libvcruntime:undname.obj
 0002:000051bc       ??_C@_01PPODPGHN@?$DO?$AA@ 000000018004a1bc     libvcruntime:undname.obj
 0002:000051c0       ??_C@_02EEKDKGMJ@?$DO?$DN?$AA@ 000000018004a1c0     libvcruntime:undname.obj
 0002:000051c4       ??_C@_01IHBHIGKO@?0?$AA@   000000018004a1c4     libvcruntime:undname.obj
 0002:000051c8       ??_C@_02HCKGKOFO@?$CI?$CJ?$AA@ 000000018004a1c8     libvcruntime:undname.obj
 0002:000051cc       ??_C@_01PJKLJHI@?$HO?$AA@  000000018004a1cc     libvcruntime:undname.obj
 0002:000051d0       ??_C@_01JKBOJNNK@?$FO?$AA@ 000000018004a1d0     libvcruntime:undname.obj
 0002:000051d4       ??_C@_01DNKMNLPK@?$HM?$AA@ 000000018004a1d4     libvcruntime:undname.obj
 0002:000051d8       ??_C@_02PPKAJPJL@?$CG?$CG?$AA@ 000000018004a1d8     libvcruntime:undname.obj
 0002:000051dc       ??_C@_02NONPIBCD@?$HM?$HM?$AA@ 000000018004a1dc     libvcruntime:undname.obj
 0002:000051e0       ??_C@_02FPIMKNGF@?$CK?$DN?$AA@ 000000018004a1e0     libvcruntime:undname.obj
 0002:000051e4       ??_C@_02FOEOMHFC@?$CL?$DN?$AA@ 000000018004a1e4     libvcruntime:undname.obj
 0002:000051e8       ??_C@_02FKMDLLOA@?9?$DN?$AA@ 000000018004a1e8     libvcruntime:undname.obj
 0002:000051ec       ??_C@_02FJEHGPIO@?1?$DN?$AA@ 000000018004a1ec     libvcruntime:undname.obj
 0002:000051f0       ??_C@_02FENAOKFI@?$CF?$DN?$AA@ 000000018004a1f0     libvcruntime:undname.obj
 0002:000051f4       ??_C@_03IKFCCPFF@?$DO?$DO?$DN?$AA@ 000000018004a1f4     libvcruntime:undname.obj
 0002:000051f8       ??_C@_03CDNPDDLA@?$DM?$DM?$DN?$AA@ 000000018004a1f8     libvcruntime:undname.obj
 0002:000051fc       ??_C@_02FGJGFEAB@?$CG?$DN?$AA@ 000000018004a1fc     libvcruntime:undname.obj
 0002:00005200       ??_C@_02DHLNPPGH@?$HM?$DN?$AA@ 000000018004a200     libvcruntime:undname.obj
 0002:00005204       ??_C@_02MHEGNOJ@?$FO?$DN?$AA@ 000000018004a204     libvcruntime:undname.obj
 0002:00005208       ??_C@_09IFPLHPGF@?$GAvftable?8?$AA@ 000000018004a208     libvcruntime:undname.obj
 0002:00005218       ??_C@_09BLBHBJP@?$GAvbtable?8?$AA@ 000000018004a218     libvcruntime:undname.obj
 0002:00005228       ??_C@_07FEEIOKP@?$GAvcall?8?$AA@ 000000018004a228     libvcruntime:undname.obj
 0002:00005230       ??_C@_08LLFFHHDJ@?$GAtypeof?8?$AA@ 000000018004a230     libvcruntime:undname.obj
 0002:00005240       ??_C@_0BF@KDPPACIK@?$GAlocal?5static?5guard?8?$AA@ 000000018004a240     libvcruntime:undname.obj
 0002:00005258       ??_C@_08OBABFOLI@?$GAstring?8?$AA@ 000000018004a258     libvcruntime:undname.obj
 0002:00005268       ??_C@_0BD@JDLKDPAB@?$GAvbase?5destructor?8?$AA@ 000000018004a268     libvcruntime:undname.obj
 0002:00005280       ??_C@_0BN@DEGPLNFK@?$GAvector?5deleting?5destructor?8?$AA@ 000000018004a280     libvcruntime:undname.obj
 0002:000052a0       ??_C@_0BO@OBMKPJIG@?$GAdefault?5constructor?5closure?8?$AA@ 000000018004a2a0     libvcruntime:undname.obj
 0002:000052c0       ??_C@_0BN@IMDCHIKM@?$GAscalar?5deleting?5destructor?8?$AA@ 000000018004a2c0     libvcruntime:undname.obj
 0002:000052e0       ??_C@_0BO@PFGOCPJJ@?$GAvector?5constructor?5iterator?8?$AA@ 000000018004a2e0     libvcruntime:undname.obj
 0002:00005300       ??_C@_0BN@LFPFMEDL@?$GAvector?5destructor?5iterator?8?$AA@ 000000018004a300     libvcruntime:undname.obj
 0002:00005320       ??_C@_0CE@IKBNEHA@?$GAvector?5vbase?5constructor?5iterat@ 000000018004a320     libvcruntime:undname.obj
 0002:00005348       ??_C@_0BL@NILFHHPC@?$GAvirtual?5displacement?5map?8?$AA@ 000000018004a348     libvcruntime:undname.obj
 0002:00005368       ??_C@_0CB@JONCMFFK@?$GAeh?5vector?5constructor?5iterator?8@ 000000018004a368     libvcruntime:undname.obj
 0002:00005390       ??_C@_0CA@GCEOPDGL@?$GAeh?5vector?5destructor?5iterator?8?$AA@ 000000018004a390     libvcruntime:undname.obj
 0002:000053b0       ??_C@_0CH@OOJPLCPH@?$GAeh?5vector?5vbase?5constructor?5ite@ 000000018004a3b0     libvcruntime:undname.obj
 0002:000053d8       ??_C@_0BL@LLKPOHJI@?$GAcopy?5constructor?5closure?8?$AA@ 000000018004a3d8     libvcruntime:undname.obj
 0002:000053f8       ??_C@_0BA@KBCDOMBN@?$GAudt?5returning?8?$AA@ 000000018004a3f8     libvcruntime:undname.obj
 0002:00005408       ??_C@_03KLGMFNMG@?$GAEH?$AA@ 000000018004a408     libvcruntime:undname.obj
 0002:0000540c       ??_C@_05KHLCHHI@?$GARTTI?$AA@ 000000018004a40c     libvcruntime:undname.obj
 0002:00005418       ??_C@_0BA@KKLDJDLB@?$GAlocal?5vftable?8?$AA@ 000000018004a418     libvcruntime:undname.obj
 0002:00005428       ??_C@_0CE@IIHCMGGL@?$GAlocal?5vftable?5constructor?5closu@ 000000018004a428     libvcruntime:undname.obj
 0002:0000544c       ??_C@_06FHBGPFGH@?5new?$FL?$FN?$AA@ 000000018004a44c     libvcruntime:undname.obj
 0002:00005458       ??_C@_09LBNFPBCA@?5delete?$FL?$FN?$AA@ 000000018004a458     libvcruntime:undname.obj
 0002:00005468       ??_C@_0P@HJKNJFNN@?$GAomni?5callsig?8?$AA@ 000000018004a468     libvcruntime:undname.obj
 0002:00005478       ??_C@_0BL@CNOONJFP@?$GAplacement?5delete?5closure?8?$AA@ 000000018004a478     libvcruntime:undname.obj
 0002:00005498       ??_C@_0BN@CKNJLHMB@?$GAplacement?5delete?$FL?$FN?5closure?8?$AA@ 000000018004a498     libvcruntime:undname.obj
 0002:000054b8       ??_C@_0CG@CFDHKGGD@?$GAmanaged?5vector?5constructor?5iter@ 000000018004a4b8     libvcruntime:undname.obj
 0002:000054e0       ??_C@_0CF@IMGKMJNO@?$GAmanaged?5vector?5destructor?5itera@ 000000018004a4e0     libvcruntime:undname.obj
 0002:00005508       ??_C@_0CG@HLDDJMAG@?$GAeh?5vector?5copy?5constructor?5iter@ 000000018004a508     libvcruntime:undname.obj
 0002:00005530       ??_C@_0CM@FCBBDIGB@?$GAeh?5vector?5vbase?5copy?5constructo@ 000000018004a530     libvcruntime:undname.obj
 0002:00005560       ??_C@_0BL@CLIPGLGB@?$GAdynamic?5initializer?5for?5?8?$AA@ 000000018004a560     libvcruntime:undname.obj
 0002:00005580       ??_C@_0CB@PDBIFEP@?$GAdynamic?5atexit?5destructor?5for?5?8@ 000000018004a580     libvcruntime:undname.obj
 0002:000055a8       ??_C@_0CD@CGAJBKEJ@?$GAvector?5copy?5constructor?5iterato@ 000000018004a5a8     libvcruntime:undname.obj
 0002:000055d0       ??_C@_0CJ@GJELGAMM@?$GAvector?5vbase?5copy?5constructor?5i@ 000000018004a5d0     libvcruntime:undname.obj
 0002:00005600       ??_C@_0CL@FGIJHLCE@?$GAmanaged?5vector?5copy?5constructor@ 000000018004a600     libvcruntime:undname.obj
 0002:00005630       ??_C@_0BM@PMGGMLDN@?$GAlocal?5static?5thread?5guard?8?$AA@ 000000018004a630     libvcruntime:undname.obj
 0002:00005650       ??_C@_0N@BDNMDMOL@operator?5?$CC?$CC?5?$AA@ 000000018004a650     libvcruntime:undname.obj
 0002:00005988       ??_C@_0BC@DAFEJGAK@?5Type?5Descriptor?8?$AA@ 000000018004a988     libvcruntime:undname.obj
 0002:000059a0       ??_C@_0BM@LDKODKLH@?5Base?5Class?5Descriptor?5at?5?$CI?$AA@ 000000018004a9a0     libvcruntime:undname.obj
 0002:000059c0       ??_C@_0BD@LGICGFMM@?5Base?5Class?5Array?8?$AA@ 000000018004a9c0     libvcruntime:undname.obj
 0002:000059d8       ??_C@_0BN@MECKDCOJ@?5Class?5Hierarchy?5Descriptor?8?$AA@ 000000018004a9d8     libvcruntime:undname.obj
 0002:000059f8       ??_C@_0BK@CFCOFLF@?5Complete?5Object?5Locator?8?$AA@ 000000018004a9f8     libvcruntime:undname.obj
 0002:00005a18       ??_C@_08EHJDFFNH@__based?$CI?$AA@ 000000018004aa18     libvcruntime:undname.obj
 0002:00005a28       ??_C@_07KOLFKCDI@__cdecl?$AA@ 000000018004aa28     libvcruntime:undname.obj
 0002:00005a30       ??_C@_08GHMPAG@__pascal?$AA@ 000000018004aa30     libvcruntime:undname.obj
 0002:00005a40       ??_C@_09IFJBGAPI@__stdcall?$AA@ 000000018004aa40     libvcruntime:undname.obj
 0002:00005a50       ??_C@_0L@NPHFGOKO@__thiscall?$AA@ 000000018004aa50     libvcruntime:undname.obj
 0002:00005a60       ??_C@_0L@JMKHOMEK@__fastcall?$AA@ 000000018004aa60     libvcruntime:undname.obj
 0002:00005a70       ??_C@_0N@BCKKPABJ@__vectorcall?$AA@ 000000018004aa70     libvcruntime:undname.obj
 0002:00005a80       ??_C@_09HIJEGCPM@__clrcall?$AA@ 000000018004aa80     libvcruntime:undname.obj
 0002:00005a8c       ??_C@_06GHPCKEAG@__eabi?$AA@ 000000018004aa8c     libvcruntime:undname.obj
 0002:00005a98       ??_C@_07JOMMBBKO@__ptr64?$AA@ 000000018004aa98     libvcruntime:undname.obj
 0002:00005aa0       ??_C@_0L@PILCLIHE@__restrict?$AA@ 000000018004aaa0     libvcruntime:undname.obj
 0002:00005ab0       ??_C@_0M@GFIIJFMG@__unaligned?$AA@ 000000018004aab0     libvcruntime:undname.obj
 0002:00005ac0       ??_C@_09DHDLOLLB@restrict?$CI?$AA@ 000000018004aac0     libvcruntime:undname.obj
 0002:00005acc       ??_C@_04NIHEBCM@?5new?$AA@ 000000018004aacc     libvcruntime:undname.obj
 0002:00005ad8       ??_C@_07FPCDHGMM@?5delete?$AA@ 000000018004aad8     libvcruntime:undname.obj
 0002:00005ae0       ??_C@_01NEMOKFLO@?$DN?$AA@ 000000018004aae0     libvcruntime:undname.obj
 0002:00005ae4       ??_C@_02GPIOPFAK@?$DO?$DO?$AA@ 000000018004aae4     libvcruntime:undname.obj
 0002:00005ae8       ??_C@_02FODMEDOG@?$DM?$DM?$AA@ 000000018004aae8     libvcruntime:undname.obj
 0002:00005aec       ??_C@_01DCLJPIOD@?$CB?$AA@ 000000018004aaec     libvcruntime:undname.obj
 0002:00005af0       ??_C@_02EGOFBIJA@?$DN?$DN?$AA@ 000000018004aaf0     libvcruntime:undname.obj
 0002:00005af4       ??_C@_02FDNJECIE@?$CB?$DN?$AA@ 000000018004aaf4     libvcruntime:undname.obj
 0002:00005af8       ??_C@_02GPECMEKF@?$FL?$FN?$AA@ 000000018004aaf8     libvcruntime:undname.obj
 0002:00005b00       ??_C@_08LHJFAFGD@operator?$AA@ 000000018004ab00     libvcruntime:undname.obj
 0002:00005b0c       ??_C@_02HBOOOICD@?9?$DO?$AA@ 000000018004ab0c     libvcruntime:undname.obj
 0002:00005b10       ??_C@_02ECNGHCIF@?$CL?$CL?$AA@ 000000018004ab10     libvcruntime:undname.obj
 0002:00005b14       ??_C@_02BAABKJLB@?9?9?$AA@ 000000018004ab14     libvcruntime:undname.obj
 0002:00005b20       standard_lookup_table      000000018004ab20     libucrt:output.obj
 0002:00005b80       format_validation_lookup_table 000000018004ab80     libucrt:output.obj
 0002:00005bdc       ??_C@_06OJHGLDPL@?$CInull?$CJ?$AA@ 000000018004abdc     libucrt:output.obj
 0002:00005be8       ??_C@_1O@CEDCILHN@?$AA?$CI?$AAn?$AAu?$AAl?$AAl?$AA?$CJ?$AA?$AA@ 000000018004abe8     libucrt:output.obj
 0002:00005bf8       __real@8000000000000000    000000018004abf8     libucrt:frexp.obj
 0002:00005c00       ??_C@_1EK@MBDPDCGA@?$AAM?$AAi?$AAc?$AAr?$AAo?$AAs?$AAo?$AAf?$AAt?$AA?5?$AAV?$AAi?$AAs?$AAu?$AAa?$AAl?$AA?5?$AAC?$AA?$CL?$AA?$CL?$AA?5?$AAR?$AAu?$AAn?$AAt?$AAi?$AAm?$AAe?$AA?5?$AAL?$AAi?$AAb@ 000000018004ac00     libucrt:assert.obj
 0002:00005c50       ??_C@_1FE@LHBLIKM@?$AAA?$AAs?$AAs?$AAe?$AAr?$AAt?$AAi?$AAo?$AAn?$AA?5?$AAf?$AAa?$AAi?$AAl?$AAe?$AAd?$AA?3?$AA?5?$AA?$CF?$AAT?$AAs?$AA?0?$AA?5?$AAf?$AAi?$AAl?$AAe?$AA?5?$AA?$CF?$AAT?$AAs?$AA?0@ 000000018004ac50     libucrt:assert.obj
 0002:00005ca8       ??_C@_1CE@OJBNHDMO@?$AAA?$AAs?$AAs?$AAe?$AAr?$AAt?$AAi?$AAo?$AAn?$AA?5?$AAf?$AAa?$AAi?$AAl?$AAe?$AAd?$AA?$CB?$AA?$AA@ 000000018004aca8     libucrt:assert.obj
 0002:00005cd0       ??_C@_1BE@PHKBBGE@?$AAP?$AAr?$AAo?$AAg?$AAr?$AAa?$AAm?$AA?3?$AA?5?$AA?$AA@ 000000018004acd0     libucrt:assert.obj
 0002:00005ce8       ??_C@_1O@HEMHKNDC@?$AAF?$AAi?$AAl?$AAe?$AA?3?$AA?5?$AA?$AA@ 000000018004ace8     libucrt:assert.obj
 0002:00005cf8       ??_C@_1O@KCAFKHJE@?$AAL?$AAi?$AAn?$AAe?$AA?3?$AA?5?$AA?$AA@ 000000018004acf8     libucrt:assert.obj
 0002:00005d08       ??_C@_1BK@PEDCIPMA@?$AAE?$AAx?$AAp?$AAr?$AAe?$AAs?$AAs?$AAi?$AAo?$AAn?$AA?3?$AA?5?$AA?$AA@ 000000018004ad08     libucrt:assert.obj
 0002:00005d30       ??_C@_1OA@EGMLFBHJ@?$AAF?$AAo?$AAr?$AA?5?$AAi?$AAn?$AAf?$AAo?$AAr?$AAm?$AAa?$AAt?$AAi?$AAo?$AAn?$AA?5?$AAo?$AAn?$AA?5?$AAh?$AAo?$AAw?$AA?5?$AAy?$AAo?$AAu?$AAr?$AA?5?$AAp?$AAr?$AAo?$AAg@ 000000018004ad30     libucrt:assert.obj
 0002:00005e10       ??_C@_1HK@POCJMFGK@?$AA?$CI?$AAP?$AAr?$AAe?$AAs?$AAs?$AA?5?$AAR?$AAe?$AAt?$AAr?$AAy?$AA?5?$AAt?$AAo?$AA?5?$AAd?$AAe?$AAb?$AAu?$AAg?$AA?5?$AAt?$AAh?$AAe?$AA?5?$AAa?$AAp?$AAp?$AAl?$AAi?$AAc@ 000000018004ae10     libucrt:assert.obj
 0002:00005e90       ??_C@_17LGKOMLJ@?$AA?4?$AA?4?$AA?4?$AA?$AA@ 000000018004ae90     libucrt:assert.obj
 0002:00005e98       ??_C@_13LBAGMAIH@?$AA?6?$AA?$AA@ 000000018004ae98     libucrt:assert.obj
 0002:00005e9c       ??_C@_15IABLJNFO@?$AA?6?$AA?6?$AA?$AA@ 000000018004ae9c     libucrt:assert.obj
 0002:00005ea8       ??_C@_1CO@EAEJAADC@?$AA?$DM?$AAp?$AAr?$AAo?$AAg?$AAr?$AAa?$AAm?$AA?5?$AAn?$AAa?$AAm?$AAe?$AA?5?$AAu?$AAn?$AAk?$AAn?$AAo?$AAw?$AAn?$AA?$DO?$AA?$AA@ 000000018004aea8     libucrt:assert.obj
 0002:00005ee0       __newctype                 000000018004aee0     libucrt:ctype.obj
 0002:000061e0       __newclmap                 000000018004b1e0     libucrt:ctype.obj
 0002:00006360       __newcumap                 000000018004b360     libucrt:ctype.obj
 0002:000064e0       _wctype                    000000018004b4e0     libucrt:ctype.obj
 0002:00006858       ??_C@_04EIAKFFMI@sqrt?$AA@ 000000018004b858     libucrt:sqrt.obj
 0002:00006860       __acrt_exception_action_table 000000018004b860     libucrt:exception_filter.obj
 0002:00006920       __acrt_signal_action_table_count 000000018004b920     libucrt:exception_filter.obj
 0002:00006928       __acrt_signal_action_first_fpe_index 000000018004b928     libucrt:exception_filter.obj
 0002:00006930       __acrt_signal_action_fpe_count 000000018004b930     libucrt:exception_filter.obj
 0002:00006938       ??_C@_1BI@BGOHAHKC@?$AAm?$AAs?$AAc?$AAo?$AAr?$AAe?$AAe?$AA?4?$AAd?$AAl?$AAl?$AA?$AA@ 000000018004b938     libucrt:exit.obj
 0002:00006950       ??_C@_0P@MIGLKIOC@CorExitProcess?$AA@ 000000018004b950     libucrt:exit.obj
 0002:00006a50       ??_C@_03OEIAHPBN@INF?$AA@  000000018004ba50     libucrt:cvt.obj
 0002:00006a54       ??_C@_03OJHLLCGB@inf?$AA@  000000018004ba54     libucrt:cvt.obj
 0002:00006a58       ??_C@_03LKNCIKJB@NAN?$AA@  000000018004ba58     libucrt:cvt.obj
 0002:00006a5c       ??_C@_03LHCJEHON@nan?$AA@  000000018004ba5c     libucrt:cvt.obj
 0002:00006a60       ??_C@_09OFJJIMPC@NAN?$CISNAN?$CJ?$AA@ 000000018004ba60     libucrt:cvt.obj
 0002:00006a70       ??_C@_09IPFBKMDL@nan?$CIsnan?$CJ?$AA@ 000000018004ba70     libucrt:cvt.obj
 0002:00006a80       ??_C@_08IKHNHAJ@NAN?$CIIND?$CJ?$AA@ 000000018004ba80     libucrt:cvt.obj
 0002:00006a90       ??_C@_08OFCDMILK@nan?$CIind?$CJ?$AA@ 000000018004ba90     libucrt:cvt.obj
 0002:00006a9c       ??_C@_05KLBDPFGC@e?$CL000?$AA@ 000000018004ba9c     libucrt:cvt.obj
 0002:00006ab0       __lc_category              000000018004bab0     libucrt:wsetlocale.obj
 0002:00006b40       ??_C@_1O@GIFLHMA@?$AAL?$AAC?$AA_?$AAA?$AAL?$AAL?$AA?$AA@ 000000018004bb40     libucrt:wsetlocale.obj
 0002:00006b50       ??_C@_1BG@PPOMIBNJ@?$AAL?$AAC?$AA_?$AAC?$AAO?$AAL?$AAL?$AAA?$AAT?$AAE?$AA?$AA@ 000000018004bb50     libucrt:wsetlocale.obj
 0002:00006b68       ??_C@_1BC@FFJGAPJM@?$AAL?$AAC?$AA_?$AAC?$AAT?$AAY?$AAP?$AAE?$AA?$AA@ 000000018004bb68     libucrt:wsetlocale.obj
 0002:00006b80       ??_C@_1BI@PCKFNJFB@?$AAL?$AAC?$AA_?$AAM?$AAO?$AAN?$AAE?$AAT?$AAA?$AAR?$AAY?$AA?$AA@ 000000018004bb80     libucrt:wsetlocale.obj
 0002:00006b98       ??_C@_1BG@ENIEDKID@?$AAL?$AAC?$AA_?$AAN?$AAU?$AAM?$AAE?$AAR?$AAI?$AAC?$AA?$AA@ 000000018004bb98     libucrt:wsetlocale.obj
 0002:00006bb0       ??_C@_1BA@HAAOMIIG@?$AAL?$AAC?$AA_?$AAT?$AAI?$AAM?$AAE?$AA?$AA@ 000000018004bbb0     libucrt:wsetlocale.obj
 0002:00006c40       ??_C@_15NBPDDFIP@?$AA?$DN?$AA?$DL?$AA?$AA@ 000000018004bc40     libucrt:wsetlocale.obj
 0002:00006c48       ??_C@_13PJJBFPED@?$AA?$DL?$AA?$AA@ 000000018004bc48     libucrt:wsetlocale.obj
 0002:00006c4c       ??_C@_13NMPKAAJP@?$AA?$DN?$AA?$AA@ 000000018004bc4c     libucrt:wsetlocale.obj
 0002:00006c50       ??_C@_13FHBKNHDA@?$AAC?$AA?$AA@ 000000018004bc50     libucrt:wsetlocale.obj
 0002:00006c58       ??_C@_17MBJJLFDM@?$AA_?$AA?4?$AA?0?$AA?$AA@ 000000018004bc58     libucrt:wsetlocale.obj
 0002:00006c60       ??_C@_13ENNFDPBH@?$AA_?$AA?$AA@ 000000018004bc60     libucrt:wsetlocale.obj
 0002:00006c64       ??_C@_13JOFGPIOO@?$AA?4?$AA?$AA@ 000000018004bc64     libucrt:wsetlocale.obj
 0002:00006c70       __lc_time_c                000000018004bc70     libucrt:nlsdata.obj
 0002:00006f30       ??_C@_03KOEHGMDN@Sun?$AA@  000000018004bf30     libucrt:nlsdata.obj
 0002:00006f34       ??_C@_03PDAGKDH@Mon?$AA@   000000018004bf34     libucrt:nlsdata.obj
 0002:00006f38       ??_C@_03NAGEINEP@Tue?$AA@  000000018004bf38     libucrt:nlsdata.obj
 0002:00006f3c       ??_C@_03MHOMLAJA@Wed?$AA@  000000018004bf3c     libucrt:nlsdata.obj
 0002:00006f40       ??_C@_03IOFIKPDN@Thu?$AA@  000000018004bf40     libucrt:nlsdata.obj
 0002:00006f44       ??_C@_03IDIOELNC@Fri?$AA@  000000018004bf44     libucrt:nlsdata.obj
 0002:00006f48       ??_C@_03FEFJNEK@Sat?$AA@   000000018004bf48     libucrt:nlsdata.obj
 0002:00006f4c       ??_C@_06OOPIFAJ@Sunday?$AA@ 000000018004bf4c     libucrt:nlsdata.obj
 0002:00006f54       ??_C@_06JLEDEDGH@Monday?$AA@ 000000018004bf54     libucrt:nlsdata.obj
 0002:00006f60       ??_C@_07BAAGCFCM@Tuesday?$AA@ 000000018004bf60     libucrt:nlsdata.obj
 0002:00006f68       ??_C@_09DLIGFAKA@Wednesday?$AA@ 000000018004bf68     libucrt:nlsdata.obj
 0002:00006f78       ??_C@_08HACCIKIA@Thursday?$AA@ 000000018004bf78     libucrt:nlsdata.obj
 0002:00006f84       ??_C@_06JECMNKMI@Friday?$AA@ 000000018004bf84     libucrt:nlsdata.obj
 0002:00006f90       ??_C@_08INBOOONO@Saturday?$AA@ 000000018004bf90     libucrt:nlsdata.obj
 0002:00006f9c       ??_C@_03JIHJHPIE@Jan?$AA@  000000018004bf9c     libucrt:nlsdata.obj
 0002:00006fa0       ??_C@_03HJBDCHOM@Feb?$AA@  000000018004bfa0     libucrt:nlsdata.obj
 0002:00006fa4       ??_C@_03ODNJBKGA@Mar?$AA@  000000018004bfa4     libucrt:nlsdata.obj
 0002:00006fa8       ??_C@_03LEOLGMJP@Apr?$AA@  000000018004bfa8     libucrt:nlsdata.obj
 0002:00006fac       ??_C@_03CNMDKL@May?$AA@    000000018004bfac     libucrt:nlsdata.obj
 0002:00006fb0       ??_C@_03IDFGHECI@Jun?$AA@  000000018004bfb0     libucrt:nlsdata.obj
 0002:00006fb4       ??_C@_03LBGABGKK@Jul?$AA@  000000018004bfb4     libucrt:nlsdata.obj
 0002:00006fb8       ??_C@_03IFJFEIGA@Aug?$AA@  000000018004bfb8     libucrt:nlsdata.obj
 0002:00006fbc       ??_C@_03GGCAPAJC@Sep?$AA@  000000018004bfbc     libucrt:nlsdata.obj
 0002:00006fc0       ??_C@_03BMAOKBAD@Oct?$AA@  000000018004bfc0     libucrt:nlsdata.obj
 0002:00006fc4       ??_C@_03JPJOFNIA@Nov?$AA@  000000018004bfc4     libucrt:nlsdata.obj
 0002:00006fc8       ??_C@_03MKABNOCG@Dec?$AA@  000000018004bfc8     libucrt:nlsdata.obj
 0002:00006fd0       ??_C@_07CGJPFGJA@January?$AA@ 000000018004bfd0     libucrt:nlsdata.obj
 0002:00006fd8       ??_C@_08GNJGEPFN@February?$AA@ 000000018004bfd8     libucrt:nlsdata.obj
 0002:00006fe4       ??_C@_05HPCKOFNC@March?$AA@ 000000018004bfe4     libucrt:nlsdata.obj
 0002:00006fec       ??_C@_05DMJDNLEJ@April?$AA@ 000000018004bfec     libucrt:nlsdata.obj
 0002:00006ff4       ??_C@_04CNLMGBGM@June?$AA@ 000000018004bff4     libucrt:nlsdata.obj
 0002:00006ffc       ??_C@_04MIEPOIFP@July?$AA@ 000000018004bffc     libucrt:nlsdata.obj
 0002:00007004       ??_C@_06LBBHFDDG@August?$AA@ 000000018004c004     libucrt:nlsdata.obj
 0002:00007010       ??_C@_09BHHEALKD@September?$AA@ 000000018004c010     libucrt:nlsdata.obj
 0002:00007020       ??_C@_07JJNFCEND@October?$AA@ 000000018004c020     libucrt:nlsdata.obj
 0002:00007028       ??_C@_08HCHEGEOA@November?$AA@ 000000018004c028     libucrt:nlsdata.obj
 0002:00007038       ??_C@_08EDHMEBNP@December?$AA@ 000000018004c038     libucrt:nlsdata.obj
 0002:00007044       ??_C@_02DEDBPAFC@AM?$AA@   000000018004c044     libucrt:nlsdata.obj
 0002:00007048       ??_C@_02CJNFDJBF@PM?$AA@   000000018004c048     libucrt:nlsdata.obj
 0002:00007050       ??_C@_08BPBNCDIB@MM?1dd?1yy?$AA@ 000000018004c050     libucrt:nlsdata.obj
 0002:00007060       ??_C@_0BE@CKGJFCPC@dddd?0?5MMMM?5dd?0?5yyyy?$AA@ 000000018004c060     libucrt:nlsdata.obj
 0002:00007078       ??_C@_08JCCMCCIL@HH?3mm?3ss?$AA@ 000000018004c078     libucrt:nlsdata.obj
 0002:00007088       ??_C@_17MBGCMIPB@?$AAS?$AAu?$AAn?$AA?$AA@ 000000018004c088     libucrt:nlsdata.obj
 0002:00007090       ??_C@_17KBOMKBF@?$AAM?$AAo?$AAn?$AA?$AA@ 000000018004c090     libucrt:nlsdata.obj
 0002:00007098       ??_C@_17BMKGEGOJ@?$AAT?$AAu?$AAe?$AA?$AA@ 000000018004c098     libucrt:nlsdata.obj
 0002:000070a0       ??_C@_17CJEDCEPE@?$AAW?$AAe?$AAd?$AA?$AA@ 000000018004c0a0     libucrt:nlsdata.obj
 0002:000070a8       ??_C@_17PDPHAADD@?$AAT?$AAh?$AAu?$AA?$AA@ 000000018004c0a8     libucrt:nlsdata.obj
 0002:000070b0       ??_C@_17HFOLPPLP@?$AAF?$AAr?$AAi?$AA?$AA@ 000000018004c0b0     libucrt:nlsdata.obj
 0002:000070b8       ??_C@_17GGIBDPIH@?$AAS?$AAa?$AAt?$AA?$AA@ 000000018004c0b8     libucrt:nlsdata.obj
 0002:000070c0       ??_C@_1O@IHNHDHPB@?$AAS?$AAu?$AAn?$AAd?$AAa?$AAy?$AA?$AA@ 000000018004c0c0     libucrt:nlsdata.obj
 0002:000070d0       ??_C@_1O@MMNBFLIA@?$AAM?$AAo?$AAn?$AAd?$AAa?$AAy?$AA?$AA@ 000000018004c0d0     libucrt:nlsdata.obj
 0002:000070e0       ??_C@_1BA@ENFBFFEK@?$AAT?$AAu?$AAe?$AAs?$AAd?$AAa?$AAy?$AA?$AA@ 000000018004c0e0     libucrt:nlsdata.obj
 0002:000070f0       ??_C@_1BE@EBOGMDOH@?$AAW?$AAe?$AAd?$AAn?$AAe?$AAs?$AAd?$AAa?$AAy?$AA?$AA@ 000000018004c0f0     libucrt:nlsdata.obj
 0002:00007108       ??_C@_1BC@HHMNLIHE@?$AAT?$AAh?$AAu?$AAr?$AAs?$AAd?$AAa?$AAy?$AA?$AA@ 000000018004c108     libucrt:nlsdata.obj
 0002:00007120       ??_C@_1O@PDICJHAG@?$AAF?$AAr?$AAi?$AAd?$AAa?$AAy?$AA?$AA@ 000000018004c120     libucrt:nlsdata.obj
 0002:00007130       ??_C@_1BC@ENMNNPAJ@?$AAS?$AAa?$AAt?$AAu?$AAr?$AAd?$AAa?$AAy?$AA?$AA@ 000000018004c130     libucrt:nlsdata.obj
 0002:00007148       ??_C@_17DKNBKCHM@?$AAJ?$AAa?$AAn?$AA?$AA@ 000000018004c148     libucrt:nlsdata.obj
 0002:00007150       ??_C@_17LMDJEKJN@?$AAF?$AAe?$AAb?$AA?$AA@ 000000018004c150     libucrt:nlsdata.obj
 0002:00007158       ??_C@_17CKNLEDEC@?$AAM?$AAa?$AAr?$AA?$AA@ 000000018004c158     libucrt:nlsdata.obj
 0002:00007160       ??_C@_17LFPOIHDD@?$AAA?$AAp?$AAr?$AA?$AA@ 000000018004c160     libucrt:nlsdata.obj
 0002:00007168       ??_C@_17PNNKMEED@?$AAM?$AAa?$AAy?$AA?$AA@ 000000018004c168     libucrt:nlsdata.obj
 0002:00007170       ??_C@_17KCJGOCPB@?$AAJ?$AAu?$AAn?$AA?$AA@ 000000018004c170     libucrt:nlsdata.obj
 0002:00007178       ??_C@_17IJPCKHK@?$AAJ?$AAu?$AAl?$AA?$AA@ 000000018004c178     libucrt:nlsdata.obj
 0002:00007180       ??_C@_17ICPELBCN@?$AAA?$AAu?$AAg?$AA?$AA@ 000000018004c180     libucrt:nlsdata.obj
 0002:00007188       ??_C@_17HCHCOKMG@?$AAS?$AAe?$AAp?$AA?$AA@ 000000018004c188     libucrt:nlsdata.obj
 0002:00007190       ??_C@_17FNLKOI@?$AAO?$AAc?$AAt?$AA?$AA@ 000000018004c190     libucrt:nlsdata.obj
 0002:00007198       ??_C@_17BBDMLCIG@?$AAN?$AAo?$AAv?$AA?$AA@ 000000018004c198     libucrt:nlsdata.obj
 0002:000071a0       ??_C@_17EGKACKIF@?$AAD?$AAe?$AAc?$AA?$AA@ 000000018004c1a0     libucrt:nlsdata.obj
 0002:000071a8       ??_C@_1BA@EFMEIEBA@?$AAJ?$AAa?$AAn?$AAu?$AAa?$AAr?$AAy?$AA?$AA@ 000000018004c1a8     libucrt:nlsdata.obj
 0002:000071b8       ??_C@_1BC@JGDDFFAM@?$AAF?$AAe?$AAb?$AAr?$AAu?$AAa?$AAr?$AAy?$AA?$AA@ 000000018004c1b8     libucrt:nlsdata.obj
 0002:000071d0       ??_C@_1M@IKEENEDF@?$AAM?$AAa?$AAr?$AAc?$AAh?$AA?$AA@ 000000018004c1d0     libucrt:nlsdata.obj
 0002:000071e0       ??_C@_1M@GJNLMHFD@?$AAA?$AAp?$AAr?$AAi?$AAl?$AA?$AA@ 000000018004c1e0     libucrt:nlsdata.obj
 0002:000071f0       ??_C@_19EPFLPGAP@?$AAJ?$AAu?$AAn?$AAe?$AA?$AA@ 000000018004c1f0     libucrt:nlsdata.obj
 0002:00007200       ??_C@_19BIFMLPCD@?$AAJ?$AAu?$AAl?$AAy?$AA?$AA@ 000000018004c200     libucrt:nlsdata.obj
 0002:00007210       ??_C@_1O@PAHLKOAC@?$AAA?$AAu?$AAg?$AAu?$AAs?$AAt?$AA?$AA@ 000000018004c210     libucrt:nlsdata.obj
 0002:00007220       ??_C@_1BE@DKAAMBJL@?$AAS?$AAe?$AAp?$AAt?$AAe?$AAm?$AAb?$AAe?$AAr?$AA?$AA@ 000000018004c220     libucrt:nlsdata.obj
 0002:00007238       ??_C@_1BA@EPANDLNG@?$AAO?$AAc?$AAt?$AAo?$AAb?$AAe?$AAr?$AA?$AA@ 000000018004c238     libucrt:nlsdata.obj
 0002:00007248       ??_C@_1BC@BGLIFPF@?$AAN?$AAo?$AAv?$AAe?$AAm?$AAb?$AAe?$AAr?$AA?$AA@ 000000018004c248     libucrt:nlsdata.obj
 0002:00007260       ??_C@_1BC@FEMKIFH@?$AAD?$AAe?$AAc?$AAe?$AAm?$AAb?$AAe?$AAr?$AA?$AA@ 000000018004c260     libucrt:nlsdata.obj
 0002:00007274       ??_C@_15ODEHAHHF@?$AAA?$AAM?$AA?$AA@ 000000018004c274     libucrt:nlsdata.obj
 0002:0000727c       ??_C@_15CLMNNGEL@?$AAP?$AAM?$AA?$AA@ 000000018004c27c     libucrt:nlsdata.obj
 0002:00007288       ??_C@_1BC@IEBCMHCM@?$AAM?$AAM?$AA?1?$AAd?$AAd?$AA?1?$AAy?$AAy?$AA?$AA@ 000000018004c288     libucrt:nlsdata.obj
 0002:000072a0       ??_C@_1CI@KNAKOEBC@?$AAd?$AAd?$AAd?$AAd?$AA?0?$AA?5?$AAM?$AAM?$AAM?$AAM?$AA?5?$AAd?$AAd?$AA?0?$AA?5?$AAy?$AAy?$AAy?$AAy?$AA?$AA@ 000000018004c2a0     libucrt:nlsdata.obj
 0002:000072c8       ??_C@_1BC@GDGBMEMK@?$AAH?$AAH?$AA?3?$AAm?$AAm?$AA?3?$AAs?$AAs?$AA?$AA@ 000000018004c2c8     libucrt:nlsdata.obj
 0002:000074b0       ??_C@_03KHJOGHMM@exp?$AA@  000000018004c4b0     libucrt:fpexcept.obj
 0002:000074b4       ??_C@_03JGHBODFD@pow?$AA@  000000018004c4b4     libucrt:fpexcept.obj
 0002:000074b8       ??_C@_03MGHMBJCF@log?$AA@  000000018004c4b8     libucrt:fpexcept.obj
 0002:000074bc       ??_C@_05HGHHAHAP@log10?$AA@ 000000018004c4bc     libucrt:fpexcept.obj
 0002:000074c4       ??_C@_04COOMCNPB@sinh?$AA@ 000000018004c4c4     libucrt:fpexcept.obj
 0002:000074cc       ??_C@_04HPJJNFIM@cosh?$AA@ 000000018004c4cc     libucrt:fpexcept.obj
 0002:000074d4       ??_C@_04FJHINJAO@tanh?$AA@ 000000018004c4d4     libucrt:fpexcept.obj
 0002:000074dc       ??_C@_04FIHNOPOL@asin?$AA@ 000000018004c4dc     libucrt:fpexcept.obj
 0002:000074e4       ??_C@_04PDIFKINK@acos?$AA@ 000000018004c4e4     libucrt:fpexcept.obj
 0002:000074ec       ??_C@_04MLLJIGOK@atan?$AA@ 000000018004c4ec     libucrt:fpexcept.obj
 0002:000074f4       ??_C@_05KNGEOGJB@atan2?$AA@ 000000018004c4f4     libucrt:fpexcept.obj
 0002:000074fc       ??_C@_03BLEJJJBH@sin?$AA@  000000018004c4fc     libucrt:fpexcept.obj
 0002:00007500       ??_C@_03LALBNOCG@cos?$AA@  000000018004c500     libucrt:fpexcept.obj
 0002:00007504       ??_C@_03IIINPABG@tan?$AA@  000000018004c504     libucrt:fpexcept.obj
 0002:00007508       ??_C@_04GFPJNGEK@ceil?$AA@ 000000018004c508     libucrt:fpexcept.obj
 0002:00007510       ??_C@_05PBJFFIGL@floor?$AA@ 000000018004c510     libucrt:fpexcept.obj
 0002:00007518       ??_C@_04ODHECPBC@fabs?$AA@ 000000018004c518     libucrt:fpexcept.obj
 0002:00007520       ??_C@_04EHEDPDJG@modf?$AA@ 000000018004c520     libucrt:fpexcept.obj
 0002:00007528       ??_C@_05CEJMAHNP@ldexp?$AA@ 000000018004c528     libucrt:fpexcept.obj
 0002:00007530       ??_C@_05KBKMEMPO@_cabs?$AA@ 000000018004c530     libucrt:fpexcept.obj
 0002:00007538       ??_C@_06MEIMCGCF@_hypot?$AA@ 000000018004c538     libucrt:fpexcept.obj
 0002:00007540       ??_C@_04KEPJIHGP@fmod?$AA@ 000000018004c540     libucrt:fpexcept.obj
 0002:00007548       ??_C@_05GKKHEGJL@frexp?$AA@ 000000018004c548     libucrt:fpexcept.obj
 0002:00007550       ??_C@_03MJLDFKDL@_y0?$AA@  000000018004c550     libucrt:fpexcept.obj
 0002:00007554       ??_C@_03NAKIGLHK@_y1?$AA@  000000018004c554     libucrt:fpexcept.obj
 0002:00007558       ??_C@_03ONILCKOB@_yn?$AA@  000000018004c558     libucrt:fpexcept.obj
 0002:0000755c       ??_C@_05JGDBENOH@_logb?$AA@ 000000018004c55c     libucrt:fpexcept.obj
 0002:00007568       ??_C@_0L@KDOEJCKC@_nextafter?$AA@ 000000018004c568     libucrt:fpexcept.obj
 0002:00007578       _d_inf                     000000018004c578     libucrt:util.obj
 0002:00007580       _d_max                     000000018004c580     libucrt:util.obj
 0002:00007630       ??_C@_1EG@CNNIPFIM@?$AAa?$AAp?$AAi?$AA?9?$AAm?$AAs?$AA?9?$AAw?$AAi?$AAn?$AA?9?$AAa?$AAp?$AAp?$AAm?$AAo?$AAd?$AAe?$AAl?$AA?9?$AAr?$AAu?$AAn?$AAt?$AAi?$AAm?$AAe?$AA?9?$AAl?$AA1?$AA?9?$AA1@ 000000018004c630     libucrt:winapi_thunks.obj
 0002:00007680       ??_C@_1EA@JGEFHKEI@?$AAa?$AAp?$AAi?$AA?9?$AAm?$AAs?$AA?9?$AAw?$AAi?$AAn?$AA?9?$AAc?$AAo?$AAr?$AAe?$AA?9?$AAd?$AAa?$AAt?$AAe?$AAt?$AAi?$AAm?$AAe?$AA?9?$AAl?$AA1?$AA?9?$AA1?$AA?9?$AA1?$AA?$AA@ 000000018004c680     libucrt:winapi_thunks.obj
 0002:000076c0       ??_C@_1DI@GCIAAENM@?$AAa?$AAp?$AAi?$AA?9?$AAm?$AAs?$AA?9?$AAw?$AAi?$AAn?$AA?9?$AAc?$AAo?$AAr?$AAe?$AA?9?$AAf?$AAi?$AAl?$AAe?$AA?9?$AAl?$AA2?$AA?9?$AA1?$AA?9?$AA1?$AA?$AA@ 000000018004c6c0     libucrt:winapi_thunks.obj
 0002:00007700       ??_C@_1EI@MPIAOHOC@?$AAa?$AAp?$AAi?$AA?9?$AAm?$AAs?$AA?9?$AAw?$AAi?$AAn?$AA?9?$AAc?$AAo?$AAr?$AAe?$AA?9?$AAl?$AAo?$AAc?$AAa?$AAl?$AAi?$AAz?$AAa?$AAt?$AAi?$AAo?$AAn?$AA?9?$AAl?$AA1?$AA?9@ 000000018004c700     libucrt:winapi_thunks.obj
 0002:00007750       ??_C@_1FK@FPHCKFIE@?$AAa?$AAp?$AAi?$AA?9?$AAm?$AAs?$AA?9?$AAw?$AAi?$AAn?$AA?9?$AAc?$AAo?$AAr?$AAe?$AA?9?$AAl?$AAo?$AAc?$AAa?$AAl?$AAi?$AAz?$AAa?$AAt?$AAi?$AAo?$AAn?$AA?9?$AAo?$AAb?$AAs@ 000000018004c750     libucrt:winapi_thunks.obj
 0002:000077b0       ??_C@_1EM@DILCGIIO@?$AAa?$AAp?$AAi?$AA?9?$AAm?$AAs?$AA?9?$AAw?$AAi?$AAn?$AA?9?$AAc?$AAo?$AAr?$AAe?$AA?9?$AAp?$AAr?$AAo?$AAc?$AAe?$AAs?$AAs?$AAt?$AAh?$AAr?$AAe?$AAa?$AAd?$AAs?$AA?9?$AAl@ 000000018004c7b0     libucrt:winapi_thunks.obj
 0002:00007800       ??_C@_1DM@LNCGDDPN@?$AAa?$AAp?$AAi?$AA?9?$AAm?$AAs?$AA?9?$AAw?$AAi?$AAn?$AA?9?$AAc?$AAo?$AAr?$AAe?$AA?9?$AAs?$AAt?$AAr?$AAi?$AAn?$AAg?$AA?9?$AAl?$AA1?$AA?9?$AA1?$AA?9?$AA0?$AA?$AA@ 000000018004c800     libucrt:winapi_thunks.obj
 0002:00007840       ??_C@_1DO@FPAPJEMD@?$AAa?$AAp?$AAi?$AA?9?$AAm?$AAs?$AA?9?$AAw?$AAi?$AAn?$AA?9?$AAc?$AAo?$AAr?$AAe?$AA?9?$AAs?$AAy?$AAs?$AAi?$AAn?$AAf?$AAo?$AA?9?$AAl?$AA1?$AA?9?$AA2?$AA?9?$AA1?$AA?$AA@ 000000018004c840     libucrt:winapi_thunks.obj
 0002:00007880       ??_C@_1DK@NDHNAHIO@?$AAa?$AAp?$AAi?$AA?9?$AAm?$AAs?$AA?9?$AAw?$AAi?$AAn?$AA?9?$AAc?$AAo?$AAr?$AAe?$AA?9?$AAw?$AAi?$AAn?$AAr?$AAt?$AA?9?$AAl?$AA1?$AA?9?$AA1?$AA?9?$AA0?$AA?$AA@ 000000018004c880     libucrt:winapi_thunks.obj
 0002:000078c0       ??_C@_1DM@KGHDGBCM@?$AAa?$AAp?$AAi?$AA?9?$AAm?$AAs?$AA?9?$AAw?$AAi?$AAn?$AA?9?$AAc?$AAo?$AAr?$AAe?$AA?9?$AAx?$AAs?$AAt?$AAa?$AAt?$AAe?$AA?9?$AAl?$AA2?$AA?9?$AA1?$AA?9?$AA0?$AA?$AA@ 000000018004c8c0     libucrt:winapi_thunks.obj
 0002:00007900       ??_C@_1EO@IJIOEFOH@?$AAa?$AAp?$AAi?$AA?9?$AAm?$AAs?$AA?9?$AAw?$AAi?$AAn?$AA?9?$AAr?$AAt?$AAc?$AAo?$AAr?$AAe?$AA?9?$AAn?$AAt?$AAu?$AAs?$AAe?$AAr?$AA?9?$AAw?$AAi?$AAn?$AAd?$AAo?$AAw?$AA?9@ 000000018004c900     libucrt:winapi_thunks.obj
 0002:00007950       ??_C@_1FG@HHGEKANL@?$AAa?$AAp?$AAi?$AA?9?$AAm?$AAs?$AA?9?$AAw?$AAi?$AAn?$AA?9?$AAs?$AAe?$AAc?$AAu?$AAr?$AAi?$AAt?$AAy?$AA?9?$AAs?$AAy?$AAs?$AAt?$AAe?$AAm?$AAf?$AAu?$AAn?$AAc?$AAt?$AAi@ 000000018004c950     libucrt:winapi_thunks.obj
 0002:000079b0       ??_C@_1FG@NCKKOLKO@?$AAe?$AAx?$AAt?$AA?9?$AAm?$AAs?$AA?9?$AAw?$AAi?$AAn?$AA?9?$AAk?$AAe?$AAr?$AAn?$AAe?$AAl?$AA3?$AA2?$AA?9?$AAp?$AAa?$AAc?$AAk?$AAa?$AAg?$AAe?$AA?9?$AAc?$AAu?$AAr?$AAr@ 000000018004c9b0     libucrt:winapi_thunks.obj
 0002:00007a10       ??_C@_1EG@DBIOJECG@?$AAe?$AAx?$AAt?$AA?9?$AAm?$AAs?$AA?9?$AAw?$AAi?$AAn?$AA?9?$AAn?$AAt?$AAu?$AAs?$AAe?$AAr?$AA?9?$AAd?$AAi?$AAa?$AAl?$AAo?$AAg?$AAb?$AAo?$AAx?$AA?9?$AAl?$AA1?$AA?9?$AA1@ 000000018004ca10     libucrt:winapi_thunks.obj
 0002:00007a60       ??_C@_1EO@FIHMJCLF@?$AAe?$AAx?$AAt?$AA?9?$AAm?$AAs?$AA?9?$AAw?$AAi?$AAn?$AA?9?$AAn?$AAt?$AAu?$AAs?$AAe?$AAr?$AA?9?$AAw?$AAi?$AAn?$AAd?$AAo?$AAw?$AAs?$AAt?$AAa?$AAt?$AAi?$AAo?$AAn?$AA?9@ 000000018004ca60     libucrt:winapi_thunks.obj
 0002:00007ab0       ??_C@_1O@BCCLBEOE@?$AAu?$AAs?$AAe?$AAr?$AA3?$AA2?$AA?$AA@ 000000018004cab0     libucrt:winapi_thunks.obj
 0002:00007ad0       ??_C@_0BE@LJANKFHF@EnumSystemLocalesEx?$AA@ 000000018004cad0     libucrt:winapi_thunks.obj
 0002:00007b10       ??_C@_0BA@HNOPNCHB@GetActiveWindow?$AA@ 000000018004cb10     libucrt:winapi_thunks.obj
 0002:00007b30       ??_C@_0BD@HHGDFDBJ@GetLastActivePopup?$AA@ 000000018004cb30     libucrt:winapi_thunks.obj
 0002:00007b58       ??_C@_0BI@DFKBFLJE@GetProcessWindowStation?$AA@ 000000018004cb58     libucrt:winapi_thunks.obj
 0002:00007b78       ??_C@_0BJ@PBCCBIPI@GetUserDefaultLocaleName?$AA@ 000000018004cb78     libucrt:winapi_thunks.obj
 0002:00007ba0       ??_C@_0BK@DEKFELLI@GetUserObjectInformationW?$AA@ 000000018004cba0     libucrt:winapi_thunks.obj
 0002:00007bd0       ??_C@_0BC@CELBKLLA@IsValidLocaleName?$AA@ 000000018004cbd0     libucrt:winapi_thunks.obj
 0002:00007bf8       ??_C@_0BB@CDHDDLLP@LCIDToLocaleName?$AA@ 000000018004cbf8     libucrt:winapi_thunks.obj
 0002:00007c18       ??_C@_0BB@HBDEELFH@LocaleNameToLCID?$AA@ 000000018004cc18     libucrt:winapi_thunks.obj
 0002:00007c38       ??_C@_0M@CHKKJDAI@MessageBoxA?$AA@ 000000018004cc38     libucrt:winapi_thunks.obj
 0002:00007c50       ??_C@_0M@DLDCCGNP@MessageBoxW?$AA@ 000000018004cc50     libucrt:winapi_thunks.obj
 0002:00007c80       ?large_power_data@?1??multiply_by_power_of_ten@__crt_strtox@@YA_NAEAUbig_integer@2@I@Z@4QBIB 000000018004cc80     libucrt:cfout.obj
 0002:00008590       ?large_power_indices@?1??multiply_by_power_of_ten@__crt_strtox@@YA_NAEAUbig_integer@2@I@Z@4QBUunpack_index@?1??12@YA_N0I@Z@B 000000018004d590     libucrt:cfout.obj
 0002:00008628       ?small_powers_of_ten@?6??multiply_by_power_of_ten@__crt_strtox@@YA_NAEAUbig_integer@2@I@Z@4QBIB 000000018004d628     libucrt:cfout.obj
 0002:0000864c       ??_C@_01GBGANLPD@0?$AA@    000000018004d64c     libucrt:cfout.obj
 0002:00008650       ??_C@_05DNEBIAHO@1?$CDINF?$AA@ 000000018004d650     libucrt:cfout.obj
 0002:00008658       ??_C@_06IMKFLFPG@1?$CDQNAN?$AA@ 000000018004d658     libucrt:cfout.obj
 0002:00008660       ??_C@_06PGGFOGJG@1?$CDSNAN?$AA@ 000000018004d660     libucrt:cfout.obj
 0002:00008668       ??_C@_05PHHOCPM@1?$CDIND?$AA@ 000000018004d668     libucrt:cfout.obj
 0002:00008670       __acrt_rg_language         000000018004d670     libucrt:get_qualified_locale.obj
 0002:00008a80       __acrt_rg_language_count   000000018004da80     libucrt:get_qualified_locale.obj
 0002:00008a90       __acrt_rg_country          000000018004da90     libucrt:get_qualified_locale.obj
 0002:00008c00       __acrt_rg_country_count    000000018004dc00     libucrt:get_qualified_locale.obj
 0002:00008c08       ??_C@_1BC@LLOKLNP@?$AAa?$AAm?$AAe?$AAr?$AAi?$AAc?$AAa?$AAn?$AA?$AA@ 000000018004dc08     libucrt:get_qualified_locale.obj
 0002:00008c20       ??_C@_1CC@HEIGCDGG@?$AAa?$AAm?$AAe?$AAr?$AAi?$AAc?$AAa?$AAn?$AA?5?$AAe?$AAn?$AAg?$AAl?$AAi?$AAs?$AAh?$AA?$AA@ 000000018004dc20     libucrt:get_qualified_locale.obj
 0002:00008c48       ??_C@_1CC@IHCNOMIN@?$AAa?$AAm?$AAe?$AAr?$AAi?$AAc?$AAa?$AAn?$AA?9?$AAe?$AAn?$AAg?$AAl?$AAi?$AAs?$AAh?$AA?$AA@ 000000018004dc48     libucrt:get_qualified_locale.obj
 0002:00008c70       ??_C@_1BG@GKAGPCGG@?$AAa?$AAu?$AAs?$AAt?$AAr?$AAa?$AAl?$AAi?$AAa?$AAn?$AA?$AA@ 000000018004dc70     libucrt:get_qualified_locale.obj
 0002:00008c88       ??_C@_1BA@GMENCENF@?$AAb?$AAe?$AAl?$AAg?$AAi?$AAa?$AAn?$AA?$AA@ 000000018004dc88     libucrt:get_qualified_locale.obj
 0002:00008c98       ??_C@_1BC@PJMIIAAN@?$AAc?$AAa?$AAn?$AAa?$AAd?$AAi?$AAa?$AAn?$AA?$AA@ 000000018004dc98     libucrt:get_qualified_locale.obj
 0002:00008cb0       ??_C@_17NOIMNFBF@?$AAc?$AAh?$AAh?$AA?$AA@ 000000018004dcb0     libucrt:get_qualified_locale.obj
 0002:00008cb8       ??_C@_17GGDALCHA@?$AAc?$AAh?$AAi?$AA?$AA@ 000000018004dcb8     libucrt:get_qualified_locale.obj
 0002:00008cc0       ??_C@_1BA@NPNJKIBL@?$AAc?$AAh?$AAi?$AAn?$AAe?$AAs?$AAe?$AA?$AA@ 000000018004dcc0     libucrt:get_qualified_locale.obj
 0002:00008cd0       ??_C@_1CC@DINBAMMJ@?$AAc?$AAh?$AAi?$AAn?$AAe?$AAs?$AAe?$AA?9?$AAh?$AAo?$AAn?$AAg?$AAk?$AAo?$AAn?$AAg?$AA?$AA@ 000000018004dcd0     libucrt:get_qualified_locale.obj
 0002:00008cf8       ??_C@_1CG@IOBJPACO@?$AAc?$AAh?$AAi?$AAn?$AAe?$AAs?$AAe?$AA?9?$AAs?$AAi?$AAm?$AAp?$AAl?$AAi?$AAf?$AAi?$AAe?$AAd?$AA?$AA@ 000000018004dcf8     libucrt:get_qualified_locale.obj
 0002:00008d20       ??_C@_1CE@GAJNDCKG@?$AAc?$AAh?$AAi?$AAn?$AAe?$AAs?$AAe?$AA?9?$AAs?$AAi?$AAn?$AAg?$AAa?$AAp?$AAo?$AAr?$AAe?$AA?$AA@ 000000018004dd20     libucrt:get_qualified_locale.obj
 0002:00008d48       ??_C@_1CI@PAJPIOOD@?$AAc?$AAh?$AAi?$AAn?$AAe?$AAs?$AAe?$AA?9?$AAt?$AAr?$AAa?$AAd?$AAi?$AAt?$AAi?$AAo?$AAn?$AAa?$AAl?$AA?$AA@ 000000018004dd48     libucrt:get_qualified_locale.obj
 0002:00008d70       ??_C@_1BM@NILJBMMD@?$AAd?$AAu?$AAt?$AAc?$AAh?$AA?9?$AAb?$AAe?$AAl?$AAg?$AAi?$AAa?$AAn?$AA?$AA@ 000000018004dd70     libucrt:get_qualified_locale.obj
 0002:00008d90       ??_C@_1CC@OOJPJNEJ@?$AAe?$AAn?$AAg?$AAl?$AAi?$AAs?$AAh?$AA?9?$AAa?$AAm?$AAe?$AAr?$AAi?$AAc?$AAa?$AAn?$AA?$AA@ 000000018004dd90     libucrt:get_qualified_locale.obj
 0002:00008db8       ??_C@_1BI@IOLFEEM@?$AAe?$AAn?$AAg?$AAl?$AAi?$AAs?$AAh?$AA?9?$AAa?$AAu?$AAs?$AA?$AA@ 000000018004ddb8     libucrt:get_qualified_locale.obj
 0002:00008dd0       ??_C@_1BO@HFFNLENJ@?$AAe?$AAn?$AAg?$AAl?$AAi?$AAs?$AAh?$AA?9?$AAb?$AAe?$AAl?$AAi?$AAz?$AAe?$AA?$AA@ 000000018004ddd0     libucrt:get_qualified_locale.obj
 0002:00008df0       ??_C@_1BI@HAPKJMPO@?$AAe?$AAn?$AAg?$AAl?$AAi?$AAs?$AAh?$AA?9?$AAc?$AAa?$AAn?$AA?$AA@ 000000018004ddf0     libucrt:get_qualified_locale.obj
 0002:00008e08       ??_C@_1CE@HLNDMIOJ@?$AAe?$AAn?$AAg?$AAl?$AAi?$AAs?$AAh?$AA?9?$AAc?$AAa?$AAr?$AAi?$AAb?$AAb?$AAe?$AAa?$AAn?$AA?$AA@ 000000018004de08     libucrt:get_qualified_locale.obj
 0002:00008e30       ??_C@_1BI@LDHJHHAC@?$AAe?$AAn?$AAg?$AAl?$AAi?$AAs?$AAh?$AA?9?$AAi?$AAr?$AAe?$AA?$AA@ 000000018004de30     libucrt:get_qualified_locale.obj
 0002:00008e48       ??_C@_1CA@NJMMCFOC@?$AAe?$AAn?$AAg?$AAl?$AAi?$AAs?$AAh?$AA?9?$AAj?$AAa?$AAm?$AAa?$AAi?$AAc?$AAa?$AA?$AA@ 000000018004de48     libucrt:get_qualified_locale.obj
 0002:00008e68       ??_C@_1BG@BHJEBBGG@?$AAe?$AAn?$AAg?$AAl?$AAi?$AAs?$AAh?$AA?9?$AAn?$AAz?$AA?$AA@ 000000018004de68     libucrt:get_qualified_locale.obj
 0002:00008e80       ??_C@_1CK@FGOEJJCO@?$AAe?$AAn?$AAg?$AAl?$AAi?$AAs?$AAh?$AA?9?$AAs?$AAo?$AAu?$AAt?$AAh?$AA?5?$AAa?$AAf?$AAr?$AAi?$AAc?$AAa?$AA?$AA@ 000000018004de80     libucrt:get_qualified_locale.obj
 0002:00008eb0       ??_C@_1DE@PDBJPCJ@?$AAe?$AAn?$AAg?$AAl?$AAi?$AAs?$AAh?$AA?9?$AAt?$AAr?$AAi?$AAn?$AAi?$AAd?$AAa?$AAd?$AA?5?$AAy?$AA?5?$AAt?$AAo?$AAb?$AAa?$AAg?$AAo?$AA?$AA@ 000000018004deb0     libucrt:get_qualified_locale.obj
 0002:00008ee8       ??_C@_1BG@JGCANDME@?$AAe?$AAn?$AAg?$AAl?$AAi?$AAs?$AAh?$AA?9?$AAu?$AAk?$AA?$AA@ 000000018004dee8     libucrt:get_qualified_locale.obj
 0002:00008f00       ??_C@_1BG@DINKMLE@?$AAe?$AAn?$AAg?$AAl?$AAi?$AAs?$AAh?$AA?9?$AAu?$AAs?$AA?$AA@ 000000018004df00     libucrt:get_qualified_locale.obj
 0002:00008f18       ??_C@_1BI@NMFDBHJE@?$AAe?$AAn?$AAg?$AAl?$AAi?$AAs?$AAh?$AA?9?$AAu?$AAs?$AAa?$AA?$AA@ 000000018004df18     libucrt:get_qualified_locale.obj
 0002:00008f30       ??_C@_1BO@OIHKJKII@?$AAf?$AAr?$AAe?$AAn?$AAc?$AAh?$AA?9?$AAb?$AAe?$AAl?$AAg?$AAi?$AAa?$AAn?$AA?$AA@ 000000018004df30     libucrt:get_qualified_locale.obj
 0002:00008f50       ??_C@_1CA@NKAELJKI@?$AAf?$AAr?$AAe?$AAn?$AAc?$AAh?$AA?9?$AAc?$AAa?$AAn?$AAa?$AAd?$AAi?$AAa?$AAn?$AA?$AA@ 000000018004df50     libucrt:get_qualified_locale.obj
 0002:00008f70       ??_C@_1CE@MGKCNLGN@?$AAf?$AAr?$AAe?$AAn?$AAc?$AAh?$AA?9?$AAl?$AAu?$AAx?$AAe?$AAm?$AAb?$AAo?$AAu?$AAr?$AAg?$AA?$AA@ 000000018004df70     libucrt:get_qualified_locale.obj
 0002:00008f98       ??_C@_1BK@CEGEAILM@?$AAf?$AAr?$AAe?$AAn?$AAc?$AAh?$AA?9?$AAs?$AAw?$AAi?$AAs?$AAs?$AA?$AA@ 000000018004df98     libucrt:get_qualified_locale.obj
 0002:00008fb8       ??_C@_1CA@PAFKEOCC@?$AAg?$AAe?$AAr?$AAm?$AAa?$AAn?$AA?9?$AAa?$AAu?$AAs?$AAt?$AAr?$AAi?$AAa?$AAn?$AA?$AA@ 000000018004dfb8     libucrt:get_qualified_locale.obj
 0002:00008fd8       ??_C@_1CI@HCFHGOFD@?$AAg?$AAe?$AAr?$AAm?$AAa?$AAn?$AA?9?$AAl?$AAi?$AAc?$AAh?$AAt?$AAe?$AAn?$AAs?$AAt?$AAe?$AAi?$AAn?$AA?$AA@ 000000018004dfd8     libucrt:get_qualified_locale.obj
 0002:00009000       ??_C@_1CE@FEDDNPDG@?$AAg?$AAe?$AAr?$AAm?$AAa?$AAn?$AA?9?$AAl?$AAu?$AAx?$AAe?$AAm?$AAb?$AAo?$AAu?$AAr?$AAg?$AA?$AA@ 000000018004e000     libucrt:get_qualified_locale.obj
 0002:00009028       ??_C@_1BK@LIMINNMN@?$AAg?$AAe?$AAr?$AAm?$AAa?$AAn?$AA?9?$AAs?$AAw?$AAi?$AAs?$AAs?$AA?$AA@ 000000018004e028     libucrt:get_qualified_locale.obj
 0002:00009048       ??_C@_1BM@LGMDBEPD@?$AAi?$AAr?$AAi?$AAs?$AAh?$AA?9?$AAe?$AAn?$AAg?$AAl?$AAi?$AAs?$AAh?$AA?$AA@ 000000018004e048     libucrt:get_qualified_locale.obj
 0002:00009068       ??_C@_1BM@NNCFBAEE@?$AAi?$AAt?$AAa?$AAl?$AAi?$AAa?$AAn?$AA?9?$AAs?$AAw?$AAi?$AAs?$AAs?$AA?$AA@ 000000018004e068     libucrt:get_qualified_locale.obj
 0002:00009088       ??_C@_1BE@FEDJNPIB@?$AAn?$AAo?$AAr?$AAw?$AAe?$AAg?$AAi?$AAa?$AAn?$AA?$AA@ 000000018004e088     libucrt:get_qualified_locale.obj
 0002:000090a0       ??_C@_1CC@CILKDEIE@?$AAn?$AAo?$AAr?$AAw?$AAe?$AAg?$AAi?$AAa?$AAn?$AA?9?$AAb?$AAo?$AAk?$AAm?$AAa?$AAl?$AA?$AA@ 000000018004e0a0     libucrt:get_qualified_locale.obj
 0002:000090c8       ??_C@_1CE@DHMMHEPL@?$AAn?$AAo?$AAr?$AAw?$AAe?$AAg?$AAi?$AAa?$AAn?$AA?9?$AAn?$AAy?$AAn?$AAo?$AAr?$AAs?$AAk?$AA?$AA@ 000000018004e0c8     libucrt:get_qualified_locale.obj
 0002:000090f0       ??_C@_1CK@OPNMHECD@?$AAp?$AAo?$AAr?$AAt?$AAu?$AAg?$AAu?$AAe?$AAs?$AAe?$AA?9?$AAb?$AAr?$AAa?$AAz?$AAi?$AAl?$AAi?$AAa?$AAn?$AA?$AA@ 000000018004e0f0     libucrt:get_qualified_locale.obj
 0002:00009120       ??_C@_1CE@KEEHCDB@?$AAs?$AAp?$AAa?$AAn?$AAi?$AAs?$AAh?$AA?9?$AAa?$AAr?$AAg?$AAe?$AAn?$AAt?$AAi?$AAn?$AAa?$AA?$AA@ 000000018004e120     libucrt:get_qualified_locale.obj
 0002:00009148       ??_C@_1CA@GIAOLHJD@?$AAs?$AAp?$AAa?$AAn?$AAi?$AAs?$AAh?$AA?9?$AAb?$AAo?$AAl?$AAi?$AAv?$AAi?$AAa?$AA?$AA@ 000000018004e148     libucrt:get_qualified_locale.obj
 0002:00009168       ??_C@_1BM@OJNDFNPD@?$AAs?$AAp?$AAa?$AAn?$AAi?$AAs?$AAh?$AA?9?$AAc?$AAh?$AAi?$AAl?$AAe?$AA?$AA@ 000000018004e168     libucrt:get_qualified_locale.obj
 0002:00009188       ??_C@_1CC@OCOLPALL@?$AAs?$AAp?$AAa?$AAn?$AAi?$AAs?$AAh?$AA?9?$AAc?$AAo?$AAl?$AAo?$AAm?$AAb?$AAi?$AAa?$AA?$AA@ 000000018004e188     libucrt:get_qualified_locale.obj
 0002:000091b0       ??_C@_1CG@BPOFMKBB@?$AAs?$AAp?$AAa?$AAn?$AAi?$AAs?$AAh?$AA?9?$AAc?$AAo?$AAs?$AAt?$AAa?$AA?5?$AAr?$AAi?$AAc?$AAa?$AA?$AA@ 000000018004e1b0     libucrt:get_qualified_locale.obj
 0002:000091d8       ??_C@_1DG@IGOBAPBB@?$AAs?$AAp?$AAa?$AAn?$AAi?$AAs?$AAh?$AA?9?$AAd?$AAo?$AAm?$AAi?$AAn?$AAi?$AAc?$AAa?$AAn?$AA?5?$AAr?$AAe?$AAp?$AAu?$AAb?$AAl?$AAi?$AAc?$AA?$AA@ 000000018004e1d8     libucrt:get_qualified_locale.obj
 0002:00009210       ??_C@_1CA@JHAPGEGI@?$AAs?$AAp?$AAa?$AAn?$AAi?$AAs?$AAh?$AA?9?$AAe?$AAc?$AAu?$AAa?$AAd?$AAo?$AAr?$AA?$AA@ 000000018004e210     libucrt:get_qualified_locale.obj
 0002:00009230       ??_C@_1CI@LAPALJPP@?$AAs?$AAp?$AAa?$AAn?$AAi?$AAs?$AAh?$AA?9?$AAe?$AAl?$AA?5?$AAs?$AAa?$AAl?$AAv?$AAa?$AAd?$AAo?$AAr?$AA?$AA@ 000000018004e230     libucrt:get_qualified_locale.obj
 0002:00009258       ??_C@_1CE@PDGBOFOM@?$AAs?$AAp?$AAa?$AAn?$AAi?$AAs?$AAh?$AA?9?$AAg?$AAu?$AAa?$AAt?$AAe?$AAm?$AAa?$AAl?$AAa?$AA?$AA@ 000000018004e258     libucrt:get_qualified_locale.obj
 0002:00009280       ??_C@_1CC@NBEBAODI@?$AAs?$AAp?$AAa?$AAn?$AAi?$AAs?$AAh?$AA?9?$AAh?$AAo?$AAn?$AAd?$AAu?$AAr?$AAa?$AAs?$AA?$AA@ 000000018004e280     libucrt:get_qualified_locale.obj
 0002:000092a8       ??_C@_1CA@LLKGHBMF@?$AAs?$AAp?$AAa?$AAn?$AAi?$AAs?$AAh?$AA?9?$AAm?$AAe?$AAx?$AAi?$AAc?$AAa?$AAn?$AA?$AA@ 000000018004e2a8     libucrt:get_qualified_locale.obj
 0002:000092c8       ??_C@_1BO@LKNDOIGD@?$AAs?$AAp?$AAa?$AAn?$AAi?$AAs?$AAh?$AA?9?$AAm?$AAo?$AAd?$AAe?$AAr?$AAn?$AA?$AA@ 000000018004e2c8     libucrt:get_qualified_locale.obj
 0002:000092e8       ??_C@_1CE@NMDMOEEB@?$AAs?$AAp?$AAa?$AAn?$AAi?$AAs?$AAh?$AA?9?$AAn?$AAi?$AAc?$AAa?$AAr?$AAa?$AAg?$AAu?$AAa?$AA?$AA@ 000000018004e2e8     libucrt:get_qualified_locale.obj
 0002:00009310       ??_C@_1BO@LLCBEJGB@?$AAs?$AAp?$AAa?$AAn?$AAi?$AAs?$AAh?$AA?9?$AAp?$AAa?$AAn?$AAa?$AAm?$AAa?$AA?$AA@ 000000018004e310     libucrt:get_qualified_locale.obj
 0002:00009330       ??_C@_1CC@FKPGGIHO@?$AAs?$AAp?$AAa?$AAn?$AAi?$AAs?$AAh?$AA?9?$AAp?$AAa?$AAr?$AAa?$AAg?$AAu?$AAa?$AAy?$AA?$AA@ 000000018004e330     libucrt:get_qualified_locale.obj
 0002:00009358       ??_C@_1BK@CDEIHOOP@?$AAs?$AAp?$AAa?$AAn?$AAi?$AAs?$AAh?$AA?9?$AAp?$AAe?$AAr?$AAu?$AA?$AA@ 000000018004e358     libucrt:get_qualified_locale.obj
 0002:00009378       ??_C@_1CI@GAHAKKGP@?$AAs?$AAp?$AAa?$AAn?$AAi?$AAs?$AAh?$AA?9?$AAp?$AAu?$AAe?$AAr?$AAt?$AAo?$AA?5?$AAr?$AAi?$AAc?$AAo?$AA?$AA@ 000000018004e378     libucrt:get_qualified_locale.obj
 0002:000093a0       ??_C@_1CA@NKJBCAGP@?$AAs?$AAp?$AAa?$AAn?$AAi?$AAs?$AAh?$AA?9?$AAu?$AAr?$AAu?$AAg?$AAu?$AAa?$AAy?$AA?$AA@ 000000018004e3a0     libucrt:get_qualified_locale.obj
 0002:000093c0       ??_C@_1CE@ODILCONM@?$AAs?$AAp?$AAa?$AAn?$AAi?$AAs?$AAh?$AA?9?$AAv?$AAe?$AAn?$AAe?$AAz?$AAu?$AAe?$AAl?$AAa?$AA?$AA@ 000000018004e3c0     libucrt:get_qualified_locale.obj
 0002:000093e8       ??_C@_1CA@OBNMCGFO@?$AAs?$AAw?$AAe?$AAd?$AAi?$AAs?$AAh?$AA?9?$AAf?$AAi?$AAn?$AAl?$AAa?$AAn?$AAd?$AA?$AA@ 000000018004e3e8     libucrt:get_qualified_locale.obj
 0002:00009408       ??_C@_1M@PIPDDPPI@?$AAs?$AAw?$AAi?$AAs?$AAs?$AA?$AA@ 000000018004e408     libucrt:get_qualified_locale.obj
 0002:00009414       ??_C@_15GMFIMNFM@?$AAu?$AAs?$AA?$AA@ 000000018004e414     libucrt:get_qualified_locale.obj
 0002:00009420       ??_C@_17HAEBFAGL@?$AAu?$AAs?$AAa?$AA?$AA@ 000000018004e420     libucrt:get_qualified_locale.obj
 0002:00009428       ??_C@_1BA@DPFJEPHB@?$AAa?$AAm?$AAe?$AAr?$AAi?$AAc?$AAa?$AA?$AA@ 000000018004e428     libucrt:get_qualified_locale.obj
 0002:00009438       ??_C@_1BA@ELOGGFK@?$AAb?$AAr?$AAi?$AAt?$AAa?$AAi?$AAn?$AA?$AA@ 000000018004e438     libucrt:get_qualified_locale.obj
 0002:00009448       ??_C@_1M@GHBGIGDA@?$AAc?$AAh?$AAi?$AAn?$AAa?$AA?$AA@ 000000018004e448     libucrt:get_qualified_locale.obj
 0002:00009458       ??_C@_1M@NCHEJOPO@?$AAc?$AAz?$AAe?$AAc?$AAh?$AA?$AA@ 000000018004e458     libucrt:get_qualified_locale.obj
 0002:00009468       ??_C@_1BA@BKPAPBLA@?$AAe?$AAn?$AAg?$AAl?$AAa?$AAn?$AAd?$AA?$AA@ 000000018004e468     libucrt:get_qualified_locale.obj
 0002:00009478       ??_C@_1BM@HKBCKIPC@?$AAg?$AAr?$AAe?$AAa?$AAt?$AA?5?$AAb?$AAr?$AAi?$AAt?$AAa?$AAi?$AAn?$AA?$AA@ 000000018004e478     libucrt:get_qualified_locale.obj
 0002:00009498       ??_C@_1BA@PPCHPGJB@?$AAh?$AAo?$AAl?$AAl?$AAa?$AAn?$AAd?$AA?$AA@ 000000018004e498     libucrt:get_qualified_locale.obj
 0002:000094a8       ??_C@_1BE@JBMPEGDG@?$AAh?$AAo?$AAn?$AAg?$AA?9?$AAk?$AAo?$AAn?$AAg?$AA?$AA@ 000000018004e4a8     libucrt:get_qualified_locale.obj
 0002:000094c0       ??_C@_1BI@KOELBBPJ@?$AAn?$AAe?$AAw?$AA?9?$AAz?$AAe?$AAa?$AAl?$AAa?$AAn?$AAd?$AA?$AA@ 000000018004e4c0     libucrt:get_qualified_locale.obj
 0002:000094d8       ??_C@_15HIEBHAIO@?$AAn?$AAz?$AA?$AA@ 000000018004e4d8     libucrt:get_qualified_locale.obj
 0002:000094e0       ??_C@_1BC@CHBCPFPI@?$AAp?$AAr?$AA?5?$AAc?$AAh?$AAi?$AAn?$AAa?$AA?$AA@ 000000018004e4e0     libucrt:get_qualified_locale.obj
 0002:000094f8       ??_C@_1BC@JAOIIFKD@?$AAp?$AAr?$AA?9?$AAc?$AAh?$AAi?$AAn?$AAa?$AA?$AA@ 000000018004e4f8     libucrt:get_qualified_locale.obj
 0002:00009510       ??_C@_1BI@BEHPPHKC@?$AAp?$AAu?$AAe?$AAr?$AAt?$AAo?$AA?9?$AAr?$AAi?$AAc?$AAo?$AA?$AA@ 000000018004e510     libucrt:get_qualified_locale.obj
 0002:00009528       ??_C@_1O@PAEOFKDI@?$AAs?$AAl?$AAo?$AAv?$AAa?$AAk?$AA?$AA@ 000000018004e528     libucrt:get_qualified_locale.obj
 0002:00009538       ??_C@_1BK@FIHMCKAM@?$AAs?$AAo?$AAu?$AAt?$AAh?$AA?5?$AAa?$AAf?$AAr?$AAi?$AAc?$AAa?$AA?$AA@ 000000018004e538     libucrt:get_qualified_locale.obj
 0002:00009558       ??_C@_1BI@NAEOODKB@?$AAs?$AAo?$AAu?$AAt?$AAh?$AA?5?$AAk?$AAo?$AAr?$AAe?$AAa?$AA?$AA@ 000000018004e558     libucrt:get_qualified_locale.obj
 0002:00009570       ??_C@_1BK@FBDGGIFF@?$AAs?$AAo?$AAu?$AAt?$AAh?$AA?9?$AAa?$AAf?$AAr?$AAi?$AAc?$AAa?$AA?$AA@ 000000018004e570     libucrt:get_qualified_locale.obj
 0002:00009590       ??_C@_1BI@GHLEJDPK@?$AAs?$AAo?$AAu?$AAt?$AAh?$AA?9?$AAk?$AAo?$AAr?$AAe?$AAa?$AA?$AA@ 000000018004e590     libucrt:get_qualified_locale.obj
 0002:000095a8       ??_C@_1CE@PLHLOMJF@?$AAt?$AAr?$AAi?$AAn?$AAi?$AAd?$AAa?$AAd?$AA?5?$AA?$CG?$AA?5?$AAt?$AAo?$AAb?$AAa?$AAg?$AAo?$AA?$AA@ 000000018004e5a8     libucrt:get_qualified_locale.obj
 0002:000095d0       ??_C@_1BO@MODIMHHI@?$AAu?$AAn?$AAi?$AAt?$AAe?$AAd?$AA?9?$AAk?$AAi?$AAn?$AAg?$AAd?$AAo?$AAm?$AA?$AA@ 000000018004e5d0     libucrt:get_qualified_locale.obj
 0002:000095f0       ??_C@_1BM@FFHJONBJ@?$AAu?$AAn?$AAi?$AAt?$AAe?$AAd?$AA?9?$AAs?$AAt?$AAa?$AAt?$AAe?$AAs?$AA?$AA@ 000000018004e5f0     libucrt:get_qualified_locale.obj
 0002:00009610       ??_C@_17DNCLJFIF@?$AAA?$AAC?$AAP?$AA?$AA@ 000000018004e610     libucrt:get_qualified_locale.obj
 0002:00009618       ??_C@_17CIKBIHLH@?$AAO?$AAC?$AAP?$AA?$AA@ 000000018004e618     libucrt:get_qualified_locale.obj
 0002:00009620       __rglangidNotDefault       000000018004e620     libucrt:getqloc_downlevel.obj
 0002:0000b520       __log10_256_lead           0000000180050520     libucrt:log10_256_lead_tail_table.obj
 0002:0000bd30       __log10_256_tail           0000000180050d30     libucrt:log10_256_lead_tail_table.obj
 0002:0000c540       __log_F_inv_qword          0000000180051540     libucrt:log_f_inv_qword_table.obj
 0002:0000cd50       ??_C@_1BA@BALFACEM@?$AAC?$AAO?$AAN?$AAO?$AAU?$AAT?$AA$?$AA?$AA@ 0000000180051d50     libucrt:initcon.obj
 0002:0000cd60       ??_C@_1BK@DBDEIDLH@?$AAK?$AAE?$AAR?$AAN?$AAE?$AAL?$AA3?$AA2?$AA?4?$AAD?$AAL?$AAL?$AA?$AA@ 0000000180051d60     DelayImp:delayhlp.obj
 0002:0000cd80       _load_config_used          0000000180051d80     LIBCMT:loadcfg.obj
 0002:0000ce18       ??_C@_1DG@OKCGPKIB@?$AAp?$AAe?$AAr?$AAs?$AAi?$AAs?$AAt?$AAe?$AAn?$AAt?$AA?$CI?$AA?$CJ?$AA?4?$AAI?$AAs?$AAN?$AAe?$AAa?$AAr?$AAD?$AAe?$AAa?$AAt?$AAh?$AA?$CI?$AA?$CJ?$AA?$AA@ 0000000180051e18     njsOracle.obj
 0002:0000ce50       ??_C@_1CO@EGNPJLKI@?$AAp?$AAe?$AAr?$AAs?$AAi?$AAs?$AAt?$AAe?$AAn?$AAt?$AA?$CI?$AA?$CJ?$AA?4?$AAI?$AAs?$AAE?$AAm?$AAp?$AAt?$AAy?$AA?$CI?$AA?$CJ?$AA?$AA@ 0000000180051e50     njsOracle.obj
 0002:0000ce80       ??_C@_1DA@FBGAEOIO@?$AA?$CB?$AAp?$AAe?$AAr?$AAs?$AAi?$AAs?$AAt?$AAe?$AAn?$AAt?$AA?$CI?$AA?$CJ?$AA?4?$AAI?$AAs?$AAE?$AAm?$AAp?$AAt?$AAy?$AA?$CI?$AA?$CJ?$AA?$AA@ 0000000180051e80     njsOracle.obj
 0002:0000ceb0       ??_C@_1CO@JCKLEFMA@?$AA?$CB?$AAp?$AAe?$AAr?$AAs?$AAi?$AAs?$AAt?$AAe?$AAn?$AAt?$AA?$CI?$AA?$CJ?$AA?4?$AAI?$AAs?$AAW?$AAe?$AAa?$AAk?$AA?$CI?$AA?$CJ?$AA?$AA@ 0000000180051eb0     njsOracle.obj
 0002:0000cee0       ??_C@_1BE@GMLLOIPJ@?$AAr?$AAe?$AAf?$AAs?$AA_?$AA?5?$AA?$DO?$AA?5?$AA0?$AA?$AA@ 0000000180051ee0     njsOracle.obj
 0002:0000cef8       ??_C@_1CC@GBFLAAPF@?$AAw?$AAr?$AAa?$AAp?$AA?9?$AA?$DO?$AAr?$AAe?$AAf?$AAs?$AA_?$AA?5?$AA?$DN?$AA?$DN?$AA?5?$AA0?$AA?$AA@ 0000000180051ef8     njsOracle.obj
 0002:0000cf20       ??_C@_1DI@ELDBKNAK@?$AAw?$AAr?$AAa?$AAp?$AA?9?$AA?$DO?$AAh?$AAa?$AAn?$AAd?$AAl?$AAe?$AA_?$AA?4?$AAI?$AAs?$AAN?$AAe?$AAa?$AAr?$AAD?$AAe?$AAa?$AAt?$AAh?$AA?$CI?$AA?$CJ?$AA?$AA@ 0000000180051f20     njsOracle.obj
 0002:0000cf58       ??_C@_0BC@BDKFLDHL@unknown?5exception?$AA@ 0000000180051f58     njsOracle.obj
 0002:0000cf70       ??_C@_0BA@ELKIONDK@bad?5locale?5name?$AA@ 0000000180051f70     njsOracle.obj
 0002:0000cf80       ??_C@_05LAPONLG@false?$AA@ 0000000180051f80     njsOracle.obj
 0002:0000cf88       ??_C@_04LOAJBDKD@true?$AA@ 0000000180051f88     njsOracle.obj
 0002:0000cf8d       ??_C@_00CNPNBAHC@?$AA@     0000000180051f8d     njsOracle.obj
 0002:0000cf90       ??_C@_02LMMGGCAJ@?3?5?$AA@ 0000000180051f90     njsOracle.obj
 0002:0000cf98       ??_C@_08LLGCOLLL@iostream?$AA@ 0000000180051f98     njsOracle.obj
 0002:0000cfa8       ??_C@_0BG@PADBLCHM@iostream?5stream?5error?$AA@ 0000000180051fa8     njsOracle.obj
 0002:0000cfc0       ??_C@_0BF@PHHKMMFD@ios_base?3?3badbit?5set?$AA@ 0000000180051fc0     njsOracle.obj
 0002:0000cfd8       ??_C@_0BG@FMKFHCIL@ios_base?3?3failbit?5set?$AA@ 0000000180051fd8     njsOracle.obj
 0002:0000cff0       ??_C@_0BF@OOHOMBOF@ios_base?3?3eofbit?5set?$AA@ 0000000180051ff0     njsOracle.obj
 0002:0000d008       ??_C@_0BA@JFNIOLAK@string?5too?5long?$AA@ 0000000180052008     njsOracle.obj
 0002:0000d020       ??_C@_1JC@MKEOLKIO@?$AAd?$AA?3?$AA?2?$AAu?$AAs?$AAe?$AAr?$AAs?$AA?2?$AAe?$AAd?$AAg?$AAa?$AAr?$AA?2?$AAw?$AAr?$AAk?$AA?2?$AAn?$AAo?$AAd?$AAe?$AAt?$AAe?$AAs?$AAt?$AA?2?$AAn?$AAo?$AAd?$AAe@ 0000000180052020     njsOracle.obj
 0002:0000d0c0       ??_C@_1FK@CBGIJHDF@?$AAv?$AAa?$AAl?$AAu?$AAe?$AA?4?$AAs?$AAi?$AAz?$AAe?$AA?$CI?$AA?$CJ?$AA?5?$AA?$DM?$AA?$DN?$AA?5?$AAI?$AAN?$AAT?$AA_?$AAM?$AAA?$AAX?$AA?5?$AA?$CG?$AA?$CG?$AA?5?$AA?$CC?$AAs?$AAt?$AAr?$AAi@ 00000001800520c0     njsOracle.obj
 0002:0000d120       ??_C@_1HO@DAJJEAPA@?$AAd?$AA?3?$AA?2?$AAu?$AAs?$AAe?$AAr?$AAs?$AA?2?$AAe?$AAd?$AAg?$AAa?$AAr?$AA?2?$AAw?$AAr?$AAk?$AA?2?$AAn?$AAo?$AAd?$AAe?$AAt?$AAe?$AAs?$AAt?$AA?2?$AAn?$AAo?$AAd?$AAe@ 0000000180052120     njsOracle.obj
 0002:0000d1a0       ??_C@_1EC@MGGLMBLC@?$AAo?$AAb?$AAj?$AAe?$AAc?$AAt?$AA?9?$AA?$DO?$AAI?$AAn?$AAt?$AAe?$AAr?$AAn?$AAa?$AAl?$AAF?$AAi?$AAe?$AAl?$AAd?$AAC?$AAo?$AAu?$AAn?$AAt?$AA?$CI?$AA?$CJ?$AA?5?$AA?$DO?$AA?5?$AA0@ 00000001800521a0     njsOracle.obj
 0002:0000d1e4       ??_C@_03MCPBMLDJ@?5?3?5?$AA@ 00000001800521e4     njsOracle.obj
 0002:0000d1e8       ??_C@_0O@HGNEKDAO@node?9oracledb?$AA@ 00000001800521e8     njsOracle.obj
 0002:0000d1f8       ??_C@_01LFCBOECM@?4?$AA@   00000001800521f8     njsOracle.obj
 0002:0000d200       ??_C@_08BNCGHMGL@Oracledb?$AA@ 0000000180052200     njsOracle.obj
 0002:0000d210       ??_C@_0O@GICFJCLP@getConnection?$AA@ 0000000180052210     njsOracle.obj
 0002:0000d220       ??_C@_0L@DEMMGFLI@createPool?$AA@ 0000000180052220     njsOracle.obj
 0002:0000d230       ??_C@_07CJJOHIMA@poolMax?$AA@ 0000000180052230     njsOracle.obj
 0002:0000d238       ??_C@_07DLBFJMKP@poolMin?$AA@ 0000000180052238     njsOracle.obj
 0002:0000d240       ??_C@_0O@CEEKNGK@poolIncrement?$AA@ 0000000180052240     njsOracle.obj
 0002:0000d250       ??_C@_0M@KJCBBGHI@poolTimeout?$AA@ 0000000180052250     njsOracle.obj
 0002:0000d260       ??_C@_0O@MCOBCHKC@stmtCacheSize?$AA@ 0000000180052260     njsOracle.obj
 0002:0000d270       ??_C@_0N@GLFJDLAP@prefetchRows?$AA@ 0000000180052270     njsOracle.obj
 0002:0000d280       ??_C@_0L@JJDMGLON@autoCommit?$AA@ 0000000180052280     njsOracle.obj
 0002:0000d290       ??_C@_0BB@NCBAEODJ@extendedMetaData?$AA@ 0000000180052290     njsOracle.obj
 0002:0000d2a8       ??_C@_07GPLJHCBP@maxRows?$AA@ 00000001800522a8     njsOracle.obj
 0002:0000d2b0       ??_C@_09DINGKNNM@outFormat?$AA@ 00000001800522b0     njsOracle.obj
 0002:0000d2c0       ??_C@_07CPCPJPKL@version?$AA@ 00000001800522c0     njsOracle.obj
 0002:0000d2c8       ??_C@_0BA@GPOPFKB@connectionClass?$AA@ 00000001800522c8     njsOracle.obj
 0002:0000d2d8       ??_C@_0N@DGEJBIKB@externalAuth?$AA@ 00000001800522d8     njsOracle.obj
 0002:0000d2e8       ??_C@_0O@KBLMAIHK@fetchAsString?$AA@ 00000001800522e8     njsOracle.obj
 0002:0000d2f8       ??_C@_0BA@NCMFLOHA@lobPrefetchSize?$AA@ 00000001800522f8     njsOracle.obj
 0002:0000d308       ??_C@_0BE@HLPLDCII@oracleClientVersion?$AA@ 0000000180052308     njsOracle.obj
 0002:0000d31c       ??_C@_04CCHAHKJA@user?$AA@ 000000018005231c     njsOracle.obj
 0002:0000d328       ??_C@_08NLHBPEGP@password?$AA@ 0000000180052328     njsOracle.obj
 0002:0000d338       ??_C@_0O@GBMHGACH@connectString?$AA@ 0000000180052338     njsOracle.obj
 0002:0000d348       ??_C@_0O@KFEBOKGH@GetConnection?$AA@ 0000000180052348     njsOracle.obj
 0002:0000d358       ??_C@_0O@BEGDKJHM@uv_queue_work?$AA@ 0000000180052358     njsOracle.obj
 0002:0000d368       ??_C@_0L@LCFAOKGP@CreatePool?$AA@ 0000000180052368     njsOracle.obj
 0002:0000d378       ??_C@_0BN@CPKFGOJG@?4?4?2src?2njs?2src?2njsOracle?4cpp?$AA@ 0000000180052378     njsOracle.obj
 0002:0000d398       ??_C@_08JPNHPOMI@oracledb?$AA@ 0000000180052398     njsOracle.obj
 0002:0000d3a4       ??_C@_02BBAHNLBA@?$CFp?$AA@ 00000001800523a4     njsOracle.obj
 0002:0000d3a8       ??_C@_02MDKMJEGG@eE?$AA@   00000001800523a8     njsOracle.obj
 0002:0000d3ac       ??_C@_02OOPEBDOJ@pP?$AA@   00000001800523ac     njsOracle.obj
 0002:0000d3b0       ??_C@_0BI@CFPLBAOH@invalid?5string?5position?$AA@ 00000001800523b0     njsOracle.obj
 0002:0000d3c8       ??_C@_1CE@LNAGEONJ@?$AA?$CB?$AAo?$AAb?$AAj?$AAe?$AAc?$AAt?$AA?4?$AAI?$AAs?$AAE?$AAm?$AAp?$AAt?$AAy?$AA?$CI?$AA?$CJ?$AA?$AA@ 00000001800523c8     njsOracle.obj
 0002:0000d3f0       ??_7?$basic_streambuf@DU?$char_traits@D@std@@@std@@6B@ 00000001800523f0     njsOracle.obj
 0002:0000d468       ??_7error_category@std@@6B@ 0000000180052468     njsOracle.obj
 0002:0000d498       ??_7_Iostream_error_category@std@@6B@ 0000000180052498     njsOracle.obj
 0002:0000d4c8       ??_7ios_base@std@@6B@      00000001800524c8     njsOracle.obj
 0002:0000d4d0       ??_8?$basic_stringstream@DU?$char_traits@D@std@@V?$allocator@D@2@@std@@7B?$basic_ostream@DU?$char_traits@D@std@@@1@@ 00000001800524d0     njsOracle.obj
 0002:0000d4d8       ??_7?$basic_ios@DU?$char_traits@D@std@@@std@@6B@ 00000001800524d8     njsOracle.obj
 0002:0000d4e0       ??_7Oracledb@@6B@          00000001800524e0     njsOracle.obj
 0002:0000d4f8       ??_7?$basic_iostream@DU?$char_traits@D@std@@@std@@6B@ 00000001800524f8     njsOracle.obj
 0002:0000d500       ??_7exception@stdext@@6B@  0000000180052500     njsOracle.obj
 0002:0000d518       ??_7?$basic_stringbuf@DU?$char_traits@D@std@@V?$allocator@D@2@@std@@6B@ 0000000180052518     njsOracle.obj
 0002:0000d590       ??_7?$basic_stringstream@DU?$char_traits@D@std@@V?$allocator@D@2@@std@@6B@ 0000000180052590     njsOracle.obj
 0002:0000d598       ??_7?$basic_istream@DU?$char_traits@D@std@@@std@@6B@ 0000000180052598     njsOracle.obj
 0002:0000d5a0       ??_7ObjectWrap@Nan@@6B@    00000001800525a0     njsOracle.obj
 0002:0000d5b8       ??_8?$basic_stringstream@DU?$char_traits@D@std@@V?$allocator@D@2@@std@@7B?$basic_istream@DU?$char_traits@D@std@@@1@@ 00000001800525b8     njsOracle.obj
 0002:0000d5c0       ??_7?$basic_ostream@DU?$char_traits@D@std@@@std@@6B@ 00000001800525c0     njsOracle.obj
 0002:0000d5c8       ??_7_System_error@std@@6B@ 00000001800525c8     njsOracle.obj
 0002:0000d5c8       ??_7system_error@std@@6B@  00000001800525c8     njsOracle.obj
 0002:0000d5c8       ??_7failure@ios_base@std@@6B@ 00000001800525c8     njsOracle.obj
 0002:0000d5e0       ??_C@_04OIEIIIMK@Pool?$AA@ 00000001800525e0     njsPool.obj
 0002:0000d5e8       ??_C@_09DACGJFPO@terminate?$AA@ 00000001800525e8     njsPool.obj
 0002:0000d5f8       ??_C@_0BA@ILIHCEPM@connectionsOpen?$AA@ 00000001800525f8     njsPool.obj
 0002:0000d608       ??_C@_0BB@EBFGKEIN@connectionsInUse?$AA@ 0000000180052608     njsPool.obj
 0002:0000d620       ??_C@_09HPHLJGCO@Terminate?$AA@ 0000000180052620     njsPool.obj
 0002:0000d630       ??_7Pool@@6B@              0000000180052630     njsPool.obj
 0002:0000d650       ??_C@_1GG@PMNCIGLP@?$AAD?$AA?3?$AA?2?$AAU?$AAs?$AAe?$AAr?$AAs?$AA?2?$AAE?$AAd?$AAg?$AAa?$AAr?$AA?2?$AAw?$AAr?$AAk?$AA?2?$AAn?$AAo?$AAd?$AAe?$AAT?$AAe?$AAs?$AAt?$AA?2?$AAn?$AAo?$AAd?$AAe@ 0000000180052650     njsConnection.obj
 0002:0000d6c0       ??_C@_1FM@LOELJOFK@?$AAs?$AAi?$AAz?$AAe?$AA?5?$AA?$DM?$AA?$DN?$AA?5?$AAi?$AAm?$AAp?$AA?3?$AA?3?$AAk?$AAM?$AAa?$AAx?$AAL?$AAe?$AAn?$AAg?$AAt?$AAh?$AA?5?$AA?$CG?$AA?$CG?$AA?5?$AA?$CC?$AAt?$AAo?$AAo?$AA?5@ 00000001800526c0     njsConnection.obj
 0002:0000d720       ??_C@_0L@PJJKMLL@Connection?$AA@ 0000000180052720     njsConnection.obj
 0002:0000d730       ??_C@_07EMGJIMLB@execute?$AA@ 0000000180052730     njsConnection.obj
 0002:0000d738       ??_C@_07EOGFDLKI@release?$AA@ 0000000180052738     njsConnection.obj
 0002:0000d740       ??_C@_06IFNEBLAJ@commit?$AA@ 0000000180052740     njsConnection.obj
 0002:0000d748       ??_C@_08FBLICIPL@rollback?$AA@ 0000000180052748     njsConnection.obj
 0002:0000d754       ??_C@_05ELPHFHOI@break?$AA@ 0000000180052754     njsConnection.obj
 0002:0000d760       ??_C@_08BMOJCBA@clientId?$AA@ 0000000180052760     njsConnection.obj
 0002:0000d76c       ??_C@_06BIEEJMKO@module?$AA@ 000000018005276c     njsConnection.obj
 0002:0000d774       ??_C@_06DDLLCOJG@action?$AA@ 0000000180052774     njsConnection.obj
 0002:0000d780       ??_C@_0BE@FLLIGNEJ@oracleServerVersion?$AA@ 0000000180052780     njsConnection.obj
 0002:0000d798       ??_C@_07LFBPOOOH@Execute?$AA@ 0000000180052798     njsConnection.obj
 0002:0000d7a0       ??_C@_09MLCBPDGD@resultSet?$AA@ 00000001800527a0     njsConnection.obj
 0002:0000d7b0       ??_C@_09IALOBJIC@fetchInfo?$AA@ 00000001800527b0     njsConnection.obj
 0002:0000d7bc       ??_C@_04GPMDFGEJ@type?$AA@ 00000001800527bc     njsConnection.obj
 0002:0000d7c4       ??_C@_01JLIPDDHJ@?3?$AA@   00000001800527c4     njsConnection.obj
 0002:0000d7c8       ??_C@_03DAPAKLGM@dir?$AA@  00000001800527c8     njsConnection.obj
 0002:0000d7d0       ??_C@_07GDPCCCPH@maxSize?$AA@ 00000001800527d0     njsConnection.obj
 0002:0000d7d8       ??_C@_03BALCFKBP@val?$AA@  00000001800527d8     njsConnection.obj
 0002:0000d7e0       ??_C@_0N@HGIHOFAC@maxArraySize?$AA@ 00000001800527e0     njsConnection.obj
 0002:0000d7f0       ??_C@_09KHNPILMG@DoDefines?$AA@ 00000001800527f0     njsConnection.obj
 0002:0000d800       ??_C@_08JNCPAJPH@default?3?$AA@ 0000000180052800     njsConnection.obj
 0002:0000d80c       ??_C@_04IMCGAIPI@rows?$AA@ 000000018005280c     njsConnection.obj
 0002:0000d818       ??_C@_08CADMLJEK@outBinds?$AA@ 0000000180052818     njsConnection.obj
 0002:0000d828       ??_C@_0N@KAPCDOFA@rowsAffected?$AA@ 0000000180052828     njsConnection.obj
 0002:0000d838       ??_C@_08PGKJPPDP@metaData?$AA@ 0000000180052838     njsConnection.obj
 0002:0000d844       ??_C@_04MEMAJGDJ@name?$AA@ 0000000180052844     njsConnection.obj
 0002:0000d850       ??_C@_09DHEEBCNP@fetchType?$AA@ 0000000180052850     njsConnection.obj
 0002:0000d85c       ??_C@_06MPIJJHIJ@dbType?$AA@ 000000018005285c     njsConnection.obj
 0002:0000d868       ??_C@_08OABDNNOP@byteSize?$AA@ 0000000180052868     njsConnection.obj
 0002:0000d878       ??_C@_09HJGOLHNF@precision?$AA@ 0000000180052878     njsConnection.obj
 0002:0000d884       ??_C@_05MHMEBBGO@scale?$AA@ 0000000180052884     njsConnection.obj
 0002:0000d890       ??_C@_08DGPNALPA@nullable?$AA@ 0000000180052890     njsConnection.obj
 0002:0000d8a0       ??_C@_07LHBDFJPO@Release?$AA@ 00000001800528a0     njsConnection.obj
 0002:0000d8a8       ??_C@_06EKGJCCJF@Commit?$AA@ 00000001800528a8     njsConnection.obj
 0002:0000d8b0       ??_C@_08NDEJKKFI@Rollback?$AA@ 00000001800528b0     njsConnection.obj
 0002:0000d8bc       ??_C@_05EMFLFCNO@Break?$AA@ 00000001800528bc     njsConnection.obj
 0002:0000d8c4       ??_C@_06GPFDNHLC@newLob?$AA@ 00000001800528c4     njsConnection.obj
 0002:0000d8d0       ??_C@_0BD@OLBABOEK@vector?$DMT?$DO?5too?5long?$AA@ 00000001800528d0     njsConnection.obj
 0002:0000d8e8       ??_7Connection@@6B@        00000001800528e8     njsConnection.obj
 0002:0000d900       ??_C@_09IEHMPALD@ResultSet?$AA@ 0000000180052900     njsResultSet.obj
 0002:0000d90c       ??_C@_05LBOHBHFK@close?$AA@ 000000018005290c     njsResultSet.obj
 0002:0000d914       ??_C@_06DKBICOAJ@getRow?$AA@ 0000000180052914     njsResultSet.obj
 0002:0000d920       ??_C@_07HNPEIKLP@getRows?$AA@ 0000000180052920     njsResultSet.obj
 0002:0000d928       ??_C@_0O@BENJIPMF@GetRowsCommon?$AA@ 0000000180052928     njsResultSet.obj
 0002:0000d938       ??_C@_0P@CLHDOECI@ResultSetClose?$AA@ 0000000180052938     njsResultSet.obj
 0002:0000d948       ??_7ResultSet@@6B@         0000000180052948     njsResultSet.obj
 0002:0000d960       ??_C@_0BB@EBPPLLMA@NJS?9000?3?5success?$AA@ 0000000180052960     njsMessages.obj
 0002:0000d978       ??_C@_0CN@EAPPLFIE@NJS?9001?3?5expected?5callback?5as?5la@ 0000000180052978     njsMessages.obj
 0002:0000d9a8       ??_C@_0BG@CPODOMNC@NJS?9002?3?5invalid?5pool?$AA@ 00000001800529a8     njsMessages.obj
 0002:0000d9c0       ??_C@_0BM@JFAMIHMB@NJS?9003?3?5invalid?5connection?$AA@ 00000001800529c0     njsMessages.obj
 0002:0000d9e0       ??_C@_0CH@LDFPEIAC@NJS?9004?3?5invalid?5value?5for?5prope@ 00000001800529e0     njsMessages.obj
 0002:0000da08       ??_C@_0CI@LJKIPLLG@NJS?9005?3?5invalid?5value?5for?5param@ 0000000180052a08     njsMessages.obj
 0002:0000da30       ??_C@_0CH@LNEBGLBI@NJS?9006?3?5invalid?5type?5for?5parame@ 0000000180052a30     njsMessages.obj
 0002:0000da58       ??_C@_0DA@LLNCMIBF@NJS?9007?3?5invalid?5value?5for?5?$CC?$CFs?$CC?5@ 0000000180052a58     njsMessages.obj
 0002:0000da88       ??_C@_0CP@IGIOFNIJ@NJS?9008?3?5invalid?5type?5for?5?$CC?$CFs?$CC?5i@ 0000000180052a88     njsMessages.obj
 0002:0000dab8       ??_C@_0CG@NEDBOLL@NJS?9009?3?5invalid?5number?5of?5param@ 0000000180052ab8     njsMessages.obj
 0002:0000dae0       ??_C@_0CO@NPMIEIEG@NJS?9010?3?5unsupported?5data?5type?5i@ 0000000180052ae0     njsMessages.obj
 0002:0000db10       ??_C@_0EC@NNFBKLIL@NJS?9011?3?5encountered?5bind?5value?5@ 0000000180052b10     njsMessages.obj
 0002:0000db58       ??_C@_0DL@DJJHMCOF@NJS?9012?3?5encountered?5invalid?5bin@ 0000000180052b58     njsMessages.obj
 0002:0000db98       ??_C@_0CA@BACDJBHC@NJS?9013?3?5invalid?5bind?5direction?$AA@ 0000000180052b98     njsMessages.obj
 0002:0000dbb8       ??_C@_0CE@JHOFBEHB@NJS?9014?3?5?$CFs?5is?5a?5read?9only?5prope@ 0000000180052bb8     njsMessages.obj
 0002:0000dbe0       ??_C@_0CP@JOOECMDP@NJS?9015?3?5type?5was?5not?5specified?5@ 0000000180052be0     njsMessages.obj
 0002:0000dc10       ??_C@_0CL@LPGLEDEI@NJS?9016?3?5buffer?5is?5too?5small?5for@ 0000000180052c10     njsMessages.obj
 0002:0000dc40       ??_C@_0DM@BJIOPMLG@NJS?9017?3?5concurrent?5operations?5o@ 0000000180052c40     njsMessages.obj
 0002:0000dc80       ??_C@_0BL@KIHNNALH@NJS?9018?3?5invalid?5ResultSet?$AA@ 0000000180052c80     njsMessages.obj
 0002:0000dca0       ??_C@_0DP@HMGLKLNL@NJS?9019?3?5ResultSet?5cannot?5be?5ret@ 0000000180052ca0     njsMessages.obj
 0002:0000dce0       ??_C@_0DN@GENKDPOG@NJS?9020?3?5empty?5array?5was?5specifi@ 0000000180052ce0     njsMessages.obj
 0002:0000dd20       ??_C@_0CP@EDPFAMJK@NJS?9021?3?5invalid?5type?5for?5conver@ 0000000180052d20     njsMessages.obj
 0002:0000dd50       ??_C@_0BF@EAGHGEHI@NJS?9022?3?5invalid?5Lob?$AA@ 0000000180052d50     njsMessages.obj
 0002:0000dd68       ??_C@_0DG@BCLPOMFP@NJS?9023?3?5concurrent?5operations?5o@ 0000000180052d68     njsMessages.obj
 0002:0000dda0       ??_C@_0CC@HFOJMIAK@NJS?9024?3?5memory?5allocation?5faile@ 0000000180052da0     njsMessages.obj
 0002:0000ddc8       ??_C@_0DF@FGHOJMEN@NJS?9025?3?5overflow?5when?5calculati@ 0000000180052dc8     njsMessages.obj
 0002:0000de00       ??_C@_0CL@CJKMEINN@NJS?9026?3?5maxRows?5must?5be?5greater@ 0000000180052e00     njsMessages.obj
 0002:0000de30       ??_C@_0CG@GKLPAPFN@NJS?9027?3?5unexpected?5SQL?5parsing?5@ 0000000180052e30     njsMessages.obj
 0002:0000de60       ??_C@_0EK@EMLJJJPP@NJS?9028?3?5raw?5database?5type?5is?5no@ 0000000180052e60     njsMessages.obj
 0002:0000deb0       ??_C@_0CI@GNLLBCJN@NJS?9029?3?5invalid?5object?5from?5Jav@ 0000000180052eb0     njsMessages.obj
 0002:0000dee0       ??_C@_0EO@LBKHOOCH@NJS?9030?3?5connection?5cannot?5be?5re@ 0000000180052ee0     njsMessages.obj
 0002:0000df30       ??_C@_0FE@IIHCGNKK@NJS?9031?3?5connection?5cannot?5be?5re@ 0000000180052f30     njsMessages.obj
 0002:0000df90       ??_C@_0EO@IIBEDJAF@NJS?9032?3?5connection?5cannot?5be?5re@ 0000000180052f90     njsMessages.obj
 0002:0000dfe0       ??_C@_0CO@BBIFBNCF@NJS?9033?3?5an?5internal?5error?5occur@ 0000000180052fe0     njsMessages.obj
 0002:0000e010       ??_C@_0DB@LPMKGDAI@NJS?9034?3?5data?5type?5is?5unsupporte@ 0000000180053010     njsMessages.obj
 0002:0000e048       ??_C@_0DI@GIABIGIA@NJS?9035?3?5maxArraySize?5is?5require@ 0000000180053048     njsMessages.obj
 0002:0000e080       ??_C@_0DK@CJKKNDFP@NJS?9036?3?5given?5array?5is?5of?5size?5@ 0000000180053080     njsMessages.obj
 0002:0000e0c0       ??_C@_0CN@OAPEDDDP@NJS?9037?3?5incompatible?5type?5of?5va@ 00000001800530c0     njsMessages.obj
 0002:0000e0f0       ??_C@_0DF@KIBFGADN@NJS?9038?3?5maxArraySize?5value?5shou@ 00000001800530f0     njsMessages.obj
 0002:0000e128       ??_C@_0DA@MGPCJFHJ@NJS?9039?3?5empty?5array?5is?5not?5allo@ 0000000180053128     njsMessages.obj
 0002:0000e158       ??_C@_0CE@LNNNGBGB@NJS?9040?3?5connection?5request?5time@ 0000000180053158     njsMessages.obj
 0002:0000e180       ??_C@_0EI@HKOKPOIO@NJS?9041?3?5cannot?5convert?5ResultSe@ 0000000180053180     njsMessages.obj
 0002:0000e1d0       ??_C@_0EJ@EGFNABEI@NJS?9042?3?5cannot?5invoke?5ResultSet@ 00000001800531d0     njsMessages.obj
 0002:0000e220       ??_C@_0DE@NMIFCHOP@NJS?9043?3?5ResultSet?5already?5conve@ 0000000180053220     njsMessages.obj
 0002:0000e258       ??_C@_0DL@HIIGKHG@NJS?9044?3?5named?5JSON?5object?5is?5no@ 0000000180053258     njsMessages.obj
 0002:0000e460       ??_C@_04KJLMFAGH@ILob?$AA@ 0000000180053460     njsIntLob.obj
 0002:0000e468       ??_C@_04POLDLDMI@read?$AA@ 0000000180053468     njsIntLob.obj
 0002:0000e470       ??_C@_05NGFEDHGN@write?$AA@ 0000000180053470     njsIntLob.obj
 0002:0000e478       ??_C@_09OEGFCDGF@chunkSize?$AA@ 0000000180053478     njsIntLob.obj
 0002:0000e484       ??_C@_06IJDLPEM@length?$AA@ 0000000180053484     njsIntLob.obj
 0002:0000e490       ??_C@_09BIOBDMFG@pieceSize?$AA@ 0000000180053490     njsIntLob.obj
 0002:0000e49c       ??_C@_06KLHHMIGM@offset?$AA@ 000000018005349c     njsIntLob.obj
 0002:0000e4a8       ??_C@_07NKICPBEH@LobRead?$AA@ 00000001800534a8     njsIntLob.obj
 0002:0000e4b0       ??_C@_08KLHHJIJO@LobWrite?$AA@ 00000001800534b0     njsIntLob.obj
 0002:0000e4c0       ??_7ILob@@6B@              00000001800534c0     njsIntLob.obj
 0002:0000e4d8       ??_7Env@dpi@@6B@           00000001800534d8     dpiEnv.obj
 0002:0000e588       ??_7EnvImpl@@6B@           0000000180053588     dpiEnvImpl.obj
 0002:0000e660       ??_7ExceptionImpl@@6B@     0000000180053660     dpiEnvImpl.obj
 0002:0000e688       ??_7Exception@dpi@@6B@     0000000180053688     dpiEnvImpl.obj
 0002:0000e6b0       ??_C@_07CIFAGBMG@unknown?$AA@ 00000001800536b0     dpiExceptionImpl.obj
 0002:0000e6b8       ??_C@_0N@FKKFHCIB@not?5an?5error?$AA@ 00000001800536b8     dpiExceptionImpl.obj
 0002:0000e6c8       ??_C@_0P@LPIEGNHB@internal?5error?$AA@ 00000001800536c8     dpiExceptionImpl.obj
 0002:0000e6d8       ??_C@_0CA@EGKFLPDP@could?5not?5get?5OCI?5error?5message?$AA@ 00000001800536d8     dpiExceptionImpl.obj
 0002:0000e6f8       ??_C@_0CC@DONOAHM@no?5OCI?5environment?5handle?5create@ 00000001800536f8     dpiExceptionImpl.obj
 0002:0000e720       ??_C@_0CL@NBAEMACC@invalid?5state?5while?5working?5with@ 0000000180053720     dpiExceptionImpl.obj
 0002:0000e750       ??_C@_0DB@DLEOEFBD@uninitialized?5state?5while?5workin@ 0000000180053750     dpiExceptionImpl.obj
 0002:0000e790       ??_C@_0EH@IBENPCCD@user?5and?5password?5should?5not?5be?5@ 0000000180053790     dpiExceptionImpl.obj
 0002:0000e7d8       ??_C@_0CB@DEGMBPIK@invalid?5OCI?5handle?5or?5descriptor@ 00000001800537d8     dpiExceptionImpl.obj
 0002:0000e800       ??_C@_0BJ@FDBIHNP@memory?5allocation?5failed?$AA@ 0000000180053800     dpiExceptionImpl.obj
 0002:0000e820       ??_C@_0BG@COLCDFLN@unexpected?5NULL?5value?$AA@ 0000000180053820     dpiExceptionImpl.obj
 0002:0000e838       ??_C@_03IHMKDFHF@DPI?$AA@  0000000180053838     dpiExceptionImpl.obj
 0002:0000e83c       ??_C@_01JOAMLHOP@?9?$AA@   000000018005383c     dpiExceptionImpl.obj
 0002:0000e840       ??_7Conn@dpi@@6B@          0000000180053840     dpiConnImpl.obj
 0002:0000e8d8       ??_7ConnImpl@@6B@          00000001800538d8     dpiConnImpl.obj
 0002:0000e978       ??_C@_06GOMJDJGK@?$CL00?300?$AA@ 0000000180053978     dpiDateTimeArrayImpl.obj
 0002:0000e980       ??_7DateTimeArrayImpl@dpi@@6B@ 0000000180053980     dpiDateTimeArrayImpl.obj
 0002:0000e9a8       ??_7SPool@dpi@@6B@         00000001800539a8     dpiPoolImpl.obj
 0002:0000e9a8       ??_7DateTimeArray@dpi@@6B@ 00000001800539a8     dpiDateTimeArrayImpl.obj
 0002:0000e9d0       ??_7PoolImpl@@6B@          00000001800539d0     dpiPoolImpl.obj
 0002:0000ea10       ??_7Stmt@dpi@@6B@          0000000180053a10     dpiStmtImpl.obj
 0002:0000ea90       ??_7StmtImpl@@6B@          0000000180053a90     dpiStmtImpl.obj
 0002:0000eb10       ??_C@_03JLJGOMBC@ORA?$AA@  0000000180053b10     dpiUtils.obj
 0002:0000eb18       ??_C@_08HCOMDCCD@iojs?4exe?$AA@ 0000000180053b18     win_delay_load_hook.obj
 0002:0000eb28       ??_C@_08JDDNMFDB@node?4exe?$AA@ 0000000180053b28     win_delay_load_hook.obj
 0002:0000f6f0       __real@3ff0000000000000    00000001800546f0     njsIntLob.obj
 0002:0000f6f8       __real@408f400000000000    00000001800546f8     dpiDateTimeArrayImpl.obj
 0002:0000f700       __real@40ed4c0000000000    0000000180054700     dpiDateTimeArrayImpl.obj
 0002:0000f708       __real@412e848000000000    0000000180054708     dpiDateTimeArrayImpl.obj
 0002:0000f710       __real@414b774000000000    0000000180054710     dpiDateTimeArrayImpl.obj
 0002:0000f718       __real@4194997000000000    0000000180054718     dpiDateTimeArrayImpl.obj
 0002:0000f720       __real@4202a05f20000000    0000000180054720     njsOracle.obj
 0002:0000f728       __real@43e0000000000000    0000000180054728     njsIntLob.obj
 0002:0000f730       __real@43f0000000000000    0000000180054730     njsIntLob.obj
 0002:0000f740       __xmm@7fffffffffffffff7fffffffffffffff 0000000180054740     njsOracle.obj
 0002:00010d88       _tls_used                  0000000180055d88     LIBCMT:tlssup.obj
 0002:00010db0       ??_R4_Facet_base@std@@6B@  0000000180055db0     libcpmt:locale0.obj
 0002:00010dd8       ??_R3_Facet_base@std@@8    0000000180055dd8     libcpmt:locale0.obj
 0002:00010df0       ??_R2_Facet_base@std@@8    0000000180055df0     libcpmt:locale0.obj
 0002:00010e00       ??_R1A@?0A@EA@_Facet_base@std@@8 0000000180055e00     libcpmt:locale0.obj
 0002:00010e28       ??_R4_Locimp@locale@std@@6B@ 0000000180055e28     libcpmt:locale0.obj
 0002:00010e50       ??_R3_Locimp@locale@std@@8 0000000180055e50     libcpmt:locale0.obj
 0002:00010e68       ??_R2_Locimp@locale@std@@8 0000000180055e68     libcpmt:locale0.obj
 0002:00010e90       ??_R1A@?0A@EA@_Locimp@locale@std@@8 0000000180055e90     libcpmt:locale0.obj
 0002:00010eb8       ??_R1A@?0A@EA@facet@locale@std@@8 0000000180055eb8     libcpmt:locale0.obj
 0002:00010ee0       ??_R3facet@locale@std@@8   0000000180055ee0     libcpmt:locale0.obj
 0002:00010ef8       ??_R2facet@locale@std@@8   0000000180055ef8     libcpmt:locale0.obj
 0002:00010f18       ??_R17?0A@EA@_Crt_new_delete@std@@8 0000000180055f18     libcpmt:locale0.obj
 0002:00010f40       ??_R3_Crt_new_delete@std@@8 0000000180055f40     libcpmt:locale0.obj
 0002:00010f58       ??_R2_Crt_new_delete@std@@8 0000000180055f58     libcpmt:locale0.obj
 0002:00010f68       ??_R1A@?0A@EA@_Crt_new_delete@std@@8 0000000180055f68     libcpmt:locale0.obj
 0002:00010f90       ??_R4exception@std@@6B@    0000000180055f90     libcpmt:xthrow.obj
 0002:00010fb8       ??_R3exception@std@@8      0000000180055fb8     libcpmt:xthrow.obj
 0002:00010fd0       ??_R2exception@std@@8      0000000180055fd0     libcpmt:xthrow.obj
 0002:00010fe0       ??_R1A@?0A@EA@exception@std@@8 0000000180055fe0     libcpmt:xthrow.obj
 0002:00011008       ??_R4bad_alloc@std@@6B@    0000000180056008     libcpmt:xthrow.obj
 0002:00011030       ??_R3bad_alloc@std@@8      0000000180056030     libcpmt:xthrow.obj
 0002:00011048       ??_R2bad_alloc@std@@8      0000000180056048     libcpmt:xthrow.obj
 0002:00011060       ??_R1A@?0A@EA@bad_alloc@std@@8 0000000180056060     libcpmt:xthrow.obj
 0002:00011088       ??_R4logic_error@std@@6B@  0000000180056088     libcpmt:xthrow.obj
 0002:000110b0       ??_R3logic_error@std@@8    00000001800560b0     libcpmt:xthrow.obj
 0002:000110c8       ??_R2logic_error@std@@8    00000001800560c8     libcpmt:xthrow.obj
 0002:000110e0       ??_R1A@?0A@EA@logic_error@std@@8 00000001800560e0     libcpmt:xthrow.obj
 0002:00011108       ??_R4length_error@std@@6B@ 0000000180056108     libcpmt:xthrow.obj
 0002:00011130       ??_R3length_error@std@@8   0000000180056130     libcpmt:xthrow.obj
 0002:00011148       ??_R2length_error@std@@8   0000000180056148     libcpmt:xthrow.obj
 0002:00011168       ??_R1A@?0A@EA@length_error@std@@8 0000000180056168     libcpmt:xthrow.obj
 0002:00011190       ??_R4out_of_range@std@@6B@ 0000000180056190     libcpmt:xthrow.obj
 0002:000111b8       ??_R3out_of_range@std@@8   00000001800561b8     libcpmt:xthrow.obj
 0002:000111d0       ??_R2out_of_range@std@@8   00000001800561d0     libcpmt:xthrow.obj
 0002:000111f0       ??_R1A@?0A@EA@out_of_range@std@@8 00000001800561f0     libcpmt:xthrow.obj
 0002:00011218       ??_R4runtime_error@std@@6B@ 0000000180056218     libcpmt:xthrow.obj
 0002:00011240       ??_R3runtime_error@std@@8  0000000180056240     libcpmt:xthrow.obj
 0002:00011258       ??_R2runtime_error@std@@8  0000000180056258     libcpmt:xthrow.obj
 0002:00011270       ??_R1A@?0A@EA@runtime_error@std@@8 0000000180056270     libcpmt:xthrow.obj
 0002:00011298       ??_R3ctype_base@std@@8     0000000180056298     libcpmt:locale.obj
 0002:000112b0       ??_R2ctype_base@std@@8     00000001800562b0     libcpmt:locale.obj
 0002:000112d8       ??_R1A@?0A@EA@ctype_base@std@@8 00000001800562d8     libcpmt:locale.obj
 0002:00011300       ??_R4?$ctype@D@std@@6B@    0000000180056300     libcpmt:locale.obj
 0002:00011328       ??_R3?$ctype@D@std@@8      0000000180056328     libcpmt:locale.obj
 0002:00011340       ??_R2?$ctype@D@std@@8      0000000180056340     libcpmt:locale.obj
 0002:00011370       ??_R1A@?0A@EA@?$ctype@D@std@@8 0000000180056370     libcpmt:locale.obj
 0002:00011398       ??_R4?$num_put@DV?$ostreambuf_iterator@DU?$char_traits@D@std@@@std@@@std@@6B@ 0000000180056398     libcpmt:locale.obj
 0002:000113c0       ??_R3?$num_put@DV?$ostreambuf_iterator@DU?$char_traits@D@std@@@std@@@std@@8 00000001800563c0     libcpmt:locale.obj
 0002:000113d8       ??_R2?$num_put@DV?$ostreambuf_iterator@DU?$char_traits@D@std@@@std@@@std@@8 00000001800563d8     libcpmt:locale.obj
 0002:00011400       ??_R1A@?0A@EA@?$num_put@DV?$ostreambuf_iterator@DU?$char_traits@D@std@@@std@@@std@@8 0000000180056400     libcpmt:locale.obj
 0002:00011428       ??_R4?$numpunct@D@std@@6B@ 0000000180056428     libcpmt:locale.obj
 0002:00011450       ??_R3?$numpunct@D@std@@8   0000000180056450     libcpmt:locale.obj
 0002:00011468       ??_R2?$numpunct@D@std@@8   0000000180056468     libcpmt:locale.obj
 0002:00011490       ??_R1A@?0A@EA@?$numpunct@D@std@@8 0000000180056490     libcpmt:locale.obj
 0002:000114b8       ??_R4type_info@@6B@        00000001800564b8     LIBCMT:std_type_info_static.obj
 0002:000114e0       ??_R3type_info@@8          00000001800564e0     LIBCMT:std_type_info_static.obj
 0002:000114f8       ??_R2type_info@@8          00000001800564f8     LIBCMT:std_type_info_static.obj
 0002:00011508       ??_R1A@?0A@EA@type_info@@8 0000000180056508     LIBCMT:std_type_info_static.obj
 0002:00011530       ??_R4bad_array_new_length@std@@6B@ 0000000180056530     LIBCMT:throw_bad_alloc.obj
 0002:00011558       ??_R3bad_array_new_length@std@@8 0000000180056558     LIBCMT:throw_bad_alloc.obj
 0002:00011570       ??_R2bad_array_new_length@std@@8 0000000180056570     LIBCMT:throw_bad_alloc.obj
 0002:00011590       ??_R1A@?0A@EA@bad_array_new_length@std@@8 0000000180056590     LIBCMT:throw_bad_alloc.obj
 0002:000115b8       ??_R4bad_exception@std@@6B@ 00000001800565b8     libvcruntime:frame.obj
 0002:000115e0       ??_R3bad_exception@std@@8  00000001800565e0     libvcruntime:frame.obj
 0002:000115f8       ??_R2bad_exception@std@@8  00000001800565f8     libvcruntime:frame.obj
 0002:00011610       ??_R1A@?0A@EA@bad_exception@std@@8 0000000180056610     libvcruntime:frame.obj
 0002:00011638       ?_TraceLoggingMetadata@?1??_TlgWrite@__vcrt_trace_logging_provider@@YAJPEBU_TlgProvider_t@2@PEFBXPEBU_GUID@@2IPEAU_EVENT_DATA_DESCRIPTOR@@@Z@4U_TraceLoggingMetadata_t@2@B 0000000180056638     libvcruntime:telemetry.obj
 0002:000116eb       ?_TraceLoggingMetadataEnd@?1??_TlgWrite@__vcrt_trace_logging_provider@@YAJPEBU_TlgProvider_t@2@PEFBXPEBU_GUID@@2IPEAU_EVENT_DATA_DESCRIPTOR@@@Z@4EB 00000001800566eb     libvcruntime:telemetry.obj
 0002:00011c00       __rtc_iaa                  0000000180056c00     LIBCMT:_initsect_.obj
 0002:00011c08       __rtc_izz                  0000000180056c08     LIBCMT:_initsect_.obj
 0002:00011c10       __rtc_taa                  0000000180056c10     LIBCMT:_initsect_.obj
 0002:00011c18       __rtc_tzz                  0000000180056c18     LIBCMT:_initsect_.obj
 0002:0001a230       _TI2?AVbad_alloc@std@@     000000018005f230     libcpmt:xthrow.obj
 0002:0001a250       _CTA2?AVbad_alloc@std@@    000000018005f250     libcpmt:xthrow.obj
 0002:0001a268       _CT??_R0?AVbad_alloc@std@@@8??0bad_alloc@std@@QEAA@AEBV01@@Z24 000000018005f268     libcpmt:xthrow.obj
 0002:0001a290       _CT??_R0?AVexception@std@@@8??0exception@std@@QEAA@AEBV01@@Z24 000000018005f290     libcpmt:xthrow.obj
 0002:0001a2b8       _CT??_R0?AVlogic_error@std@@@8??0logic_error@std@@QEAA@AEBV01@@Z24 000000018005f2b8     libcpmt:xthrow.obj
 0002:0001a2e0       _TI3?AVlength_error@std@@  000000018005f2e0     libcpmt:xthrow.obj
 0002:0001a300       _CTA3?AVlength_error@std@@ 000000018005f300     libcpmt:xthrow.obj
 0002:0001a320       _CT??_R0?AVlength_error@std@@@8??0length_error@std@@QEAA@AEBV01@@Z24 000000018005f320     libcpmt:xthrow.obj
 0002:0001a348       _TI3?AVout_of_range@std@@  000000018005f348     libcpmt:xthrow.obj
 0002:0001a368       _CTA3?AVout_of_range@std@@ 000000018005f368     libcpmt:xthrow.obj
 0002:0001a388       _CT??_R0?AVout_of_range@std@@@8??0out_of_range@std@@QEAA@AEBV01@@Z24 000000018005f388     libcpmt:xthrow.obj
 0002:0001a3b0       _TI3?AVbad_array_new_length@std@@ 000000018005f3b0     LIBCMT:throw_bad_alloc.obj
 0002:0001a3d0       _CTA3?AVbad_array_new_length@std@@ 000000018005f3d0     LIBCMT:throw_bad_alloc.obj
 0002:0001a3f0       _CT??_R0?AVbad_array_new_length@std@@@8??0bad_array_new_length@std@@QEAA@AEBV01@@Z24 000000018005f3f0     LIBCMT:throw_bad_alloc.obj
 0002:0001a418       _TI2?AVbad_exception@std@@ 000000018005f418     libvcruntime:frame.obj
 0002:0001a438       _CTA2?AVbad_exception@std@@ 000000018005f438     libvcruntime:frame.obj
 0002:0001a450       _CT??_R0?AVbad_exception@std@@@8??0bad_exception@std@@QEAA@AEBV01@@Z24 000000018005f450     libvcruntime:frame.obj
 0002:0001a478       _CTA3?AVExceptionImpl@@    000000018005f478     dpiEnvImpl.obj
 0002:0001a498       _CT??_R0?AVException@dpi@@@816 000000018005f498     dpiEnvImpl.obj
 0002:0001a4c0       _CT??_R0?AVExceptionImpl@@@888 000000018005f4c0     dpiEnvImpl.obj
 0002:0001a4e8       _TI3?AVExceptionImpl@@     000000018005f4e8     dpiEnvImpl.obj
 0002:0001a508       _CT??_R0?AVexception@stdext@@@816 000000018005f508     dpiEnvImpl.obj
 0002:0001a52c       __DELAY_IMPORT_DESCRIPTOR_node_exe 000000018005f52c     node:node.exe
 0002:0001a54c       __NULL_DELAY_IMPORT_DESCRIPTOR 000000018005f54c     node:node.exe
 0002:0001a810       \177node_NULL_THUNK_DATA_DLN 000000018005f810     node:node.exe
 0002:0001bce8       \177node_NULL_THUNK_DATA_DLB 0000000180060ce8     node:node.exe
 0002:0001bfe4       __IMPORT_DESCRIPTOR_KERNEL32 0000000180060fe4     kernel32:KERNEL32.dll
 0002:0001bff8       __IMPORT_DESCRIPTOR_OCI    0000000180060ff8     oci:OCI.dll
 0002:0001c00c       __IMPORT_DESCRIPTOR_ADVAPI32 000000018006100c     advapi32:ADVAPI32.dll
 0002:0001c020       __NULL_IMPORT_DESCRIPTOR   0000000180061020     kernel32:KERNEL32.dll
 0003:00000004       ?_Sync@ios_base@std@@0_NA  0000000180062004     libcpmt:ios.obj
 0003:00000020       ?_PJP_CPP_Copyright@@3PADA 0000000180062020     libcpmt:iosptrs.obj
 0003:00000078       _FDenorm                   0000000180062078     libcpmt:xfvalues.obj
 0003:00000088       _FInf                      0000000180062088     libcpmt:xfvalues.obj
 0003:00000098       _FNan                      0000000180062098     libcpmt:xfvalues.obj
 0003:000000a8       _FSnan                     00000001800620a8     libcpmt:xfvalues.obj
 0003:000000b8       _FEps                      00000001800620b8     libcpmt:xfvalues.obj
 0003:000000c8       _FRteps                    00000001800620c8     libcpmt:xfvalues.obj
 0003:000000d8       _FXbig                     00000001800620d8     libcpmt:xfvalues.obj
 0003:000000e0       _Denorm                    00000001800620e0     libcpmt:xvalues.obj
 0003:000000f0       _Hugeval                   00000001800620f0     libcpmt:xvalues.obj
 0003:00000100       _Inf                       0000000180062100     libcpmt:xvalues.obj
 0003:00000110       _Nan                       0000000180062110     libcpmt:xvalues.obj
 0003:00000120       _Snan                      0000000180062120     libcpmt:xvalues.obj
 0003:00000130       _Eps                       0000000180062130     libcpmt:xvalues.obj
 0003:00000140       _Rteps                     0000000180062140     libcpmt:xvalues.obj
 0003:00000150       _Xbig                      0000000180062150     libcpmt:xvalues.obj
 0003:00000158       _LDenorm                   0000000180062158     libcpmt:xlvalues.obj
 0003:00000168       _LInf                      0000000180062168     libcpmt:xlvalues.obj
 0003:00000178       _LNan                      0000000180062178     libcpmt:xlvalues.obj
 0003:00000188       _LSnan                     0000000180062188     libcpmt:xlvalues.obj
 0003:00000198       _LEps                      0000000180062198     libcpmt:xlvalues.obj
 0003:000001a8       _LRteps                    00000001800621a8     libcpmt:xlvalues.obj
 0003:000001b8       _LXbig                     00000001800621b8     libcpmt:xlvalues.obj
 0003:000001c0       _Init_global_epoch         00000001800621c0     LIBCMT:thread_safe_statics.obj
 0003:000001c4       __scrt_native_dllmain_reason 00000001800621c4     LIBCMT:utility.obj
 0003:000001c8       __security_cookie          00000001800621c8     LIBCMT:gs_cookie.obj
 0003:000001d0       __security_cookie_complement 00000001800621d0     LIBCMT:gs_cookie.obj
 0003:000001d8       _fltused                   00000001800621d8     LIBCMT:fltused.obj
 0003:000001e0       __isa_available            00000001800621e0     LIBCMT:_cpu_disp_.obj
 0003:000001e4       __isa_enabled              00000001800621e4     LIBCMT:_cpu_disp_.obj
 0003:000001e8       __memcpy_nt_iters          00000001800621e8     LIBCMT:_cpu_disp_.obj
 0003:00000250       __abort_behavior           0000000180062250     libucrt:abort.obj
 0003:00000260       __acrt_lconv_c             0000000180062260     libucrt:localeconv.obj
 0003:000002f8       __acrt_lconv               00000001800622f8     libucrt:localeconv.obj
 0003:00000300       __acrt_lconv_static_decimal 0000000180062300     libucrt:localeconv.obj
 0003:00000304       __acrt_lconv_static_W_decimal 0000000180062304     libucrt:localeconv.obj
 0003:00000308       _pctype                    0000000180062308     libucrt:ctype.obj
 0003:00000310       _pwctype                   0000000180062310     libucrt:ctype.obj
 0003:00000330       _iob                       0000000180062330     libucrt:_file.obj
 0003:00000440       __acrt_initial_locale_data 0000000180062440     libucrt:nlsdata.obj
 0003:00000598       __acrt_initial_locale_pointers 0000000180062598     libucrt:nlsdata.obj
 0003:000005a8       __acrt_wide_c_locale_string 00000001800625a8     libucrt:nlsdata.obj
 0003:000005ac       __mb_cur_max               00000001800625ac     libucrt:nlsdata.obj
 0003:000005b0       __badioinfo                00000001800625b0     libucrt:ioinit.obj
 0003:000005f4       __globallocalestatus       00000001800625f4     libucrt:glstatus.obj
 0003:00000690       __acrt_initial_multibyte_data 0000000180062690     libucrt:mbctype.obj
 0003:000008b8       __acrt_current_multibyte_data 00000001800628b8     libucrt:mbctype.obj
 0003:000009c0       _mbctype                   00000001800629c0     libucrt:mbctype.obj
 0003:00000ad0       _mbcasemap                 0000000180062ad0     libucrt:mbctype.obj
 0003:00000be0       __dcrt_lowio_console_output_handle 0000000180062be0     libucrt:initcon.obj
 0003:00000c30       __pfnDliNotifyHook2        0000000180062c30     win_delay_load_hook.obj
 0003:00000c40       ??_R0?AV_Facet_base@std@@@8 0000000180062c40     libcpmt:locale0.obj
 0003:00000c68       ??_R0?AV_Locimp@locale@std@@@8 0000000180062c68     libcpmt:locale0.obj
 0003:00000c98       ??_R0?AVfacet@locale@std@@@8 0000000180062c98     libcpmt:locale0.obj
 0003:00000cc0       ??_R0?AU_Crt_new_delete@std@@@8 0000000180062cc0     libcpmt:locale0.obj
 0003:00000cf0       ??_R0?AVbad_alloc@std@@@8  0000000180062cf0     libcpmt:xthrow.obj
 0003:00000d18       ??_R0?AVexception@std@@@8  0000000180062d18     libcpmt:xthrow.obj
 0003:00000d40       ??_R0?AVlogic_error@std@@@8 0000000180062d40     libcpmt:xthrow.obj
 0003:00000d68       ??_R0?AVlength_error@std@@@8 0000000180062d68     libcpmt:xthrow.obj
 0003:00000d90       ??_R0?AVout_of_range@std@@@8 0000000180062d90     libcpmt:xthrow.obj
 0003:00000db8       ??_R0?AVruntime_error@std@@@8 0000000180062db8     libcpmt:xthrow.obj
 0003:00000de0       ??_R0?AUctype_base@std@@@8 0000000180062de0     libcpmt:locale.obj
 0003:00000e08       ??_R0?AV?$ctype@D@std@@@8  0000000180062e08     libcpmt:locale.obj
 0003:00000e30       ??_R0?AV?$num_put@DV?$ostreambuf_iterator@DU?$char_traits@D@std@@@std@@@std@@@8 0000000180062e30     libcpmt:locale.obj
 0003:00000e90       ??_R0?AV?$numpunct@D@std@@@8 0000000180062e90     libcpmt:locale.obj
 0003:00000eb8       ??_R0?AVtype_info@@@8      0000000180062eb8     LIBCMT:std_type_info_static.obj
 0003:00000ed8       ??_R0?AVbad_array_new_length@std@@@8 0000000180062ed8     LIBCMT:throw_bad_alloc.obj
 0003:00000f08       ??_R0?AVbad_exception@std@@@8 0000000180062f08     libvcruntime:frame.obj
 0003:00000f30       ??_R0?AVException@dpi@@@8  0000000180062f30     njsOracle.obj
 0003:00000f58       ??_R0?AVexception@stdext@@@8 0000000180062f58     dpiEnvImpl.obj
 0003:00000f80       ??_R0?AVExceptionImpl@@@8  0000000180062f80     dpiEnvImpl.obj
 0003:00000fa8       __imp_uv_queue_work        0000000180062fa8     node:node.exe
 0003:00000fb0       __imp_?Global@Context@v8@@QEAA?AV?$Local@VObject@v8@@@2@XZ 0000000180062fb0     node:node.exe
 0003:00000fb8       __imp_?Value@External@v8@@QEBAPEAXXZ 0000000180062fb8     node:node.exe
 0003:00000fc0       __imp_?New@External@v8@@SA?AV?$Local@VExternal@v8@@@2@PEAVIsolate@2@PEAX@Z 0000000180062fc0     node:node.exe
 0003:00000fc8       __imp_?NewFromUnsigned@Integer@v8@@SA?AV?$Local@VInteger@v8@@@2@PEAVIsolate@2@I@Z 0000000180062fc8     node:node.exe
 0003:00000fd0       __imp_?New@Integer@v8@@SA?AV?$Local@VInteger@v8@@@2@PEAVIsolate@2@H@Z 0000000180062fd0     node:node.exe
 0003:00000fd8       __imp_?New@Signature@v8@@SA?AV?$Local@VSignature@v8@@@2@PEAVIsolate@2@V?$Local@VFunctionTemplate@v8@@@2@@Z 0000000180062fd8     node:node.exe
 0003:00000fe0       __imp_?ThrowException@Isolate@v8@@QEAA?AV?$Local@VValue@v8@@@2@V32@@Z 0000000180062fe0     node:node.exe
 0003:00000fe8       __imp_?GetCurrentContext@Isolate@v8@@QEAA?AV?$Local@VContext@v8@@@2@XZ 0000000180062fe8     node:node.exe
 0003:00000ff0       __imp_?GetCurrent@Isolate@v8@@SAPEAV12@XZ 0000000180062ff0     node:node.exe
 0003:00000ff8       __imp_?CreateHandle@HandleScope@v8@@KAPEAPEAVObject@internal@2@PEAVIsolate@42@PEAV342@@Z 0000000180062ff8     node:node.exe
 0003:00001000       __imp_?CreateHandle@HandleScope@v8@@CAPEAPEAVObject@internal@2@PEAVHeapObject@42@PEAV342@@Z 0000000180063000     node:node.exe
 0003:00001008       __imp_??1HandleScope@v8@@QEAA@XZ 0000000180063008     node:node.exe
 0003:00001010       __imp_??0HandleScope@v8@@QEAA@PEAVIsolate@1@@Z 0000000180063010     node:node.exe
 0003:00001018       __imp_?Set@Template@v8@@QEAAXV?$Local@VName@v8@@@2@V?$Local@VData@v8@@@2@W4PropertyAttribute@2@@Z 0000000180063018     node:node.exe
 0003:00001020       __imp_?Error@Exception@v8@@SA?AV?$Local@VValue@v8@@@2@V?$Local@VString@v8@@@2@@Z 0000000180063020     node:node.exe
 0003:00001028       __imp_?New@Array@v8@@SA?AV?$Local@VArray@v8@@@2@PEAVIsolate@2@H@Z 0000000180063028     node:node.exe
 0003:00001030       __imp_?Length@Array@v8@@QEBAIXZ 0000000180063030     node:node.exe
 0003:00001038       __imp_?SetClassName@FunctionTemplate@v8@@QEAAXV?$Local@VString@v8@@@2@@Z 0000000180063038     node:node.exe
 0003:00001040       __imp_?PrototypeTemplate@FunctionTemplate@v8@@QEAA?AV?$Local@VObjectTemplate@v8@@@2@XZ 0000000180063040     node:node.exe
 0003:00001048       __imp_?InstanceTemplate@FunctionTemplate@v8@@QEAA?AV?$Local@VObjectTemplate@v8@@@2@XZ 0000000180063048     node:node.exe
 0003:00001050       __imp_?GetFunction@FunctionTemplate@v8@@QEAA?AV?$Local@VFunction@v8@@@2@XZ 0000000180063050     node:node.exe
 0003:00001058       __imp_?New@FunctionTemplate@v8@@SA?AV?$Local@VFunctionTemplate@v8@@@2@PEAVIsolate@2@P6AXAEBV?$FunctionCallbackInfo@VValue@v8@@@2@@ZV?$Local@VValue@v8@@@2@V?$Local@VSignature@v8@@@2@H@Z 0000000180063058     node:node.exe
 0003:00001060       __imp_?Value@Boolean@v8@@QEBA_NXZ 0000000180063060     node:node.exe
 0003:00001068       __imp_?ToLocalEmpty@V8@v8@@CAXXZ 0000000180063068     node:node.exe
 0003:00001070       __imp_?ClearWeak@V8@v8@@CAPEAXPEAPEAVObject@internal@2@@Z 0000000180063070     node:node.exe
 0003:00001078       __imp_?MakeWeak@V8@v8@@CAXPEAPEAVObject@internal@2@PEAXP6AXAEBV?$WeakCallbackInfo@X@2@@ZW4WeakCallbackType@2@@Z 0000000180063078     node:node.exe
 0003:00001080       __imp_?DisposeGlobal@V8@v8@@CAXPEAPEAVObject@internal@2@@Z 0000000180063080     node:node.exe
 0003:00001088       __imp_?GlobalizeReference@V8@v8@@CAPEAPEAVObject@internal@2@PEAVIsolate@42@PEAPEAV342@@Z 0000000180063088     node:node.exe
 0003:00001090       __imp_?ToInteger@Value@v8@@QEBA?AV?$MaybeLocal@VInteger@v8@@@2@V?$Local@VContext@v8@@@2@@Z 0000000180063090     node:node.exe
 0003:00001098       __imp_?IsUint32@Value@v8@@QEBA_NXZ 0000000180063098     node:node.exe
 0003:000010a0       __imp_?IsNumber@Value@v8@@QEBA_NXZ 00000001800630a0     node:node.exe
 0003:000010a8       __imp_?IsObject@Value@v8@@QEBA_NXZ 00000001800630a8     node:node.exe
 0003:000010b0       __imp_?IsArray@Value@v8@@QEBA_NXZ 00000001800630b0     node:node.exe
 0003:000010b8       __imp_?IsFunction@Value@v8@@QEBA_NXZ 00000001800630b8     node:node.exe
 0003:000010c0       __imp_?Value@Uint32@v8@@QEBAIXZ 00000001800630c0     node:node.exe
 0003:000010c8       __imp_?HasCaught@TryCatch@v8@@QEBA_NXZ 00000001800630c8     node:node.exe
 0003:000010d0       __imp_??1TryCatch@v8@@QEAA@XZ 00000001800630d0     node:node.exe
 0003:000010d8       __imp_??0TryCatch@v8@@QEAA@PEAVIsolate@1@@Z 00000001800630d8     node:node.exe
 0003:000010e0       __imp_?Escape@EscapableHandleScope@v8@@AEAAPEAPEAVObject@internal@2@PEAPEAV342@@Z 00000001800630e0     node:node.exe
 0003:000010e8       __imp_??0EscapableHandleScope@v8@@QEAA@PEAVIsolate@1@@Z 00000001800630e8     node:node.exe
 0003:000010f0       __imp_??1Utf8Value@String@v8@@QEAA@XZ 00000001800630f0     node:node.exe
 0003:000010f8       __imp_??0Utf8Value@String@v8@@QEAA@V?$Local@VValue@v8@@@2@@Z 00000001800630f8     node:node.exe
 0003:00001100       __imp_?NewFromUtf8@String@v8@@SA?AV?$MaybeLocal@VString@v8@@@2@PEAVIsolate@2@PEBDW4NewStringType@2@H@Z 0000000180063100     node:node.exe
 0003:00001108       __imp_?Value@Int32@v8@@QEBAHXZ 0000000180063108     node:node.exe
 0003:00001110       __imp_?SlowGetAlignedPointerFromInternalField@Object@v8@@AEAAPEAXH@Z 0000000180063110     node:node.exe
 0003:00001118       __imp_?SlowGetInternalField@Object@v8@@AEAA?AV?$Local@VValue@v8@@@2@H@Z 0000000180063118     node:node.exe
 0003:00001120       __imp_?SetAlignedPointerInInternalField@Object@v8@@QEAAXHPEAX@Z 0000000180063120     node:node.exe
 0003:00001128       __imp_?SetInternalField@Object@v8@@QEAAXHV?$Local@VValue@v8@@@2@@Z 0000000180063128     node:node.exe
 0003:00001130       __imp_?InternalFieldCount@Object@v8@@QEAAHXZ 0000000180063130     node:node.exe
 0003:00001138       __imp_?Get@Object@v8@@QEAA?AV?$Local@VValue@v8@@@2@V32@@Z 0000000180063138     node:node.exe
 0003:00001140       __imp_?Get@Object@v8@@QEAA?AV?$Local@VValue@v8@@@2@I@Z 0000000180063140     node:node.exe
 0003:00001148       __imp_?Set@Object@v8@@QEAA?AV?$Maybe@_N@2@V?$Local@VContext@v8@@@2@V?$Local@VValue@v8@@@2@1@Z 0000000180063148     node:node.exe
 0003:00001150       __imp_?Set@Object@v8@@QEAA_NIV?$Local@VValue@v8@@@2@@Z 0000000180063150     node:node.exe
 0003:00001158       __imp_?NewInstance@Function@v8@@QEBA?AV?$Local@VObject@v8@@@2@XZ 0000000180063158     node:node.exe
 0003:00001160       __imp_?SetInternalFieldCount@ObjectTemplate@v8@@QEAAXH@Z 0000000180063160     node:node.exe
 0003:00001168       __imp_?SetAccessor@ObjectTemplate@v8@@QEAAXV?$Local@VName@v8@@@2@P6AX0AEBV?$PropertyCallbackInfo@VValue@v8@@@2@@ZP6AX0V?$Local@VValue@v8@@@2@AEBV?$PropertyCallbackInfo@X@2@@Z3W4AccessControl@2@W4PropertyAttribute@2@V?$Local@VAccessorSignature@v8@@@2@@Z 0000000180063168     node:node.exe
 0003:00001170       __imp_?NewInstance@ObjectTemplate@v8@@QEAA?AV?$MaybeLocal@VObject@v8@@@2@V?$Local@VContext@v8@@@2@@Z 0000000180063170     node:node.exe
 0003:00001178       __imp_?New@ObjectTemplate@v8@@SA?AV?$Local@VObjectTemplate@v8@@@2@PEAVIsolate@2@V?$Local@VFunctionTemplate@v8@@@2@@Z 0000000180063178     node:node.exe
 0003:00001180       __imp_?FatalException@node@@YAXPEAVIsolate@v8@@AEBVTryCatch@3@@Z 0000000180063180     node:node.exe
 0003:00001188       __imp_node_module_register 0000000180063188     node:node.exe
 0003:00001190       __imp_?MakeCallback@node@@YA?AV?$Local@VValue@v8@@@v8@@PEAVIsolate@3@V?$Local@VObject@v8@@@3@V?$Local@VFunction@v8@@@3@HPEAV23@@Z 0000000180063190     node:node.exe
 0003:00001198       __imp_uv_default_loop      0000000180063198     node:node.exe
 0003:000011a0       __imp_?ToInt32@Value@v8@@QEBA?AV?$Local@VInt32@v8@@@2@XZ 00000001800631a0     node:node.exe
 0003:000011a8       __imp_?ToUint32@Value@v8@@QEBA?AV?$Local@VUint32@v8@@@2@XZ 00000001800631a8     node:node.exe
 0003:000011b0       __imp_?ToObject@Value@v8@@QEBA?AV?$Local@VObject@v8@@@2@XZ 00000001800631b0     node:node.exe
 0003:000011b8       __imp_?ToString@Value@v8@@QEBA?AV?$Local@VString@v8@@@2@XZ 00000001800631b8     node:node.exe
 0003:000011c0       __imp_?ToBoolean@Value@v8@@QEBA?AV?$Local@VBoolean@v8@@@2@XZ 00000001800631c0     node:node.exe
 0003:000011c8       __imp_??1EscapableHandleScope@v8@@QEAA@XZ 00000001800631c8     node:node.exe
 0003:000011d0       __imp_?New@Date@v8@@SA?AV?$MaybeLocal@VValue@v8@@@2@V?$Local@VContext@v8@@@2@N@Z 00000001800631d0     node:node.exe
 0003:000011d8       __imp_?NumberValue@Value@v8@@QEBANXZ 00000001800631d8     node:node.exe
 0003:000011e0       __imp_?IsDate@Value@v8@@QEBA_NXZ 00000001800631e0     node:node.exe
 0003:000011e8       __imp_?IsInt32@Value@v8@@QEBA_NXZ 00000001800631e8     node:node.exe
 0003:000011f0       __imp_?New@Number@v8@@SA?AV?$Local@VNumber@v8@@@2@PEAVIsolate@2@N@Z 00000001800631f0     node:node.exe
 0003:000011f8       __imp_?New@Object@v8@@SA?AV?$Local@VObject@v8@@@2@PEAVIsolate@2@@Z 00000001800631f8     node:node.exe
 0003:00001200       __imp_?GetOwnPropertyNames@Object@v8@@QEAA?AV?$Local@VArray@v8@@@2@XZ 0000000180063200     node:node.exe
 0003:00001208       __imp_?ForceSet@Object@v8@@QEAA?AV?$Maybe@_N@2@V?$Local@VContext@v8@@@2@V?$Local@VValue@v8@@@2@1W4PropertyAttribute@2@@Z 0000000180063208     node:node.exe
 0003:00001210       __imp_?Set@Object@v8@@QEAA?AV?$Maybe@_N@2@V?$Local@VContext@v8@@@2@IV?$Local@VValue@v8@@@2@@Z 0000000180063210     node:node.exe
 0003:00001218       __imp_?Call@Function@v8@@QEAA?AV?$Local@VValue@v8@@@2@V32@HQEAV32@@Z 0000000180063218     node:node.exe
 0003:00001220       __imp_?HasInstance@Buffer@node@@YA_NV?$Local@VValue@v8@@@v8@@@Z 0000000180063220     node:node.exe
 0003:00001228       __imp_?HasInstance@Buffer@node@@YA_NV?$Local@VObject@v8@@@v8@@@Z 0000000180063228     node:node.exe
 0003:00001230       __imp_?Data@Buffer@node@@YAPEADV?$Local@VObject@v8@@@v8@@@Z 0000000180063230     node:node.exe
 0003:00001238       __imp_?Copy@Buffer@node@@YA?AV?$MaybeLocal@VObject@v8@@@v8@@PEAVIsolate@4@PEBD_K@Z 0000000180063238     node:node.exe
 0003:00001240       __imp_?Length@Buffer@node@@YA_KV?$Local@VObject@v8@@@v8@@@Z 0000000180063240     node:node.exe
 0003:00001248       \177node_NULL_THUNK_DATA_DLA 0000000180063248     node:node.exe
 0003:00001250       __hmod__node_exe           0000000180063250     node:node.exe
 0003:000013b0       ?_Id_cnt@id@locale@std@@0HA 00000001800633b0     libcpmt:locale0.obj
 0003:000013c0       ?_Clocptr@_Locimp@locale@std@@0PEAV123@EA 00000001800633c0     libcpmt:locale0.obj
 0003:000013d0       ?id@?$ctype@_W@std@@2V0locale@2@A 00000001800633d0     libcpmt:locale0.obj
 0003:000013d8       ?id@?$ctype@D@std@@2V0locale@2@A 00000001800633d8     libcpmt:locale0.obj
 0003:000013e0       ?id@?$codecvt@GDU_Mbstatet@@@std@@2V0locale@2@A 00000001800633e0     libcpmt:locale0.obj
 0003:000013e8       ?id@?$ctype@G@std@@2V0locale@2@A 00000001800633e8     libcpmt:locale0.obj
 0003:00001400       ?id@?$codecvt@_WDU_Mbstatet@@@std@@2V0locale@2@A 0000000180063400     libcpmt:locale0.obj
 0003:0000146c       ?_Index@ios_base@std@@0HA  000000018006346c     libcpmt:ios.obj
 0003:00001470       ?_Raise_handler@std@@3P6AXAEBVexception@stdext@@@ZEA 0000000180063470     libcpmt:raisehan.obj
 0003:000014d0       ?_Ptr_cin@std@@3PEAV?$basic_istream@DU?$char_traits@D@std@@@1@EA 00000001800634d0     libcpmt:iosptrs.obj
 0003:000014d8       ?_Ptr_cout@std@@3PEAV?$basic_ostream@DU?$char_traits@D@std@@@1@EA 00000001800634d8     libcpmt:iosptrs.obj
 0003:000014e0       ?_Ptr_cerr@std@@3PEAV?$basic_ostream@DU?$char_traits@D@std@@@1@EA 00000001800634e0     libcpmt:iosptrs.obj
 0003:000014e8       ?_Ptr_clog@std@@3PEAV?$basic_ostream@DU?$char_traits@D@std@@@1@EA 00000001800634e8     libcpmt:iosptrs.obj
 0003:000014f0       ?_Ptr_wcin@std@@3PEAV?$basic_istream@_WU?$char_traits@_W@std@@@1@EA 00000001800634f0     libcpmt:iosptrs.obj
 0003:000014f8       ?_Ptr_wcout@std@@3PEAV?$basic_ostream@_WU?$char_traits@_W@std@@@1@EA 00000001800634f8     libcpmt:iosptrs.obj
 0003:00001500       ?_Ptr_wcerr@std@@3PEAV?$basic_ostream@_WU?$char_traits@_W@std@@@1@EA 0000000180063500     libcpmt:iosptrs.obj
 0003:00001508       ?_Ptr_wclog@std@@3PEAV?$basic_ostream@_WU?$char_traits@_W@std@@@1@EA 0000000180063508     libcpmt:iosptrs.obj
 0003:00001518       ?id@?$num_get@DV?$istreambuf_iterator@DU?$char_traits@D@std@@@std@@@std@@2V0locale@2@A 0000000180063518     libcpmt:locale.obj
 0003:00001520       ?id@?$codecvt@DDU_Mbstatet@@@std@@2V0locale@2@A 0000000180063520     libcpmt:locale.obj
 0003:00001530       __encodedKERNEL32Functions 0000000180063530     libcpmt:winapisupp.obj
 0003:00001670       ?id@?$time_put@_WV?$ostreambuf_iterator@_WU?$char_traits@_W@std@@@std@@@std@@2V0locale@2@A 0000000180063670     libcpmt:wlocale.obj
 0003:00001678       ?id@?$num_get@_WV?$istreambuf_iterator@_WU?$char_traits@_W@std@@@std@@@std@@2V0locale@2@A 0000000180063678     libcpmt:wlocale.obj
 0003:00001680       ?id@?$num_put@_WV?$ostreambuf_iterator@_WU?$char_traits@_W@std@@@std@@@std@@2V0locale@2@A 0000000180063680     libcpmt:wlocale.obj
 0003:00001688       ?id@?$numpunct@_W@std@@2V0locale@2@A 0000000180063688     libcpmt:wlocale.obj
 0003:00001690       ?id@?$collate@_W@std@@2V0locale@2@A 0000000180063690     libcpmt:wlocale.obj
 0003:00001698       ?id@?$messages@_W@std@@2V0locale@2@A 0000000180063698     libcpmt:wlocale.obj
 0003:000016a0       ?id@?$money_get@_WV?$istreambuf_iterator@_WU?$char_traits@_W@std@@@std@@@std@@2V0locale@2@A 00000001800636a0     libcpmt:wlocale.obj
 0003:000016a8       ?id@?$money_put@_WV?$ostreambuf_iterator@_WU?$char_traits@_W@std@@@std@@@std@@2V0locale@2@A 00000001800636a8     libcpmt:wlocale.obj
 0003:000016b0       ?id@?$moneypunct@_W$0A@@std@@2V0locale@2@A 00000001800636b0     libcpmt:wlocale.obj
 0003:000016b8       ?id@?$moneypunct@_W$00@std@@2V0locale@2@A 00000001800636b8     libcpmt:wlocale.obj
 0003:000016c0       ?id@?$time_get@_WV?$istreambuf_iterator@_WU?$char_traits@_W@std@@@std@@@std@@2V0locale@2@A 00000001800636c0     libcpmt:wlocale.obj
 0003:000016c8       ?id@?$num_get@GV?$istreambuf_iterator@GU?$char_traits@G@std@@@std@@@std@@2V0locale@2@A 00000001800636c8     libcpmt:wlocale.obj
 0003:000016d0       ?id@?$num_put@GV?$ostreambuf_iterator@GU?$char_traits@G@std@@@std@@@std@@2V0locale@2@A 00000001800636d0     libcpmt:wlocale.obj
 0003:000016d8       ?id@?$numpunct@G@std@@2V0locale@2@A 00000001800636d8     libcpmt:wlocale.obj
 0003:000016e0       ?id@?$collate@G@std@@2V0locale@2@A 00000001800636e0     libcpmt:wlocale.obj
 0003:000016e8       ?id@?$messages@G@std@@2V0locale@2@A 00000001800636e8     libcpmt:wlocale.obj
 0003:000016f0       ?id@?$money_get@GV?$istreambuf_iterator@GU?$char_traits@G@std@@@std@@@std@@2V0locale@2@A 00000001800636f0     libcpmt:wlocale.obj
 0003:000016f8       ?id@?$money_put@GV?$ostreambuf_iterator@GU?$char_traits@G@std@@@std@@@std@@2V0locale@2@A 00000001800636f8     libcpmt:wlocale.obj
 0003:00001700       ?id@?$moneypunct@G$0A@@std@@2V0locale@2@A 0000000180063700     libcpmt:wlocale.obj
 0003:00001708       ?id@?$moneypunct@G$00@std@@2V0locale@2@A 0000000180063708     libcpmt:wlocale.obj
 0003:00001710       ?id@?$time_get@GV?$istreambuf_iterator@GU?$char_traits@G@std@@@std@@@std@@2V0locale@2@A 0000000180063710     libcpmt:wlocale.obj
 0003:00001718       ?id@?$time_put@GV?$ostreambuf_iterator@GU?$char_traits@G@std@@@std@@@std@@2V0locale@2@A 0000000180063718     libcpmt:wlocale.obj
 0003:00001720       ?id@?$collate@D@std@@2V0locale@2@A 0000000180063720     libcpmt:xlocale.obj
 0003:00001728       ?id@?$messages@D@std@@2V0locale@2@A 0000000180063728     libcpmt:xlocale.obj
 0003:00001730       ?id@?$money_get@DV?$istreambuf_iterator@DU?$char_traits@D@std@@@std@@@std@@2V0locale@2@A 0000000180063730     libcpmt:xlocale.obj
 0003:00001738       ?id@?$money_put@DV?$ostreambuf_iterator@DU?$char_traits@D@std@@@std@@@std@@2V0locale@2@A 0000000180063738     libcpmt:xlocale.obj
 0003:00001740       ?id@?$moneypunct@D$0A@@std@@2V0locale@2@A 0000000180063740     libcpmt:xlocale.obj
 0003:00001748       ?id@?$moneypunct@D$00@std@@2V0locale@2@A 0000000180063748     libcpmt:xlocale.obj
 0003:00001750       ?id@?$time_get@DV?$istreambuf_iterator@DU?$char_traits@D@std@@@std@@@std@@2V0locale@2@A 0000000180063750     libcpmt:xlocale.obj
 0003:00001758       ?id@?$time_put@DV?$ostreambuf_iterator@DU?$char_traits@D@std@@@std@@@std@@2V0locale@2@A 0000000180063758     libcpmt:xlocale.obj
 0003:00001760       _FZero                     0000000180063760     libcpmt:xfvalues.obj
 0003:00001768       _Zero                      0000000180063768     libcpmt:xvalues.obj
 0003:00001770       _LZero                     0000000180063770     libcpmt:xlvalues.obj
 0003:000017c0       __scrt_current_native_startup_state 00000001800637c0     LIBCMT:utility.obj
 0003:000017c8       __scrt_native_startup_lock 00000001800637c8     LIBCMT:utility.obj
 0003:00001d84       __scrt_debugger_hook_flag  0000000180063d84     LIBCMT:utility_desktop.obj
 0003:00001d88       _tls_index                 0000000180063d88     LIBCMT:tlssup.obj
 0003:00001d8c       __favor                    0000000180063d8c     LIBCMT:_cpu_disp_.obj
 0003:00001d90       ?__type_info_root_node@@3U__type_info_node@@A 0000000180063d90     LIBCMT:tncleanup.obj
 0003:00001da0       ?_OptionsStorage@?1??__local_stdio_scanf_options@@9@4_KA 0000000180063da0     LIBCMT:default_local_stdio_options.obj
 0003:00001da8       ?g_OutOfMemoryExceptionCallback@@3P6APEAXXZEA 0000000180063da8     libvcruntime:frame.obj
 0003:00001e18       __pPurecall                0000000180063e18     libvcruntime:purevirt_data.obj
 0003:00001ec8       ?pArgList@UnDecorator@@0PEAVReplicator@@EA 0000000180063ec8     libvcruntime:undname.obj
 0003:00001ed0       ?pZNameList@UnDecorator@@0PEAVReplicator@@EA 0000000180063ed0     libvcruntime:undname.obj
 0003:00001ed8       ?pTemplateArgList@UnDecorator@@0PEAVReplicator@@EA 0000000180063ed8     libvcruntime:undname.obj
 0003:00001ee0       ?gName@UnDecorator@@0PEBDEB 0000000180063ee0     libvcruntime:undname.obj
 0003:00001ee8       ?name@UnDecorator@@0PEBDEB 0000000180063ee8     libvcruntime:undname.obj
 0003:00001ef0       ?outputString@UnDecorator@@0PEADEA 0000000180063ef0     libvcruntime:undname.obj
 0003:00001ef8       ?maxStringLength@UnDecorator@@0HA 0000000180063ef8     libvcruntime:undname.obj
 0003:00001efc       ?disableFlags@UnDecorator@@0KA 0000000180063efc     libvcruntime:undname.obj
 0003:00001f00       ?fExplicitTemplateParams@UnDecorator@@0_NA 0000000180063f00     libvcruntime:undname.obj
 0003:00001f01       ?fGetTemplateArgumentList@UnDecorator@@0_NA 0000000180063f01     libvcruntime:undname.obj
 0003:00001f08       ?m_pGetParameter@UnDecorator@@0P6APEADJ@ZEA 0000000180063f08     libvcruntime:undname.obj
 0003:00001f40       __acrt_lconv_static_null   0000000180063f40     libucrt:localeconv.obj
 0003:00001f44       __acrt_lconv_static_W_null 0000000180063f44     libucrt:localeconv.obj
 0003:00002180       _environ_table             0000000180064180     libucrt:environment_initialization.obj
 0003:00002188       _wenviron_table            0000000180064188     libucrt:environment_initialization.obj
 0003:00002190       __dcrt_initial_wide_environment 0000000180064190     libucrt:environment_initialization.obj
 0003:00002198       __dcrt_initial_narrow_environment 0000000180064198     libucrt:environment_initialization.obj
 0003:000021a0       __acrt_atexit_table        00000001800641a0     libucrt:onexit.obj
 0003:000021b8       __acrt_at_quick_exit_table 00000001800641b8     libucrt:onexit.obj
 0003:000021f0       _nstream                   00000001800641f0     libucrt:_file.obj
 0003:000021f8       __piob                     00000001800641f8     libucrt:_file.obj
 0003:00002200       _cflush                    0000000180064200     libucrt:_file.obj
 0003:00002210       __acrt_stdout_buffer       0000000180064210     libucrt:_sftbuf.obj
 0003:00002218       __acrt_stderr_buffer       0000000180064218     libucrt:_sftbuf.obj
 0003:00002220       __acrt_locale_changed_data 0000000180064220     libucrt:wsetlocale.obj
 0003:00002228       __acrt_current_locale_data 0000000180064228     libucrt:nlsdata.obj
 0003:00002230       __pioinfo                  0000000180064230     libucrt:ioinit.obj
 0003:00002630       _nhandle                   0000000180064630     libucrt:ioinit.obj
 0003:000027f0       __acrt_heap                00000001800647f0     libucrt:heap_handle.obj
 0003:000027f8       ?_timezone@@3V?$dual_state_global@J@__crt_state_management@@A 00000001800647f8     libucrt:timeset.obj
 0003:000027fc       ?_daylight@@3V?$dual_state_global@H@__crt_state_management@@A 00000001800647fc     libucrt:timeset.obj
 0003:00002800       ?_dstbias@@3V?$dual_state_global@J@__crt_state_management@@A 0000000180064800     libucrt:timeset.obj
 0003:000028cc       __mbcodepage               00000001800648cc     libucrt:mbctype.obj
 0003:000028d0       __ismbcodepage             00000001800648d0     libucrt:mbctype.obj
 0003:000028d8       __mbulinfo                 00000001800648d8     libucrt:mbctype.obj
 0003:000028e8       __mblocalename             00000001800648e8     libucrt:mbctype.obj
 0003:000028f8       __argv                     00000001800648f8     libucrt:argv_data.obj
 0003:00002900       __wargv                    0000000180064900     libucrt:argv_data.obj
 0003:00002908       _acmdln                    0000000180064908     libucrt:argv_data.obj
 0003:00002910       _wcmdln                    0000000180064910     libucrt:argv_data.obj
 0003:00002920       __fma3_is_available        0000000180064920     libucrt:fma3_available.obj
 0003:00002924       __use_fma3_lib             0000000180064924     libucrt:fma3_available.obj
 0003:00002928       ?DloadKernel32@@3PEAUHINSTANCE__@@EA 0000000180064928     DelayImp:delayhlp.obj
 0003:00002930       ?DloadAcquireSRWLockExclusive@@3P6AXPEA_K@ZEA 0000000180064930     DelayImp:delayhlp.obj
 0003:00002938       ?DloadReleaseSRWLockExclusive@@3P6AXPEA_K@ZEA 0000000180064938     DelayImp:delayhlp.obj
 0003:00002940       ?DloadSrwLock@@3_KA        0000000180064940     DelayImp:delayhlp.obj
 0003:00002948       ?DloadSectionLockCount@@3KA 0000000180064948     DelayImp:delayhlp.obj
 0003:0000294c       ?DloadSectionOldProtection@@3KA 000000018006494c     DelayImp:delayhlp.obj
 0003:00002950       ?DloadSectionCommitPermanent@@3KA 0000000180064950     DelayImp:delayhlp.obj
 0003:00002958       __pfnDliFailureHook2       0000000180064958     DelayImp:delayhk1.obj
 0003:00002960       ?_Static@?1???$_Immortalize@V_Iostream_error_category@std@@@std@@YAAEAV_Iostream_error_category@1@XZ@4U?$_Immortalizer@V_Iostream_error_category@std@@@1@A 0000000180064960     njsOracle.obj
 0003:00002970       ?$TSS0@?1???$_Immortalize@V_Iostream_error_category@std@@@std@@YAAEAV_Iostream_error_category@1@XZ@4HA 0000000180064970     njsOracle.obj
 0003:00002978       ?_OptionsStorage@?1??__local_stdio_printf_options@@9@4_KA 0000000180064978     njsOracle.obj
 0003:00002980       ?_Psave@?$_Facetptr@V?$numpunct@D@std@@@std@@2PEBVfacet@locale@2@EB 0000000180064980     njsOracle.obj
 0003:00002988       ?_Psave@?$_Facetptr@V?$num_put@DV?$ostreambuf_iterator@DU?$char_traits@D@std@@@std@@@std@@@std@@2PEBVfacet@locale@2@EB 0000000180064988     njsOracle.obj
 0003:00002990       ?_Psave@?$_Facetptr@V?$ctype@D@std@@@std@@2PEBVfacet@locale@2@EB 0000000180064990     njsOracle.obj
 0003:00002998       ?baseDate_@DateTimeArrayImpl@dpi@@0PEAUOCIDateTime@@EA 0000000180064998     dpiDateTimeArrayImpl.obj
 0003:000029a0       ?oracledbTemplate_s@Oracledb@@0V?$Persistent@VFunctionTemplate@v8@@V?$NonCopyablePersistentTraits@VFunctionTemplate@v8@@@2@@Nan@@A 00000001800649a0     njsOracle.obj
 0003:000029a8       ?poolTemplate_s@Pool@@2V?$Persistent@VFunctionTemplate@v8@@V?$NonCopyablePersistentTraits@VFunctionTemplate@v8@@@2@@Nan@@A 00000001800649a8     njsPool.obj
 0003:000029b0       ?connectionTemplate_s@Connection@@2V?$Persistent@VFunctionTemplate@v8@@V?$NonCopyablePersistentTraits@VFunctionTemplate@v8@@@2@@Nan@@A 00000001800649b0     njsConnection.obj
 0003:000029b8       ?resultSetTemplate_s@ResultSet@@2V?$Persistent@VFunctionTemplate@v8@@V?$NonCopyablePersistentTraits@VFunctionTemplate@v8@@@2@@Nan@@A 00000001800649b8     njsResultSet.obj
 0003:000029c0       ?iLobTemplate_s@ILob@@2V?$Persistent@VFunctionTemplate@v8@@V?$NonCopyablePersistentTraits@VFunctionTemplate@v8@@@2@@Nan@@A 00000001800649c0     njsIntLob.obj
 0003:000029c8       ?id@?$num_put@DV?$ostreambuf_iterator@DU?$char_traits@D@std@@@std@@@std@@2V0locale@2@A 00000001800649c8     njsOracle.obj
 0003:000029d0       ?id@?$numpunct@D@std@@2V0locale@2@A 00000001800649d0     njsOracle.obj
 0003:000029d8       __dyn_tls_init_callback    00000001800649d8     <common>
 0003:000029e0       __scrt_ucrt_dll_is_in_use  00000001800649e0     <common>
 0006:00000000       _tls_start                 000000018006a000     LIBCMT:tlssup.obj
 0006:00000004       _Init_thread_epoch         000000018006a004     LIBCMT:thread_safe_statics.obj
 0006:00000008       _tls_end                   000000018006a008     LIBCMT:tlssup.obj

 entry point at        0001:000263d0

 Static symbols

 0000:fff92000       .debug$S                   0000000180000000     kernel32:KERNEL32.dll
 0000:fff92000       .debug$S                   0000000180000000     oracledb.exp
 0000:fff92000       .debug$S                   0000000180000000     kernel32:KERNEL32.dll
 0000:fff92000       .debug$S                   0000000180000000     kernel32:KERNEL32.dll
 0000:fff92000       .debug$S                   0000000180000000     kernel32:KERNEL32.dll
 0000:fff92000       .debug$S                   0000000180000000     kernel32:KERNEL32.dll
 0000:fff92000       .debug$S                   0000000180000000     kernel32:KERNEL32.dll
 0000:fff92000       .debug$S                   0000000180000000     kernel32:KERNEL32.dll
 0000:fff92000       .debug$S                   0000000180000000     kernel32:KERNEL32.dll
 0000:fff92000       .debug$S                   0000000180000000     kernel32:KERNEL32.dll
 0000:fff92000       .debug$S                   0000000180000000     kernel32:KERNEL32.dll
 0000:fff92000       .debug$S                   0000000180000000     kernel32:KERNEL32.dll
 0000:fff92000       .debug$S                   0000000180000000     kernel32:KERNEL32.dll
 0000:fff92000       .debug$S                   0000000180000000     kernel32:KERNEL32.dll
 0000:fff92000       .debug$S                   0000000180000000     kernel32:KERNEL32.dll
 0000:fff92000       .debug$S                   0000000180000000     kernel32:KERNEL32.dll
 0000:fff92000       .debug$S                   0000000180000000     kernel32:KERNEL32.dll
 0000:fff92000       .debug$S                   0000000180000000     kernel32:KERNEL32.dll
 0000:fff92000       .debug$S                   0000000180000000     kernel32:KERNEL32.dll
 0000:fff92000       .debug$S                   0000000180000000     kernel32:KERNEL32.dll
 0000:fff92000       .debug$S                   0000000180000000     kernel32:KERNEL32.dll
 0000:fff92000       .debug$S                   0000000180000000     kernel32:KERNEL32.dll
 0000:fff92000       .debug$S                   0000000180000000     kernel32:KERNEL32.dll
 0000:fff92000       .debug$S                   0000000180000000     kernel32:KERNEL32.dll
 0000:fff92000       .debug$S                   0000000180000000     kernel32:KERNEL32.dll
 0000:fff92000       .debug$S                   0000000180000000     kernel32:KERNEL32.dll
 0000:fff92000       .debug$S                   0000000180000000     kernel32:KERNEL32.dll
 0000:fff92000       .debug$S                   0000000180000000     kernel32:KERNEL32.dll
 0000:fff92000       .debug$S                   0000000180000000     kernel32:KERNEL32.dll
 0000:fff92000       .debug$S                   0000000180000000     kernel32:KERNEL32.dll
 0000:fff92000       .debug$S                   0000000180000000     kernel32:KERNEL32.dll
 0000:fff92000       .debug$S                   0000000180000000     kernel32:KERNEL32.dll
 0000:fff92000       .debug$S                   0000000180000000     kernel32:KERNEL32.dll
 0000:fff92000       .debug$S                   0000000180000000     kernel32:KERNEL32.dll
 0000:fff92000       .debug$S                   0000000180000000     kernel32:KERNEL32.dll
 0000:fff92000       .debug$S                   0000000180000000     kernel32:KERNEL32.dll
 0000:fff92000       .debug$S                   0000000180000000     kernel32:KERNEL32.dll
 0000:fff92000       .debug$S                   0000000180000000     kernel32:KERNEL32.dll
 0000:fff92000       .debug$S                   0000000180000000     kernel32:KERNEL32.dll
 0000:fff92000       .debug$S                   0000000180000000     kernel32:KERNEL32.dll
 0000:fff92000       .debug$S                   0000000180000000     kernel32:KERNEL32.dll
 0000:fff92000       .debug$S                   0000000180000000     kernel32:KERNEL32.dll
 0000:fff92000       .debug$S                   0000000180000000     kernel32:KERNEL32.dll
 0000:fff92000       .debug$S                   0000000180000000     kernel32:KERNEL32.dll
 0000:fff92000       .debug$S                   0000000180000000     kernel32:KERNEL32.dll
 0000:fff92000       .debug$S                   0000000180000000     kernel32:KERNEL32.dll
 0000:fff92000       .debug$S                   0000000180000000     kernel32:KERNEL32.dll
 0000:fff92000       .debug$S                   0000000180000000     kernel32:KERNEL32.dll
 0000:fff92000       .debug$S                   0000000180000000     kernel32:KERNEL32.dll
 0000:fff92000       .debug$S                   0000000180000000     kernel32:KERNEL32.dll
 0000:fff92000       .debug$S                   0000000180000000     kernel32:KERNEL32.dll
 0000:fff92000       .debug$S                   0000000180000000     kernel32:KERNEL32.dll
 0000:fff92000       .debug$S                   0000000180000000     kernel32:KERNEL32.dll
 0000:fff92000       .debug$S                   0000000180000000     kernel32:KERNEL32.dll
 0000:fff92000       .debug$S                   0000000180000000     kernel32:KERNEL32.dll
 0000:fff92000       .debug$S                   0000000180000000     kernel32:KERNEL32.dll
 0000:fff92000       .debug$S                   0000000180000000     kernel32:KERNEL32.dll
 0000:fff92000       .debug$S                   0000000180000000     kernel32:KERNEL32.dll
 0000:fff92000       .debug$S                   0000000180000000     kernel32:KERNEL32.dll
 0000:fff92000       .debug$S                   0000000180000000     kernel32:KERNEL32.dll
 0000:fff92000       .debug$S                   0000000180000000     kernel32:KERNEL32.dll
 0000:fff92000       .debug$S                   0000000180000000     kernel32:KERNEL32.dll
 0000:fff92000       .debug$S                   0000000180000000     kernel32:KERNEL32.dll
 0000:fff92000       .debug$S                   0000000180000000     kernel32:KERNEL32.dll
 0000:fff92000       .debug$S                   0000000180000000     kernel32:KERNEL32.dll
 0000:fff92000       .debug$S                   0000000180000000     kernel32:KERNEL32.dll
 0000:fff92000       .debug$S                   0000000180000000     kernel32:KERNEL32.dll
 0000:fff92000       .debug$S                   0000000180000000     kernel32:KERNEL32.dll
 0000:fff92000       .debug$S                   0000000180000000     kernel32:KERNEL32.dll
 0000:fff92000       .debug$S                   0000000180000000     kernel32:KERNEL32.dll
 0000:fff92000       .debug$S                   0000000180000000     kernel32:KERNEL32.dll
 0000:fff92000       .debug$S                   0000000180000000     kernel32:KERNEL32.dll
 0000:fff92000       .debug$S                   0000000180000000     kernel32:KERNEL32.dll
 0000:fff92000       .debug$S                   0000000180000000     kernel32:KERNEL32.dll
 0000:fff92000       .debug$S                   0000000180000000     kernel32:KERNEL32.dll
 0000:fff92000       .debug$S                   0000000180000000     kernel32:KERNEL32.dll
 0000:fff92000       .debug$S                   0000000180000000     kernel32:KERNEL32.dll
 0000:fff92000       .debug$S                   0000000180000000     kernel32:KERNEL32.dll
 0000:fff92000       .debug$S                   0000000180000000     kernel32:KERNEL32.dll
 0000:fff92000       .debug$S                   0000000180000000     kernel32:KERNEL32.dll
 0000:fff92000       .debug$S                   0000000180000000     kernel32:KERNEL32.dll
 0000:fff92000       .debug$S                   0000000180000000     kernel32:KERNEL32.dll
 0000:fff92000       .debug$S                   0000000180000000     kernel32:KERNEL32.dll
 0000:fff92000       .debug$S                   0000000180000000     kernel32:KERNEL32.dll
 0000:fff92000       .debug$S                   0000000180000000     kernel32:KERNEL32.dll
 0000:fff92000       .debug$S                   0000000180000000     kernel32:KERNEL32.dll
 0000:fff92000       .debug$S                   0000000180000000     kernel32:KERNEL32.dll
 0000:fff92000       .debug$S                   0000000180000000     kernel32:KERNEL32.dll
 0000:fff92000       .debug$S                   0000000180000000     kernel32:KERNEL32.dll
 0000:fff92000       .debug$S                   0000000180000000     kernel32:KERNEL32.dll
 0000:fff92000       .debug$S                   0000000180000000     kernel32:KERNEL32.dll
 0000:fff92000       .debug$S                   0000000180000000     kernel32:KERNEL32.dll
 0000:fff92000       .debug$S                   0000000180000000     kernel32:KERNEL32.dll
 0000:fff92000       .debug$S                   0000000180000000     kernel32:KERNEL32.dll
 0000:fff92000       .debug$S                   0000000180000000     kernel32:KERNEL32.dll
 0000:fff92000       .debug$S                   0000000180000000     kernel32:KERNEL32.dll
 0000:fff92000       .debug$S                   0000000180000000     advapi32:ADVAPI32.dll
 0000:fff92000       .debug$S                   0000000180000000     node:node.exe
 0000:fff92000       .debug$S                   0000000180000000     node:node.exe
 0000:fff92000       .debug$S                   0000000180000000     node:node.exe
 0000:fff92000       .debug$S                   0000000180000000     node:node.exe
 0000:fff92000       .debug$S                   0000000180000000     node:node.exe
 0000:fff92000       .debug$S                   0000000180000000     node:node.exe
 0000:fff92000       .debug$S                   0000000180000000     node:node.exe
 0000:fff92000       .debug$S                   0000000180000000     node:node.exe
 0000:fff92000       .debug$S                   0000000180000000     node:node.exe
 0000:fff92000       .debug$S                   0000000180000000     node:node.exe
 0000:fff92000       .debug$S                   0000000180000000     node:node.exe
 0000:fff92000       .debug$S                   0000000180000000     node:node.exe
 0000:fff92000       .debug$S                   0000000180000000     node:node.exe
 0000:fff92000       .debug$S                   0000000180000000     node:node.exe
 0000:fff92000       .debug$S                   0000000180000000     node:node.exe
 0000:fff92000       .debug$S                   0000000180000000     node:node.exe
 0000:fff92000       .debug$S                   0000000180000000     node:node.exe
 0000:fff92000       .debug$S                   0000000180000000     node:node.exe
 0000:fff92000       .debug$S                   0000000180000000     node:node.exe
 0000:fff92000       .debug$S                   0000000180000000     node:node.exe
 0000:fff92000       .debug$S                   0000000180000000     node:node.exe
 0000:fff92000       .debug$S                   0000000180000000     node:node.exe
 0000:fff92000       .debug$S                   0000000180000000     node:node.exe
 0000:fff92000       .debug$S                   0000000180000000     node:node.exe
 0000:fff92000       .debug$S                   0000000180000000     node:node.exe
 0000:fff92000       .debug$S                   0000000180000000     node:node.exe
 0000:fff92000       .debug$S                   0000000180000000     node:node.exe
 0000:fff92000       .debug$S                   0000000180000000     node:node.exe
 0000:fff92000       .debug$S                   0000000180000000     node:node.exe
 0000:fff92000       .debug$S                   0000000180000000     node:node.exe
 0000:fff92000       .debug$S                   0000000180000000     node:node.exe
 0000:fff92000       .debug$S                   0000000180000000     node:node.exe
 0000:fff92000       .debug$S                   0000000180000000     node:node.exe
 0000:fff92000       .debug$S                   0000000180000000     node:node.exe
 0000:fff92000       .debug$S                   0000000180000000     node:node.exe
 0000:fff92000       .debug$S                   0000000180000000     node:node.exe
 0000:fff92000       .debug$S                   0000000180000000     node:node.exe
 0000:fff92000       .debug$S                   0000000180000000     node:node.exe
 0000:fff92000       .debug$S                   0000000180000000     node:node.exe
 0000:fff92000       .debug$S                   0000000180000000     node:node.exe
 0000:fff92000       .debug$S                   0000000180000000     node:node.exe
 0000:fff92000       .debug$S                   0000000180000000     node:node.exe
 0000:fff92000       .debug$S                   0000000180000000     node:node.exe
 0000:fff92000       .debug$S                   0000000180000000     node:node.exe
 0000:fff92000       .debug$S                   0000000180000000     node:node.exe
 0000:fff92000       .debug$S                   0000000180000000     node:node.exe
 0000:fff92000       .debug$S                   0000000180000000     node:node.exe
 0000:fff92000       .debug$S                   0000000180000000     node:node.exe
 0000:fff92000       .debug$S                   0000000180000000     node:node.exe
 0000:fff92000       .debug$S                   0000000180000000     node:node.exe
 0000:fff92000       .debug$S                   0000000180000000     node:node.exe
 0000:fff92000       .debug$S                   0000000180000000     node:node.exe
 0000:fff92000       .debug$S                   0000000180000000     node:node.exe
 0000:fff92000       .debug$S                   0000000180000000     node:node.exe
 0000:fff92000       .debug$S                   0000000180000000     node:node.exe
 0000:fff92000       .debug$S                   0000000180000000     node:node.exe
 0000:fff92000       .debug$S                   0000000180000000     node:node.exe
 0000:fff92000       .debug$S                   0000000180000000     node:node.exe
 0000:fff92000       .debug$S                   0000000180000000     node:node.exe
 0000:fff92000       .debug$S                   0000000180000000     node:node.exe
 0000:fff92000       .debug$S                   0000000180000000     node:node.exe
 0000:fff92000       .debug$S                   0000000180000000     node:node.exe
 0000:fff92000       .debug$S                   0000000180000000     node:node.exe
 0000:fff92000       .debug$S                   0000000180000000     node:node.exe
 0000:fff92000       .debug$S                   0000000180000000     node:node.exe
 0000:fff92000       .debug$S                   0000000180000000     node:node.exe
 0000:fff92000       .debug$S                   0000000180000000     node:node.exe
 0000:fff92000       .debug$S                   0000000180000000     node:node.exe
 0000:fff92000       .debug$S                   0000000180000000     node:node.exe
 0000:fff92000       .debug$S                   0000000180000000     node:node.exe
 0000:fff92000       .debug$S                   0000000180000000     node:node.exe
 0000:fff92000       .debug$S                   0000000180000000     node:node.exe
 0000:fff92000       .debug$S                   0000000180000000     node:node.exe
 0000:fff92000       .debug$S                   0000000180000000     node:node.exe
 0000:fff92000       .debug$S                   0000000180000000     node:node.exe
 0000:fff92000       .debug$S                   0000000180000000     node:node.exe
 0000:fff92000       .debug$S                   0000000180000000     node:node.exe
 0000:fff92000       .debug$S                   0000000180000000     node:node.exe
 0000:fff92000       .debug$S                   0000000180000000     node:node.exe
 0000:fff92000       .debug$S                   0000000180000000     node:node.exe
 0000:fff92000       .debug$S                   0000000180000000     node:node.exe
 0000:fff92000       .debug$S                   0000000180000000     node:node.exe
 0000:fff92000       .debug$S                   0000000180000000     node:node.exe
 0000:fff92000       .debug$S                   0000000180000000     node:node.exe
 0000:fff92000       .debug$S                   0000000180000000     node:node.exe
 0000:fff92000       .debug$S                   0000000180000000     node:node.exe
 0000:fff92000       .debug$S                   0000000180000000     node:node.exe
 0000:fff92000       .debug$S                   0000000180000000     node:node.exe
 0000:fff92000       .debug$S                   0000000180000000     node:node.exe
 0000:fff92000       .debug$S                   0000000180000000     node:node.exe
 0000:fff92000       .debug$S                   0000000180000000     node:node.exe
 0000:fff92000       .debug$S                   0000000180000000     node:node.exe
 0000:fff92000       .debug$S                   0000000180000000     node:node.exe
 0000:fff92000       .debug$S                   0000000180000000     node:node.exe
 0000:fff92000       .debug$S                   0000000180000000     node:node.exe
 0000:fff92000       .debug$S                   0000000180000000     node:node.exe
 0000:fff92000       .debug$S                   0000000180000000     node:node.exe
 0000:fff92000       .debug$S                   0000000180000000     node:node.exe
 0000:fff92000       .debug$S                   0000000180000000     node:node.exe
 0000:fff92000       .debug$S                   0000000180000000     node:node.exe
 0000:fff92000       .debug$S                   0000000180000000     node:node.exe
 0000:fff92000       .debug$S                   0000000180000000     node:node.exe
 0000:fff92000       .debug$S                   0000000180000000     oci:OCI.dll
 0000:fff92000       .debug$S                   0000000180000000     oci:OCI.dll
 0000:fff92000       .debug$S                   0000000180000000     oci:OCI.dll
 0000:fff92000       .debug$S                   0000000180000000     oci:OCI.dll
 0000:fff92000       .debug$S                   0000000180000000     oci:OCI.dll
 0000:fff92000       .debug$S                   0000000180000000     oci:OCI.dll
 0000:fff92000       .debug$S                   0000000180000000     oci:OCI.dll
 0000:fff92000       .debug$S                   0000000180000000     oci:OCI.dll
 0000:fff92000       .debug$S                   0000000180000000     oci:OCI.dll
 0000:fff92000       .debug$S                   0000000180000000     oci:OCI.dll
 0000:fff92000       .debug$S                   0000000180000000     oci:OCI.dll
 0000:fff92000       .debug$S                   0000000180000000     oci:OCI.dll
 0000:fff92000       .debug$S                   0000000180000000     oci:OCI.dll
 0000:fff92000       .debug$S                   0000000180000000     oci:OCI.dll
 0000:fff92000       .debug$S                   0000000180000000     oci:OCI.dll
 0000:fff92000       .debug$S                   0000000180000000     oci:OCI.dll
 0000:fff92000       .debug$S                   0000000180000000     oci:OCI.dll
 0000:fff92000       .debug$S                   0000000180000000     oci:OCI.dll
 0000:fff92000       .debug$S                   0000000180000000     oci:OCI.dll
 0000:fff92000       .debug$S                   0000000180000000     oci:OCI.dll
 0000:fff92000       .debug$S                   0000000180000000     oci:OCI.dll
 0000:fff92000       .debug$S                   0000000180000000     oci:OCI.dll
 0000:fff92000       .debug$S                   0000000180000000     oci:OCI.dll
 0000:fff92000       .debug$S                   0000000180000000     oci:OCI.dll
 0000:fff92000       .debug$S                   0000000180000000     oci:OCI.dll
 0000:fff92000       .debug$S                   0000000180000000     oci:OCI.dll
 0000:fff92000       .debug$S                   0000000180000000     oci:OCI.dll
 0000:fff92000       .debug$S                   0000000180000000     oci:OCI.dll
 0000:fff92000       .debug$S                   0000000180000000     oci:OCI.dll
 0000:fff92000       .debug$S                   0000000180000000     oci:OCI.dll
 0000:fff92000       .debug$S                   0000000180000000     oci:OCI.dll
 0000:fff92000       .debug$S                   0000000180000000     oci:OCI.dll
 0000:fff92000       .debug$S                   0000000180000000     oci:OCI.dll
 0000:fff92000       .debug$S                   0000000180000000     oci:OCI.dll
 0000:fff92000       .debug$S                   0000000180000000     oci:OCI.dll
 0000:fff92000       .debug$S                   0000000180000000     oci:OCI.dll
 0000:fff92000       .debug$S                   0000000180000000     oci:OCI.dll
 0001:000001e0       ??__E?oracledbTemplate_s@Oracledb@@0V?$Persistent@VFunctionTemplate@v8@@V?$NonCopyablePersistentTraits@VFunctionTemplate@v8@@@2@@Nan@@A@@YAXXZ 00000001800011e0 f   njsOracle.obj
 0001:000001f0       ??__E?poolTemplate_s@Pool@@2V?$Persistent@VFunctionTemplate@v8@@V?$NonCopyablePersistentTraits@VFunctionTemplate@v8@@@2@@Nan@@A@@YAXXZ 00000001800011f0 f   njsPool.obj
 0001:00000200       ??__E?connectionTemplate_s@Connection@@2V?$Persistent@VFunctionTemplate@v8@@V?$NonCopyablePersistentTraits@VFunctionTemplate@v8@@@2@@Nan@@A@@YAXXZ 0000000180001200 f   njsConnection.obj
 0001:00000210       ??__E?resultSetTemplate_s@ResultSet@@2V?$Persistent@VFunctionTemplate@v8@@V?$NonCopyablePersistentTraits@VFunctionTemplate@v8@@@2@@Nan@@A@@YAXXZ 0000000180001210 f   njsResultSet.obj
 0001:00000220       ??__E?iLobTemplate_s@ILob@@2V?$Persistent@VFunctionTemplate@v8@@V?$NonCopyablePersistentTraits@VFunctionTemplate@v8@@@2@@Nan@@A@@YAXXZ 0000000180001220 f   njsIntLob.obj
 0001:0000022c       ??__Einitlocks@std@@YAXXZ  000000018000122c f   libcpmt:xlock.obj
 0001:0000024c       ??__E_Fac_tidy_reg@std@@YAXXZ 000000018000124c f   libcpmt:locale0.obj
 0001:00000258       ??__Eclassic_locale@std@@YAXXZ 0000000180001258 f   libcpmt:locale0.obj
 0001:00000264       ??__Einit_atexit@@YAXXZ    0000000180001264 f   libcpmt:iosptrs.obj
 0001:00000270       ??__Einitlocks@std@@YAXXZ  0000000180001270 f   libcpmt:iosptrs.obj
 0001:00000de0       ?FunctionCallbackWrapper@imp@Nan@@YAXAEBV?$FunctionCallbackInfo@VValue@v8@@@v8@@@Z 0000000180001de0 f   njsOracle.obj
 0001:00000e90       ?GetterCallbackWrapper@imp@Nan@@YAXV?$Local@VName@v8@@@v8@@AEBV?$PropertyCallbackInfo@VValue@v8@@@4@@Z 0000000180001e90 f   njsOracle.obj
 0001:00000f40       ?SetterCallbackWrapper@imp@Nan@@YAXV?$Local@VName@v8@@@v8@@V?$Local@VValue@v8@@@4@AEBV?$PropertyCallbackInfo@X@4@@Z 0000000180001f40 f   njsOracle.obj
 0001:00006e10       init                       0000000180007e10 f   njsOracle.obj
 0001:00006e50       _register_oracledb         0000000180007e50 f   njsOracle.obj
 0001:00007b00       no_op_initialize           0000000180008b00 f i libucrt:wsetlocale.obj
 0001:00012194       $LN534                     0000000180013194     njsConnection.obj
 0001:000127f8       $LN972                     00000001800137f8     njsConnection.obj
 0001:00014800       $LN1297                    0000000180015800     njsConnection.obj
 0001:00014824       $LN1296                    0000000180015824     njsConnection.obj
 0001:00014954       $LN9                       0000000180015954     njsConnection.obj
 0001:00014964       $LN8                       0000000180015964     njsConnection.obj
 0001:00014b98       $LN31                      0000000180015b98     njsConnection.obj
 0001:00014ba4       $LN30                      0000000180015ba4     njsConnection.obj
 0001:00015540       $LN1958                    0000000180016540     njsConnection.obj
 0001:0001555c       $LN1957                    000000018001655c     njsConnection.obj
 0001:00016c20       $LN467                     0000000180017c20     njsConnection.obj
 0001:00016c30       $LN466                     0000000180017c30     njsConnection.obj
 0001:000176f4       $LN174                     00000001800186f4     njsConnection.obj
 0001:00017710       $LN173                     0000000180018710     njsConnection.obj
 0001:00017be8       $LN253                     0000000180018be8     njsConnection.obj
 0001:00017c00       $LN252                     0000000180018c00     njsConnection.obj
 0001:00019d94       $LN2040                    000000018001ad94     njsConnection.obj
 0001:00019db8       $LN2039                    000000018001adb8     njsConnection.obj
 0001:00019ff4       $LN23                      000000018001aff4     njsConnection.obj
 0001:0001a00c       $LN22                      000000018001b00c     njsConnection.obj
 0001:00023750       ?ociCallCommon@@YAXHPEAXI@Z 0000000180024750 f   dpiUtils.obj
 0001:000238b0       load_exe_hook              00000001800248b0 f   win_delay_load_hook.obj
 0001:00024304       tidy_global                0000000180025304 f   libcpmt:locale0.obj
 0001:00024aa8       ?swfun@std@@YAXAEAVios_base@1@_J@Z 0000000180025aa8 f   libcpmt:iomanip.obj
 0001:00024e0c       ?initialize_pointers@@YAHXZ 0000000180025e0c f   libcpmt:winapisupp.obj
 0001:00025510       $$000000                   0000000180026510     LIBCMT:_amdsecgs_.obj
 0001:0002554c       ?__scrt_initialize_thread_safe_statics@@YAHXZ 000000018002654c f   LIBCMT:thread_safe_statics.obj
 0001:0002566c       ?__scrt_uninitialize_thread_safe_statics@@YAXXZ 000000018002666c f   LIBCMT:thread_safe_statics.obj
 0001:00025f90       capture_current_context    0000000180026f90 f   LIBCMT:gs_report.obj
 0001:00026000       capture_previous_context   0000000180027000 f   LIBCMT:gs_report.obj
 0001:00026074       ?dllmain_crt_dispatch@@YAHQEAUHINSTANCE__@@KQEAX@Z 0000000180027074 f   LIBCMT:dll_dllmain.obj
 0001:000260c4       ?dllmain_crt_process_attach@@YAHQEAUHINSTANCE__@@QEAX@Z 00000001800270c4 f   LIBCMT:dll_dllmain.obj
 0001:000261f0       ?dllmain_crt_process_detach@@YAH_N@Z 00000001800271f0 f   LIBCMT:dll_dllmain.obj
 0001:00026274       ?dllmain_dispatch@@YAHQEAUHINSTANCE__@@KQEAX@Z 0000000180027274 f   LIBCMT:dll_dllmain.obj
 0001:0002637c       ?dllmain_raw@@YAHQEAUHINSTANCE__@@KQEAX@Z 000000018002737c f   LIBCMT:dll_dllmain.obj
 0001:00026530       $$000000                   0000000180027530     LIBCMT:_chkstk_.obj
 0001:00026ae0       $$000000                   0000000180027ae0     libvcruntime:memcpy.obj
 0001:00026b87       MoveSmall                  0000000180027b87     libvcruntime:memcpy.obj
 0001:0002704c       ?CatchIt@@YAXPEAUEHExceptionRecord@@PEA_KPEAU_CONTEXT@@PEAU_xDISPATCHER_CONTEXT@@PEBU_s_FuncInfo@@PEBU_s_HandlerType@@PEBU_s_CatchableType@@PEBU_s_TryBlockMapEntry@@H1EE@Z 000000018002804c f   libvcruntime:frame.obj
 0001:00027110       ?ExFilterRethrow@@YAHPEAU_EXCEPTION_POINTERS@@PEAUEHExceptionRecord@@PEAH@Z 0000000180028110 f   libvcruntime:frame.obj
 0001:00027198       ?FindHandler@@YAXPEAUEHExceptionRecord@@PEA_KPEAU_CONTEXT@@PEAU_xDISPATCHER_CONTEXT@@PEBU_s_FuncInfo@@EH1@Z 0000000180028198 f   libvcruntime:frame.obj
 0001:00027648       ?FindHandlerForForeignException@@YAXPEAUEHExceptionRecord@@PEA_KPEAU_CONTEXT@@PEAU_xDISPATCHER_CONTEXT@@PEBU_s_FuncInfo@@HH1@Z 0000000180028648 f   libvcruntime:frame.obj
 0001:000278a0       ?IsInExceptionSpec@@YAEPEAUEHExceptionRecord@@PEBU_s_ESTypeList@@@Z 00000001800288a0 f   libvcruntime:frame.obj
 0001:00028ba0       $$000000                   0000000180029ba0     libvcruntime:memset.obj
 0001:00028c8c       MsetTab                    0000000180029c8c     libvcruntime:memset.obj
 0001:00028d50       $$000000                   0000000180029d50     libvcruntime:memcmp.obj
 0001:00028e28       ?try_get_function@@YAPEAXW4function_id@?A0x61ce2399@@QEBDQEBW4module_id@2@2@Z 0000000180029e28 f   libvcruntime:winapi_downlevel.obj
 0001:000296c4       _TlgDefineProvider_annotation__Tlg_Microsoft_CRTProviderProv 000000018002a6c4 f   libvcruntime:telemetry.obj
 0001:00029c50       $$000000                   000000018002ac50     libvcruntime:handlers.obj
 0001:00029ca0       $$000000                   000000018002aca0     libvcruntime:_jmpuwind_.obj
 0001:0002a178       ??$common_vsprintf@Vformat_validation_base@__crt_stdio_output@@D@@YAH_KQEAD0QEBDQEAU__crt_locale_pointers@@1@Z 000000018002b178 f   libucrt:output.obj
 0001:0002a860       ??R<lambda_dd75445284c072d0bd3768540cc698fa>@@QEBAHXZ 000000018002b860 f   libucrt:output.obj
 0001:0002d810       ??$common_assert_to_message_box@_W@@YAXQEB_W0IQEAX@Z 000000018002e810 f   libucrt:assert.obj
 0001:0002d8d4       ??$common_assert_to_message_box_build_string@_W@@YAXQEA_W_KQEB_W2IQEAX@Z 000000018002e8d4 f   libucrt:assert.obj
 0001:0002e0a8       ??$common_assert_to_stderr@_W@@YAXQEB_W0I@Z 000000018002f0a8 f   libucrt:assert.obj
 0001:0002e218       ?get_assert_format@@YAPEB_W_W@Z 000000018002f218 f   libucrt:assert.obj
 0001:0002e554       call_wsetlocale            000000018002f554 f   libucrt:setlocale.obj
 0001:0002f1d0       ?x_ismbbtype_l@@YAHPEAU__crt_locale_pointers@@IHH@Z 00000001800301d0 f   libucrt:ismbbyte.obj
 0001:0002f398       ?internal_isupper_l@@YA_NHQEAU__crt_locale_pointers@@@Z 0000000180030398 f   libucrt:tolower_toupper.obj
 0001:0002fb28       ?atexit_exception_filter@@YAHK@Z 0000000180030b28 f   libucrt:exit.obj
 0001:0002fb34       ?common_exit@@YAXHW4_crt_exit_cleanup_mode@@W4_crt_exit_return_mode@@@Z 0000000180030b34 f   libucrt:exit.obj
 0001:0002fca0       ?exit_or_terminate_process@@YAXI@Z 0000000180030ca0 f   libucrt:exit.obj
 0001:0002fcec       ?try_cor_exit_process@@YAXI@Z 0000000180030cec f   libucrt:exit.obj
 0001:0002fd84       ??$common_initialize_environment_nolock@D@@YAHXZ 0000000180030d84 f   libucrt:environment_initialization.obj
 0001:0002fdf0       ??$create_environment@D@@YAQEAPEADQEAD@Z 0000000180030df0 f   libucrt:environment_initialization.obj
 0001:0002feec       ??$free_environment@_W@@YAXQEAPEA_W@Z 0000000180030eec f   libucrt:environment_initialization.obj
 0001:0002feec       ??$free_environment@D@@YAXQEAPEAD@Z 0000000180030eec f   libucrt:environment_initialization.obj
 0001:0002ff30       ??$uninitialize_environment_internal@D@@YAXAEAPEAPEAD@Z 0000000180030f30 f   libucrt:environment_initialization.obj
 0001:0002ff4c       ??$uninitialize_environment_internal@_W@@YAXAEAPEAPEA_W@Z 0000000180030f4c f   libucrt:environment_initialization.obj
 0001:00030184       ??R<lambda_4e60a939b0d047cfe11ddc22648dfba9>@@QEBAHXZ 0000000180031184 f   libucrt:onexit.obj
 0001:00030434       initialize_global_variables 0000000180031434 f   libucrt:initialization.obj
 0001:00030448       initialize_c               0000000180031448 f   libucrt:initialization.obj
 0001:0003046c       uninitialize_environment   000000018003146c f   libucrt:initialization.obj
 0001:0003047c       initialize_pointers        000000018003147c f   libucrt:initialization.obj
 0001:000304d0       uninitialize_vcruntime     00000001800314d0 f   libucrt:initialization.obj
 0001:000304d8       uninitialize_allocated_memory 00000001800314d8 f   libucrt:initialization.obj
 0001:000315ac       ?construct_ptd_array@@YAXQEAU__acrt_ptd@@@Z 00000001800325ac f   libucrt:per_thread_data.obj
 0001:0003167c       ?destroy_fls@@YAXPEAX@Z    000000018003267c f   libucrt:per_thread_data.obj
 0001:0003169c       ?destroy_ptd_array@@YAXQEAU__acrt_ptd@@@Z 000000018003269c f   libucrt:per_thread_data.obj
 0001:00031794       ?replace_current_thread_locale_nolock@@YAXQEAU__acrt_ptd@@QEAU__crt_locale_data@@@Z 0000000180032794 f   libucrt:per_thread_data.obj
 0001:00031e00       ?fp_format_a@@YAHQEBNPEAD_KQEAD2H_NIQEAU__crt_locale_pointers@@@Z 0000000180032e00 f   libucrt:cvt.obj
 0001:00032160       ?fp_format_e@@YAHQEBNQEAD_K12H_NIQEAU__crt_locale_pointers@@@Z 0000000180033160 f   libucrt:cvt.obj
 0001:00032230       ?fp_format_e_internal@@YAHQEAD_KH_NIQEAU_strflt@@2QEAU__crt_locale_pointers@@@Z 0000000180033230 f   libucrt:cvt.obj
 0001:0003240c       ?fp_format_f_internal@@YAHQEAD_KHQEAU_strflt@@_NQEAU__crt_locale_pointers@@@Z 000000018003340c f   libucrt:cvt.obj
 0001:00032554       ?fp_format_g@@YAHQEBNQEAD_K12H_NIQEAU__crt_locale_pointers@@@Z 0000000180033554 f   libucrt:cvt.obj
 0001:0003268c       ?fp_format_nan_or_infinity@@YAHW4__acrt_fp_class@@_NPEAD_K1@Z 000000018003368c f   libucrt:cvt.obj
 0001:00033004       ??R<lambda_2af78c5f5901b1372d98f9ab3177dfa6>@@QEBAXXZ 0000000180034004 f   libucrt:wsetlocale.obj
 0001:000333c8       _copytlocinfo_nolock       00000001800343c8 f   libucrt:wsetlocale.obj
 0001:00033988       _wsetlocale_get_all        0000000180034988 f   libucrt:wsetlocale.obj
 0001:00033b70       _wsetlocale_nolock         0000000180034b70 f   libucrt:wsetlocale.obj
 0001:00033df8       _wsetlocale_set_cat        0000000180034df8 f   libucrt:wsetlocale.obj
 0001:00034138       ?initialize_inherited_file_handles_nolock@@YAXXZ 0000000180035138 f   libucrt:ioinit.obj
 0001:00034224       ?initialize_stdio_handles_nolock@@YAXXZ 0000000180035224 f   libucrt:ioinit.obj
 0001:00034e08       ??$common_xtox@K_W@@YAHKQEA_W_KI_N@Z 0000000180035e08 f   libucrt:xtoa.obj
 0001:00034eb4       ??$common_xtox_s@K_W@@YAHKQEA_W_KI_N@Z 0000000180035eb4 f   libucrt:xtoa.obj
 0001:00035110       ??$message_box_wait_thread@_W@@YAKQEAX@Z 0000000180036110 f   libucrt:crtmbox.obj
 0001:00035324       common_flush_all           0000000180036324 f   libucrt:fflush.obj
 0001:0003548c       ??R<lambda_b721fa326cdb32351d23dfa67958c160>@@QEBAHXZ 000000018003648c f   libucrt:setvbuf.obj
 0001:0003561c       ?<helper_func_cdecl>@<lambda_e2bb8337c48846e80c921ea5ddadc92d>@@CAHPEA_W@Z 000000018003661c f   libucrt:winapi_thunks.obj
 0001:000356f8       ?try_get_function@@YAPEAXW4function_id@?A0x63058377@@QEBDQEBW4module_id@2@2@Z 00000001800366f8 f   libucrt:winapi_thunks.obj
 0001:000361fc       ?_mbstowcs_l_helper@@YA_KPEA_WPEBD_KPEAU__crt_locale_pointers@@@Z 00000001800371fc f   libucrt:mbstowcs.obj
 0001:00036528       ?_wcstombs_l_helper@@YA_KPEADPEB_W_KPEAU__crt_locale_pointers@@@Z 0000000180037528 f   libucrt:wcstombs.obj
 0001:00036a88       ?InternalGetLocaleInfoA@@YAHQEAU__crt_locale_pointers@@QEB_WKQEADH@Z 0000000180037a88 f   libucrt:getlocaleinfoa.obj
 0001:00036fa4       ?__acrt_LCMapStringA_stat@@YAHPEAU__crt_locale_pointers@@PEB_WKPEBDHPEADHHH@Z 0000000180037fa4 f   libucrt:lcmapstringa.obj
 0001:00037580       _call_matherr              0000000180038580 f   libucrt:libm_error.obj
 0001:000375e8       _exception_enabled         00000001800385e8 f   libucrt:libm_error.obj
 0001:00037820       ??R<lambda_ad1ced32f4ac17aa236e5ef05d6b3b7c>@@QEBAXXZ 0000000180038820 f   libucrt:mbctype.obj
 0001:00037a38       ?getSystemCP@@YAHH@Z       0000000180038a38 f   libucrt:mbctype.obj
 0001:00037ab8       ?setSBCS@@YAXPEAU__crt_multibyte_data@@@Z 0000000180038ab8 f   libucrt:mbctype.obj
 0001:00037b48       ?setSBUpLow@@YAXPEAU__crt_multibyte_data@@@Z 0000000180038b48 f   libucrt:mbctype.obj
 0001:00037d2c       ?setmbcp_internal@@YAHH_N@Z 0000000180038d2c f   libucrt:mbctype.obj
 0001:00038440       report_memory_leaks        0000000180039440 f   libucrt:initialization.obj
 0001:00038440       initialize_global_state_isolation 0000000180039440 f   libucrt:initialization.obj
 0001:00038440       initialize_environment     0000000180039440 f   libucrt:initialization.obj
 0001:00038440       uninitialize_global_state_isolation 0000000180039440 f   libucrt:initialization.obj
 0001:00038440       uninitialize_c             0000000180039440 f   libucrt:initialization.obj
 0001:0003a31c       memcpy_s                   000000018003b31c f   libucrt:cfout.obj
 0001:0003a3a4       ??$write_buffer_nolock@D@@YA_NDV__crt_stdio_stream@@@Z 000000018003b3a4 f   libucrt:_flsbuf.obj
 0001:0003a4a8       ??$write_buffer_nolock@_W@@YA_N_WV__crt_stdio_stream@@@Z 000000018003b4a8 f   libucrt:_flsbuf.obj
 0001:0003b26c       ?free_crt_array_internal@@YAXQEAPEBX_K@Z 000000018003c26c f   libucrt:inittime.obj
 0001:0003b2c4       ?initialize_lc_time@@YA_NQEAU__crt_lc_time_data@@QEAU__crt_locale_data@@@Z 000000018003c2c4 f   libucrt:inittime.obj
 0001:0003b934       GetLocaleNameFromDefault   000000018003c934 f   libucrt:get_qualified_locale.obj
 0001:0003b9dc       GetLocaleNameFromLangCountry 000000018003c9dc f   libucrt:get_qualified_locale.obj
 0001:0003baac       GetLocaleNameFromLanguage  000000018003caac f   libucrt:get_qualified_locale.obj
 0001:0003bb48       LangCountryEnumProcEx      000000018003cb48 f   libucrt:get_qualified_locale.obj
 0001:0003befc       LanguageEnumProcEx         000000018003cefc f   libucrt:get_qualified_locale.obj
 0001:0003bfe8       ProcessCodePage            000000018003cfe8 f   libucrt:get_qualified_locale.obj
 0001:0003c09c       TestDefaultCountry         000000018003d09c f   libucrt:get_qualified_locale.obj
 0001:0003c104       TranslateName              000000018003d104 f   libucrt:get_qualified_locale.obj
 0001:0003c3c0       CountryEnumProc            000000018003d3c0 f   libucrt:getqloc_downlevel.obj
 0001:0003c4ac       GetLcidFromLangCountry     000000018003d4ac f   libucrt:getqloc_downlevel.obj
 0001:0003c57c       GetLcidFromLanguage        000000018003d57c f   libucrt:getqloc_downlevel.obj
 0001:0003c614       LangCountryEnumProc        000000018003d614 f   libucrt:getqloc_downlevel.obj
 0001:0003c858       LanguageEnumProc           000000018003d858 f   libucrt:getqloc_downlevel.obj
 0001:0003c954       LcidFromHexString          000000018003d954 f   libucrt:getqloc_downlevel.obj
 0001:0003c9a4       ProcessCodePage            000000018003d9a4 f   libucrt:getqloc_downlevel.obj
 0001:0003ca54       TestDefaultLanguage        000000018003da54 f   libucrt:getqloc_downlevel.obj
 0001:0003cb00       TranslateName              000000018003db00 f   libucrt:getqloc_downlevel.obj
 0001:0003d140       $$000000                   000000018003e140     libucrt:fpsr.obj
 0001:0003d2c0       ?write_double_translated_ansi_nolock@@YA?AUwrite_result@?A0x9c548279@@HQEBDI@Z 000000018003e2c0 f   libucrt:write.obj
 0001:0003d4c8       ?write_text_ansi_nolock@@YA?AUwrite_result@?A0x9c548279@@HQEBDI@Z 000000018003e4c8 f   libucrt:write.obj
 0001:0003d5d0       ?write_text_utf16le_nolock@@YA?AUwrite_result@?A0x9c548279@@HQEBDI@Z 000000018003e5d0 f   libucrt:write.obj
 0001:0003d6ec       ?write_text_utf8_nolock@@YA?AUwrite_result@?A0x9c548279@@HQEBDI@Z 000000018003e6ec f   libucrt:write.obj
 0001:0003dc30       ?GetTableIndexFromLocaleName@@YAHPEB_W@Z 000000018003ec30 f   libucrt:lcidtoname_downlevel.obj
 0001:0003dfa8       ?initialize_multibyte@@YAHXZ 000000018003efa8 f   libucrt:multibyte_initializer.obj
 0001:0003e180       $$000000                   000000018003f180     libucrt:log10.obj
 0001:0003e72c       ??$common_lseek@_J@@YA_JH_JH@Z 000000018003f72c f   libucrt:lseek.obj
 0001:0003e81c       ??$common_lseek_nolock@_J@@YA_JH_JH@Z 000000018003f81c f   libucrt:lseek.obj
 0001:0003ee1c       common_control87           000000018003fe1c f   libucrt:ieee.obj
 0001:0003f150       _log_special_common        0000000180040150 f   libucrt:log_special.obj
 0001:0003fde0       $$000000                   0000000180040de0     LIBCMT:_guard_dispatch_.obj
 0001:0003fe00       ?dtor$0@?0??_Getcat@?$ctype@D@std@@SA_KPEAPEBVfacet@locale@2@PEBV42@@Z@4HA 0000000180040e00 f   njsOracle.obj
 0001:0003fe20       ?dtor$2@?0??_Getcat@?$ctype@D@std@@SA_KPEAPEBVfacet@locale@2@PEBV42@@Z@4HA 0000000180040e20 f   njsOracle.obj
 0001:0003fe2c       ?dtor$3@?0??_Getcat@?$ctype@D@std@@SA_KPEAPEBVfacet@locale@2@PEBV42@@Z@4HA 0000000180040e2c f   njsOracle.obj
 0001:0003fe3c       ?dtor$4@?0??_Getcat@?$ctype@D@std@@SA_KPEAPEBVfacet@locale@2@PEBV42@@Z@4HA 0000000180040e3c f   njsOracle.obj
 0001:0003fe4c       ?dtor$5@?0??_Getcat@?$ctype@D@std@@SA_KPEAPEBVfacet@locale@2@PEBV42@@Z@4HA 0000000180040e4c f   njsOracle.obj
 0001:0003fe5c       ?dtor$6@?0??_Getcat@?$ctype@D@std@@SA_KPEAPEBVfacet@locale@2@PEBV42@@Z@4HA 0000000180040e5c f   njsOracle.obj
 0001:0003fe6c       ?dtor$7@?0??_Getcat@?$ctype@D@std@@SA_KPEAPEBVfacet@locale@2@PEBV42@@Z@4HA 0000000180040e6c f   njsOracle.obj
 0001:0003fe7c       ?dtor$8@?0??_Getcat@?$ctype@D@std@@SA_KPEAPEBVfacet@locale@2@PEBV42@@Z@4HA 0000000180040e7c f   njsOracle.obj
 0001:0003fe8c       ?dtor$9@?0??_Getcat@?$ctype@D@std@@SA_KPEAPEBVfacet@locale@2@PEBV42@@Z@4HA 0000000180040e8c f   njsOracle.obj
 0001:0003fea0       ?dtor$0@?0??_Makestr@_System_error@std@@CA?AV?$basic_string@DU?$char_traits@D@std@@V?$allocator@D@2@@2@Verror_code@2@V32@@Z@4HA 0000000180040ea0 f   njsOracle.obj
 0001:0003feac       ?dtor$1@?0??_Makestr@_System_error@std@@CA?AV?$basic_string@DU?$char_traits@D@std@@V?$allocator@D@2@@2@Verror_code@2@V32@@Z@4HA 0000000180040eac f   njsOracle.obj
 0001:0003fec0       ?dtor$0@?0???0system_error@std@@QEAA@Verror_code@1@PEBD@Z@4HA 0000000180040ec0 f   njsOracle.obj
 0001:0003fed0       ?dtor$0@?0??clear@ios_base@std@@QEAAXH_N@Z@4HA 0000000180040ed0 f   njsOracle.obj
 0001:0003fedc       ?dtor$1@?0??clear@ios_base@std@@QEAAXH_N@Z@4HA 0000000180040edc f   njsOracle.obj
 0001:0003fee8       ?dtor$2@?0??clear@ios_base@std@@QEAAXH_N@Z@4HA 0000000180040ee8 f   njsOracle.obj
 0001:0003ff00       ?dtor$0@?0??_Init@ios_base@std@@IEAAXXZ@4HA 0000000180040f00 f   njsOracle.obj
 0001:0003ff00       ?dtor$0@?0???0?$basic_streambuf@DU?$char_traits@D@std@@@std@@IEAA@XZ@4HA 0000000180040f00 f   njsOracle.obj
 0001:0003ff20       ?dtor$0@?0??New@?$Factory@VFunctionTemplate@v8@@@imp@Nan@@SA?AV?$Local@VFunctionTemplate@v8@@@v8@@P6AXAEBV?$FunctionCallbackInfo@VValue@v8@@@3@@ZV?$Local@VValue@v8@@@5@V?$Local@VSignature@v8@@@5@@Z@4HA 0000000180040f20 f   njsOracle.obj
 0001:0003ff30       ?dtor$0@?0??ThrowError@Nan@@YAXPEBD@Z@4HA 0000000180040f30 f   njsOracle.obj
 0001:0003ff30       ?dtor$0@?0??GetValueRefCursor@Connection@@CA?AV?$Local@VValue@v8@@@v8@@PEAUeBaton@@PEAUBind@@PEAUExtBind@@@Z@4HA 0000000180040f30 f   njsConnection.obj
 0001:0003ff40       ?dtor$0@?0???_GStmtImpl@@UEAAPEAXI@Z@4HA 0000000180040f40 f   dpiStmtImpl.obj
 0001:0003ff40       ?dtor$0@?0???__Fclassic_locale@std@@YAXXZ@4HA 0000000180040f40 f   libcpmt:locale0.obj
 0001:0003ff40       ?dtor$0@?0???_GDateTimeArrayImpl@dpi@@UEAAPEAXI@Z@4HA 0000000180040f40 f   dpiDateTimeArrayImpl.obj
 0001:0003ff40       ?dtor$0@?0???1?$Persistent@VObject@v8@@V?$NonCopyablePersistentTraits@VObject@v8@@@2@@Nan@@QEAA@XZ@4HA 0000000180040f40 f   njsOracle.obj
 0001:0003ff40       ?dtor$0@?0???_G_Fac_node@std@@QEAAPEAXI@Z@4HA 0000000180040f40 f   libcpmt:locale0.obj
 0001:0003ff40       ?dtor$0@?0???_G_Locimp@locale@std@@MEAAPEAXI@Z@4HA 0000000180040f40 f   libcpmt:locale0.obj
 0001:0003ff40       ?dtor$0@?0???__Finit_atexit@@YAXXZ@4HA 0000000180040f40 f   libcpmt:iosptrs.obj
 0001:0003ff40       ?dtor$0@?0???1?$Persistent@VFunction@v8@@V?$NonCopyablePersistentTraits@VFunction@v8@@@2@@Nan@@QEAA@XZ@4HA 0000000180040f40 f   njsOracle.obj
 0001:0003ff50       ?dtor$0@?0??GetValue@Connection@@CA?AV?$Local@VValue@v8@@@v8@@PEAUeBaton@@_NII@Z@4HA 0000000180040f50 f   njsConnection.obj
 0001:0003ff50       ?dtor$0@?0??SetPrototypeMethod@Nan@@YAXV?$Local@VFunctionTemplate@v8@@@v8@@PEBDP6AXAEBV?$FunctionCallbackInfo@VValue@v8@@@1@@Z@Z@4HA 0000000180040f50 f   njsOracle.obj
 0001:0003ff60       ?dtor$0@?0??SetAccessor@Nan@@YAXV?$Local@VObjectTemplate@v8@@@v8@@V?$Local@VString@v8@@@3@P6AX1AEBV?$PropertyCallbackInfo@VValue@v8@@@1@@ZP6AX1V?$Local@VValue@v8@@@3@AEBV?$PropertyCallbackInfo@X@1@@Z4W4AccessControl@3@W4PropertyAttribute@3@V?$Local@VAccessorSignature@v8@@@3@@Z@4HA 0000000180040f60 f   njsOracle.obj
 0001:0003ff70       ?dtor$0@?0???__F?connectionTemplate_s@Connection@@2V?$Persistent@VFunctionTemplate@v8@@V?$NonCopyablePersistentTraits@VFunctionTemplate@v8@@@2@@Nan@@A@@YAXXZ@4HA 0000000180040f70 f   njsConnection.obj
 0001:0003ff70       ?dtor$1@?0???1rsBaton@@QEAA@XZ@4HA 0000000180040f70 f   njsResultSet.obj
 0001:0003ff70       ?dtor$0@?0???__F?oracledbTemplate_s@Oracledb@@0V?$Persistent@VFunctionTemplate@v8@@V?$NonCopyablePersistentTraits@VFunctionTemplate@v8@@@2@@Nan@@A@@YAXXZ@4HA 0000000180040f70 f   njsOracle.obj
 0001:0003ff70       ?dtor$0@?0???__F?poolTemplate_s@Pool@@2V?$Persistent@VFunctionTemplate@v8@@V?$NonCopyablePersistentTraits@VFunctionTemplate@v8@@@2@@Nan@@A@@YAXXZ@4HA 0000000180040f70 f   njsPool.obj
 0001:0003ff70       ?dtor$0@?0???1ObjectWrap@Nan@@UEAA@XZ@4HA 0000000180040f70 f   njsOracle.obj
 0001:0003ff70       ?dtor$0@?0???__F?resultSetTemplate_s@ResultSet@@2V?$Persistent@VFunctionTemplate@v8@@V?$NonCopyablePersistentTraits@VFunctionTemplate@v8@@@2@@Nan@@A@@YAXXZ@4HA 0000000180040f70 f   njsResultSet.obj
 0001:0003ff70       ?dtor$0@?0???__F?iLobTemplate_s@ILob@@2V?$Persistent@VFunctionTemplate@v8@@V?$NonCopyablePersistentTraits@VFunctionTemplate@v8@@@2@@Nan@@A@@YAXXZ@4HA 0000000180040f70 f   njsIntLob.obj
 0001:0003ff75       ?dtor$1@?0???1ObjectWrap@Nan@@UEAA@XZ@4HA 0000000180040f75 f   njsOracle.obj
 0001:0003ff75       ?dtor$2@?0???1rsBaton@@QEAA@XZ@4HA 0000000180040f75 f   njsResultSet.obj
 0001:0003ff75       ?dtor$1@?0???__F?oracledbTemplate_s@Oracledb@@0V?$Persistent@VFunctionTemplate@v8@@V?$NonCopyablePersistentTraits@VFunctionTemplate@v8@@@2@@Nan@@A@@YAXXZ@4HA 0000000180040f75 f   njsOracle.obj
 0001:0003ff75       ?dtor$1@?0???__F?poolTemplate_s@Pool@@2V?$Persistent@VFunctionTemplate@v8@@V?$NonCopyablePersistentTraits@VFunctionTemplate@v8@@@2@@Nan@@A@@YAXXZ@4HA 0000000180040f75 f   njsPool.obj
 0001:0003ff75       ?dtor$1@?0???__F?resultSetTemplate_s@ResultSet@@2V?$Persistent@VFunctionTemplate@v8@@V?$NonCopyablePersistentTraits@VFunctionTemplate@v8@@@2@@Nan@@A@@YAXXZ@4HA 0000000180040f75 f   njsResultSet.obj
 0001:0003ff75       ?dtor$1@?0???__F?iLobTemplate_s@ILob@@2V?$Persistent@VFunctionTemplate@v8@@V?$NonCopyablePersistentTraits@VFunctionTemplate@v8@@@2@@Nan@@A@@YAXXZ@4HA 0000000180040f75 f   njsIntLob.obj
 0001:0003ff75       ?dtor$1@?0???__F?connectionTemplate_s@Connection@@2V?$Persistent@VFunctionTemplate@v8@@V?$NonCopyablePersistentTraits@VFunctionTemplate@v8@@@2@@Nan@@A@@YAXXZ@4HA 0000000180040f75 f   njsConnection.obj
 0001:0003ff80       ?dtor$0@?0???0connectionBaton@@QEAA@V?$Local@VFunction@v8@@@v8@@V?$Local@VObject@v8@@@2@@Z@4HA 0000000180040f80 f   njsOracle.obj
 0001:0003ff93       ?dtor$1@?0???0connectionBaton@@QEAA@V?$Local@VFunction@v8@@@v8@@V?$Local@VObject@v8@@@2@@Z@4HA 0000000180040f93 f   njsOracle.obj
 0001:0003ffa6       ?dtor$2@?0???0connectionBaton@@QEAA@V?$Local@VFunction@v8@@@v8@@V?$Local@VObject@v8@@@2@@Z@4HA 0000000180040fa6 f   njsOracle.obj
 0001:0003ffb9       ?dtor$3@?0???0connectionBaton@@QEAA@V?$Local@VFunction@v8@@@v8@@V?$Local@VObject@v8@@@2@@Z@4HA 0000000180040fb9 f   njsOracle.obj
 0001:0003ffcc       ?dtor$4@?0???0connectionBaton@@QEAA@V?$Local@VFunction@v8@@@v8@@V?$Local@VObject@v8@@@2@@Z@4HA 0000000180040fcc f   njsOracle.obj
 0001:0003ffdf       ?dtor$5@?0???0connectionBaton@@QEAA@V?$Local@VFunction@v8@@@v8@@V?$Local@VObject@v8@@@2@@Z@4HA 0000000180040fdf f   njsOracle.obj
 0001:0003fff2       ?dtor$6@?0???0connectionBaton@@QEAA@V?$Local@VFunction@v8@@@v8@@V?$Local@VObject@v8@@@2@@Z@4HA 0000000180040ff2 f   njsOracle.obj
 0001:00040010       ?dtor$0@?0???1poolBaton@@QEAA@XZ@4HA 0000000180041010 f   njsPool.obj
 0001:00040010       ?dtor$0@?0???1connectionBaton@@QEAA@XZ@4HA 0000000180041010 f   njsOracle.obj
 0001:00040015       ?dtor$1@?0???1connectionBaton@@QEAA@XZ@4HA 0000000180041015 f   njsOracle.obj
 0001:00040015       ?dtor$1@?0???1poolBaton@@QEAA@XZ@4HA 0000000180041015 f   njsPool.obj
 0001:0004001a       ?dtor$2@?0???1connectionBaton@@QEAA@XZ@4HA 000000018004101a f   njsOracle.obj
 0001:0004001a       ?dtor$2@?0???1poolBaton@@QEAA@XZ@4HA 000000018004101a f   njsPool.obj
 0001:0004001f       ?dtor$3@?0???1connectionBaton@@QEAA@XZ@4HA 000000018004101f f   njsOracle.obj
 0001:0004001f       ?dtor$3@?0???1poolBaton@@QEAA@XZ@4HA 000000018004101f f   njsPool.obj
 0001:00040030       ?dtor$0@?0???0Oracledb@@AEAA@XZ@4HA 0000000180041030 f   njsOracle.obj
 0001:0004003c       ?dtor$1@?0???0Oracledb@@AEAA@XZ@4HA 000000018004103c f   njsOracle.obj
 0001:0004004c       ?dtor$2@?0???0Oracledb@@AEAA@XZ@4HA 000000018004104c f   njsOracle.obj
 0001:0004005c       ?dtor$3@?0???0Oracledb@@AEAA@XZ@4HA 000000018004105c f   njsOracle.obj
 0001:00040068       ?dtor$4@?0???0Oracledb@@AEAA@XZ@4HA 0000000180041068 f   njsOracle.obj
 0001:00040090       ?dtor$0@?0???1ILob@@EEAA@XZ@4HA 0000000180041090 f   njsIntLob.obj
 0001:00040090       ?dtor$0@?0???1Oracledb@@EEAA@XZ@4HA 0000000180041090 f   njsOracle.obj
 0001:00040090       ?dtor$0@?0???1Pool@@EEAA@XZ@4HA 0000000180041090 f   njsPool.obj
 0001:00040090       ?dtor$0@?0???1Connection@@EEAA@XZ@4HA 0000000180041090 f   njsConnection.obj
 0001:00040090       ?dtor$0@?0???1ResultSet@@UEAA@XZ@4HA 0000000180041090 f   njsResultSet.obj
 0001:00040095       ?dtor$1@?0???1Pool@@EEAA@XZ@4HA 0000000180041095 f   njsPool.obj
 0001:00040095       ?dtor$1@?0???1Connection@@EEAA@XZ@4HA 0000000180041095 f   njsConnection.obj
 0001:00040095       ?dtor$1@?0???1ILob@@EEAA@XZ@4HA 0000000180041095 f   njsIntLob.obj
 0001:00040095       ?dtor$1@?0???1Oracledb@@EEAA@XZ@4HA 0000000180041095 f   njsOracle.obj
 0001:00040095       ?dtor$1@?0???1ResultSet@@UEAA@XZ@4HA 0000000180041095 f   njsResultSet.obj
 0001:0004009a       ?dtor$2@?0???1Connection@@EEAA@XZ@4HA 000000018004109a f   njsConnection.obj
 0001:0004009a       ?dtor$2@?0???1ResultSet@@UEAA@XZ@4HA 000000018004109a f   njsResultSet.obj
 0001:0004009a       ?dtor$2@?0???1Oracledb@@EEAA@XZ@4HA 000000018004109a f   njsOracle.obj
 0001:0004009a       ?dtor$2@?0???1Pool@@EEAA@XZ@4HA 000000018004109a f   njsPool.obj
 0001:0004009a       ?dtor$2@?0???1ILob@@EEAA@XZ@4HA 000000018004109a f   njsIntLob.obj
 0001:0004009f       ?dtor$3@?0???1Oracledb@@EEAA@XZ@4HA 000000018004109f f   njsOracle.obj
 0001:0004009f       ?dtor$3@?0???1Connection@@EEAA@XZ@4HA 000000018004109f f   njsConnection.obj
 0001:0004009f       ?dtor$3@?0???1Pool@@EEAA@XZ@4HA 000000018004109f f   njsPool.obj
 0001:0004009f       ?dtor$3@?0???1ResultSet@@UEAA@XZ@4HA 000000018004109f f   njsResultSet.obj
 0001:0004009f       ?dtor$3@?0???1ILob@@EEAA@XZ@4HA 000000018004109f f   njsIntLob.obj
 0001:000400a4       ?dtor$4@?0???1Pool@@EEAA@XZ@4HA 00000001800410a4 f   njsPool.obj
 0001:000400a4       ?dtor$4@?0???1Oracledb@@EEAA@XZ@4HA 00000001800410a4 f   njsOracle.obj
 0001:000400a4       ?dtor$4@?0???1Connection@@EEAA@XZ@4HA 00000001800410a4 f   njsConnection.obj
 0001:000400a4       ?dtor$4@?0???1ResultSet@@UEAA@XZ@4HA 00000001800410a4 f   njsResultSet.obj
 0001:000400a4       ?dtor$4@?0???1ILob@@EEAA@XZ@4HA 00000001800410a4 f   njsIntLob.obj
 0001:000400b0       ?dtor$0@?0??driverName@Oracledb@@AEBA?BV?$basic_string@DU?$char_traits@D@std@@V?$allocator@D@2@@std@@XZ@4HA 00000001800410b0 f   njsOracle.obj
 0001:000400c0       ?dtor$0@?0??Init@Pool@@SAXV?$Local@VObject@v8@@@v8@@@Z@4HA 00000001800410c0 f   njsPool.obj
 0001:000400c0       ?dtor$0@?0??Init@ILob@@SAXV?$Local@VObject@v8@@@v8@@@Z@4HA 00000001800410c0 f   njsIntLob.obj
 0001:000400c0       ?dtor$0@?0??Init@Connection@@SAXV?$Local@VObject@v8@@@v8@@@Z@4HA 00000001800410c0 f   njsConnection.obj
 0001:000400c0       ?dtor$0@?0??Init@ResultSet@@SAXV?$Local@VObject@v8@@@v8@@@Z@4HA 00000001800410c0 f   njsResultSet.obj
 0001:000400c0       ?dtor$0@?0??Init@Oracledb@@SAXV?$Local@VObject@v8@@@v8@@@Z@4HA 00000001800410c0 f   njsOracle.obj
 0001:000400d0       ?dtor$0@?0??New@Oracledb@@CAXAEBV?$FunctionCallbackInfo@VValue@v8@@@Nan@@@Z@4HA 00000001800410d0 f   njsOracle.obj
 0001:000400f0       ?dtor$0@?0??GetPoolMin@Oracledb@@CAXV?$Local@VString@v8@@@v8@@AEBV?$PropertyCallbackInfo@VValue@v8@@@Nan@@@Z@4HA 00000001800410f0 f   njsOracle.obj
 0001:000400f0       ?dtor$0@?0??GetPoolIncrement@Pool@@CAXV?$Local@VString@v8@@@v8@@AEBV?$PropertyCallbackInfo@VValue@v8@@@Nan@@@Z@4HA 00000001800410f0 f   njsPool.obj
 0001:000400f0       ?dtor$0@?0??GetPoolMax@Pool@@CAXV?$Local@VString@v8@@@v8@@AEBV?$PropertyCallbackInfo@VValue@v8@@@Nan@@@Z@4HA 00000001800410f0 f   njsPool.obj
 0001:000400f0       ?dtor$0@?0??GetPoolMax@Oracledb@@CAXV?$Local@VString@v8@@@v8@@AEBV?$PropertyCallbackInfo@VValue@v8@@@Nan@@@Z@4HA 00000001800410f0 f   njsOracle.obj
 0001:000400f0       ?dtor$0@?0??GetPrefetchRows@Oracledb@@CAXV?$Local@VString@v8@@@v8@@AEBV?$PropertyCallbackInfo@VValue@v8@@@Nan@@@Z@4HA 00000001800410f0 f   njsOracle.obj
 0001:000400f0       ?dtor$0@?0??SetOracleServerVersion@Connection@@CAXV?$Local@VString@v8@@@v8@@V?$Local@VValue@v8@@@3@AEBV?$PropertyCallbackInfo@X@Nan@@@Z@4HA 00000001800410f0 f   njsConnection.obj
 0001:000400f0       ?dtor$0@?0??GetPoolMin@Pool@@CAXV?$Local@VString@v8@@@v8@@AEBV?$PropertyCallbackInfo@VValue@v8@@@Nan@@@Z@4HA 00000001800410f0 f   njsPool.obj
 0001:000400f0       ?dtor$0@?0??SetExtendedMetaData@Oracledb@@CAXV?$Local@VString@v8@@@v8@@V?$Local@VValue@v8@@@3@AEBV?$PropertyCallbackInfo@X@Nan@@@Z@4HA 00000001800410f0 f   njsOracle.obj
 0001:000400f0       ?dtor$0@?0??SetStmtCacheSize@Connection@@CAXV?$Local@VString@v8@@@v8@@V?$Local@VValue@v8@@@3@AEBV?$PropertyCallbackInfo@X@Nan@@@Z@4HA 00000001800410f0 f   njsConnection.obj
 0001:000400f0       ?dtor$0@?0??GetConnectionClass@Oracledb@@CAXV?$Local@VString@v8@@@v8@@AEBV?$PropertyCallbackInfo@VValue@v8@@@Nan@@@Z@4HA 00000001800410f0 f   njsOracle.obj
 0001:000400f0       ?dtor$0@?0??SetAutoCommit@Oracledb@@CAXV?$Local@VString@v8@@@v8@@V?$Local@VValue@v8@@@3@AEBV?$PropertyCallbackInfo@X@Nan@@@Z@4HA 00000001800410f0 f   njsOracle.obj
 0001:000400f0       ?dtor$0@?0??GetExtendedMetaData@Oracledb@@CAXV?$Local@VString@v8@@@v8@@AEBV?$PropertyCallbackInfo@VValue@v8@@@Nan@@@Z@4HA 00000001800410f0 f   njsOracle.obj
 0001:000400f0       ?dtor$0@?0??GetPoolTimeout@Pool@@CAXV?$Local@VString@v8@@@v8@@AEBV?$PropertyCallbackInfo@VValue@v8@@@Nan@@@Z@4HA 00000001800410f0 f   njsPool.obj
 0001:000400f0       ?dtor$0@?0??SetLength@ILob@@CAXV?$Local@VString@v8@@@v8@@V?$Local@VValue@v8@@@3@AEBV?$PropertyCallbackInfo@X@Nan@@@Z@4HA 00000001800410f0 f   njsIntLob.obj
 0001:000400f0       ?dtor$0@?0??SetChunkSize@ILob@@CAXV?$Local@VString@v8@@@v8@@V?$Local@VValue@v8@@@3@AEBV?$PropertyCallbackInfo@X@Nan@@@Z@4HA 00000001800410f0 f   njsIntLob.obj
 0001:000400f0       ?dtor$0@?0??SetType@ILob@@CAXV?$Local@VString@v8@@@v8@@V?$Local@VValue@v8@@@3@AEBV?$PropertyCallbackInfo@X@Nan@@@Z@4HA 00000001800410f0 f   njsIntLob.obj
 0001:000400f0       ?dtor$0@?0??SetExternalAuth@Oracledb@@CAXV?$Local@VString@v8@@@v8@@V?$Local@VValue@v8@@@3@AEBV?$PropertyCallbackInfo@X@Nan@@@Z@4HA 00000001800410f0 f   njsOracle.obj
 0001:000400f0       ?dtor$0@?0??GetStmtCacheSize@Pool@@CAXV?$Local@VString@v8@@@v8@@AEBV?$PropertyCallbackInfo@VValue@v8@@@Nan@@@Z@4HA 00000001800410f0 f   njsPool.obj
 0001:000400f0       ?dtor$0@?0??GetAutoCommit@Oracledb@@CAXV?$Local@VString@v8@@@v8@@AEBV?$PropertyCallbackInfo@VValue@v8@@@Nan@@@Z@4HA 00000001800410f0 f   njsOracle.obj
 0001:000400f0       ?dtor$0@?0??GetOutFormat@Oracledb@@CAXV?$Local@VString@v8@@@v8@@AEBV?$PropertyCallbackInfo@VValue@v8@@@Nan@@@Z@4HA 00000001800410f0 f   njsOracle.obj
 0001:000400f0       ?dtor$0@?0??GetPoolTimeout@Oracledb@@CAXV?$Local@VString@v8@@@v8@@AEBV?$PropertyCallbackInfo@VValue@v8@@@Nan@@@Z@4HA 00000001800410f0 f   njsOracle.obj
 0001:00040100       ?dtor$0@?0??SetOutFormat@Oracledb@@CAXV?$Local@VString@v8@@@v8@@V?$Local@VValue@v8@@@3@AEBV?$PropertyCallbackInfo@X@Nan@@@Z@4HA 0000000180041100 f   njsOracle.obj
 0001:00040100       ?dtor$0@?0??SetStmtCacheSize@Oracledb@@CAXV?$Local@VString@v8@@@v8@@V?$Local@VValue@v8@@@3@AEBV?$PropertyCallbackInfo@X@Nan@@@Z@4HA 0000000180041100 f   njsOracle.obj
 0001:00040100       ?dtor$0@?0??SetPrefetchRows@Oracledb@@CAXV?$Local@VString@v8@@@v8@@V?$Local@VValue@v8@@@3@AEBV?$PropertyCallbackInfo@X@Nan@@@Z@4HA 0000000180041100 f   njsOracle.obj
 0001:00040100       ?dtor$0@?0??SetPoolIncrement@Oracledb@@CAXV?$Local@VString@v8@@@v8@@V?$Local@VValue@v8@@@3@AEBV?$PropertyCallbackInfo@X@Nan@@@Z@4HA 0000000180041100 f   njsOracle.obj
 0001:00040100       ?dtor$0@?0??SetPoolMax@Oracledb@@CAXV?$Local@VString@v8@@@v8@@V?$Local@VValue@v8@@@3@AEBV?$PropertyCallbackInfo@X@Nan@@@Z@4HA 0000000180041100 f   njsOracle.obj
 0001:00040100       ?dtor$0@?0??SetPoolMin@Oracledb@@CAXV?$Local@VString@v8@@@v8@@V?$Local@VValue@v8@@@3@AEBV?$PropertyCallbackInfo@X@Nan@@@Z@4HA 0000000180041100 f   njsOracle.obj
 0001:00040100       ?dtor$0@?0??SetLobPrefetchSize@Oracledb@@CAXV?$Local@VString@v8@@@v8@@V?$Local@VValue@v8@@@3@AEBV?$PropertyCallbackInfo@X@Nan@@@Z@4HA 0000000180041100 f   njsOracle.obj
 0001:00040100       ?dtor$0@?0??SetPoolTimeout@Oracledb@@CAXV?$Local@VString@v8@@@v8@@V?$Local@VValue@v8@@@3@AEBV?$PropertyCallbackInfo@X@Nan@@@Z@4HA 0000000180041100 f   njsOracle.obj
 0001:0004010c       ?dtor$1@?0??SetPoolMax@Oracledb@@CAXV?$Local@VString@v8@@@v8@@V?$Local@VValue@v8@@@3@AEBV?$PropertyCallbackInfo@X@Nan@@@Z@4HA 000000018004110c f   njsOracle.obj
 0001:0004010c       ?dtor$1@?0??SetPoolMin@Oracledb@@CAXV?$Local@VString@v8@@@v8@@V?$Local@VValue@v8@@@3@AEBV?$PropertyCallbackInfo@X@Nan@@@Z@4HA 000000018004110c f   njsOracle.obj
 0001:0004010c       ?dtor$1@?0??SetPoolTimeout@Oracledb@@CAXV?$Local@VString@v8@@@v8@@V?$Local@VValue@v8@@@3@AEBV?$PropertyCallbackInfo@X@Nan@@@Z@4HA 000000018004110c f   njsOracle.obj
 0001:0004010c       ?dtor$1@?0??SetPrefetchRows@Oracledb@@CAXV?$Local@VString@v8@@@v8@@V?$Local@VValue@v8@@@3@AEBV?$PropertyCallbackInfo@X@Nan@@@Z@4HA 000000018004110c f   njsOracle.obj
 0001:0004010c       ?dtor$1@?0??SetPoolIncrement@Oracledb@@CAXV?$Local@VString@v8@@@v8@@V?$Local@VValue@v8@@@3@AEBV?$PropertyCallbackInfo@X@Nan@@@Z@4HA 000000018004110c f   njsOracle.obj
 0001:0004010c       ?dtor$1@?0??SetOutFormat@Oracledb@@CAXV?$Local@VString@v8@@@v8@@V?$Local@VValue@v8@@@3@AEBV?$PropertyCallbackInfo@X@Nan@@@Z@4HA 000000018004110c f   njsOracle.obj
 0001:0004010c       ?dtor$1@?0??SetLobPrefetchSize@Oracledb@@CAXV?$Local@VString@v8@@@v8@@V?$Local@VValue@v8@@@3@AEBV?$PropertyCallbackInfo@X@Nan@@@Z@4HA 000000018004110c f   njsOracle.obj
 0001:0004010c       ?dtor$1@?0??SetStmtCacheSize@Oracledb@@CAXV?$Local@VString@v8@@@v8@@V?$Local@VValue@v8@@@3@AEBV?$PropertyCallbackInfo@X@Nan@@@Z@4HA 000000018004110c f   njsOracle.obj
 0001:00040118       ?dtor$2@?0??SetLobPrefetchSize@Oracledb@@CAXV?$Local@VString@v8@@@v8@@V?$Local@VValue@v8@@@3@AEBV?$PropertyCallbackInfo@X@Nan@@@Z@4HA 0000000180041118 f   njsOracle.obj
 0001:00040118       ?dtor$2@?0??SetOutFormat@Oracledb@@CAXV?$Local@VString@v8@@@v8@@V?$Local@VValue@v8@@@3@AEBV?$PropertyCallbackInfo@X@Nan@@@Z@4HA 0000000180041118 f   njsOracle.obj
 0001:00040118       ?dtor$2@?0??SetPoolIncrement@Oracledb@@CAXV?$Local@VString@v8@@@v8@@V?$Local@VValue@v8@@@3@AEBV?$PropertyCallbackInfo@X@Nan@@@Z@4HA 0000000180041118 f   njsOracle.obj
 0001:00040118       ?dtor$2@?0??SetPrefetchRows@Oracledb@@CAXV?$Local@VString@v8@@@v8@@V?$Local@VValue@v8@@@3@AEBV?$PropertyCallbackInfo@X@Nan@@@Z@4HA 0000000180041118 f   njsOracle.obj
 0001:00040118       ?dtor$2@?0??SetPoolTimeout@Oracledb@@CAXV?$Local@VString@v8@@@v8@@V?$Local@VValue@v8@@@3@AEBV?$PropertyCallbackInfo@X@Nan@@@Z@4HA 0000000180041118 f   njsOracle.obj
 0001:00040118       ?dtor$2@?0??SetPoolMax@Oracledb@@CAXV?$Local@VString@v8@@@v8@@V?$Local@VValue@v8@@@3@AEBV?$PropertyCallbackInfo@X@Nan@@@Z@4HA 0000000180041118 f   njsOracle.obj
 0001:00040118       ?dtor$2@?0??SetStmtCacheSize@Oracledb@@CAXV?$Local@VString@v8@@@v8@@V?$Local@VValue@v8@@@3@AEBV?$PropertyCallbackInfo@X@Nan@@@Z@4HA 0000000180041118 f   njsOracle.obj
 0001:00040118       ?dtor$2@?0??SetPoolMin@Oracledb@@CAXV?$Local@VString@v8@@@v8@@V?$Local@VValue@v8@@@3@AEBV?$PropertyCallbackInfo@X@Nan@@@Z@4HA 0000000180041118 f   njsOracle.obj
 0001:00040130       ?dtor$0@?0??GetMaxRows@Oracledb@@CAXV?$Local@VString@v8@@@v8@@AEBV?$PropertyCallbackInfo@VValue@v8@@@Nan@@@Z@4HA 0000000180041130 f   njsOracle.obj
 0001:00040130       ?dtor$0@?0??GetStmtCacheSize@Oracledb@@CAXV?$Local@VString@v8@@@v8@@AEBV?$PropertyCallbackInfo@VValue@v8@@@Nan@@@Z@4HA 0000000180041130 f   njsOracle.obj
 0001:00040130       ?dtor$0@?0??GetPoolIncrement@Oracledb@@CAXV?$Local@VString@v8@@@v8@@AEBV?$PropertyCallbackInfo@VValue@v8@@@Nan@@@Z@4HA 0000000180041130 f   njsOracle.obj
 0001:00040130       ?dtor$0@?0??GetOracleClientVersion@Oracledb@@CAXV?$Local@VString@v8@@@v8@@AEBV?$PropertyCallbackInfo@VValue@v8@@@Nan@@@Z@4HA 0000000180041130 f   njsOracle.obj
 0001:00040130       ?dtor$0@?0??GetLobPrefetchSize@Oracledb@@CAXV?$Local@VString@v8@@@v8@@AEBV?$PropertyCallbackInfo@VValue@v8@@@Nan@@@Z@4HA 0000000180041130 f   njsOracle.obj
 0001:00040130       ?dtor$0@?0??DoFetch@Connection@@SAXPEAUeBaton@@@Z@4HA 0000000180041130 f   njsConnection.obj
 0001:00040140       ?dtor$0@?0??SetMaxRows@Oracledb@@CAXV?$Local@VString@v8@@@v8@@V?$Local@VValue@v8@@@3@AEBV?$PropertyCallbackInfo@X@Nan@@@Z@4HA 0000000180041140 f   njsOracle.obj
 0001:0004014c       ?dtor$1@?0??SetMaxRows@Oracledb@@CAXV?$Local@VString@v8@@@v8@@V?$Local@VValue@v8@@@3@AEBV?$PropertyCallbackInfo@X@Nan@@@Z@4HA 000000018004114c f   njsOracle.obj
 0001:00040158       ?dtor$2@?0??SetMaxRows@Oracledb@@CAXV?$Local@VString@v8@@@v8@@V?$Local@VValue@v8@@@3@AEBV?$PropertyCallbackInfo@X@Nan@@@Z@4HA 0000000180041158 f   njsOracle.obj
 0001:00040164       ?dtor$3@?0??SetMaxRows@Oracledb@@CAXV?$Local@VString@v8@@@v8@@V?$Local@VValue@v8@@@3@AEBV?$PropertyCallbackInfo@X@Nan@@@Z@4HA 0000000180041164 f   njsOracle.obj
 0001:00040170       ?dtor$0@?0??SetVersion@Oracledb@@CAXV?$Local@VString@v8@@@v8@@V?$Local@VValue@v8@@@3@AEBV?$PropertyCallbackInfo@X@Nan@@@Z@4HA 0000000180041170 f   njsOracle.obj
 0001:00040170       ?dtor$0@?0??SetOracleClientVersion@Oracledb@@CAXV?$Local@VString@v8@@@v8@@V?$Local@VValue@v8@@@3@AEBV?$PropertyCallbackInfo@X@Nan@@@Z@4HA 0000000180041170 f   njsOracle.obj
 0001:0004017c       ?dtor$1@?0??SetVersion@Oracledb@@CAXV?$Local@VString@v8@@@v8@@V?$Local@VValue@v8@@@3@AEBV?$PropertyCallbackInfo@X@Nan@@@Z@4HA 000000018004117c f   njsOracle.obj
 0001:0004017c       ?dtor$1@?0??SetOracleClientVersion@Oracledb@@CAXV?$Local@VString@v8@@@v8@@V?$Local@VValue@v8@@@3@AEBV?$PropertyCallbackInfo@X@Nan@@@Z@4HA 000000018004117c f   njsOracle.obj
 0001:00040190       ?dtor$0@?0??SetConnectionClass@Oracledb@@CAXV?$Local@VString@v8@@@v8@@V?$Local@VValue@v8@@@3@AEBV?$PropertyCallbackInfo@X@Nan@@@Z@4HA 0000000180041190 f   njsOracle.obj
 0001:0004019c       ?dtor$1@?0??SetConnectionClass@Oracledb@@CAXV?$Local@VString@v8@@@v8@@V?$Local@VValue@v8@@@3@AEBV?$PropertyCallbackInfo@X@Nan@@@Z@4HA 000000018004119c f   njsOracle.obj
 0001:000401aa       ?dtor$2@?0??SetConnectionClass@Oracledb@@CAXV?$Local@VString@v8@@@v8@@V?$Local@VValue@v8@@@3@AEBV?$PropertyCallbackInfo@X@Nan@@@Z@4HA 00000001800411aa f   njsOracle.obj
 0001:000401c0       ?dtor$0@?0??GetExternalAuth@Oracledb@@CAXV?$Local@VString@v8@@@v8@@AEBV?$PropertyCallbackInfo@VValue@v8@@@Nan@@@Z@4HA 00000001800411c0 f   njsOracle.obj
 0001:000401d0       ?dtor$0@?0??GetFetchAsString@Oracledb@@CAXV?$Local@VString@v8@@@v8@@AEBV?$PropertyCallbackInfo@VValue@v8@@@Nan@@@Z@4HA 00000001800411d0 f   njsOracle.obj
 0001:000401e0       ?dtor$0@?0??SetFetchAsString@Oracledb@@CAXV?$Local@VString@v8@@@v8@@V?$Local@VValue@v8@@@3@AEBV?$PropertyCallbackInfo@X@Nan@@@Z@4HA 00000001800411e0 f   njsOracle.obj
 0001:000401ec       ?dtor$1@?0??SetFetchAsString@Oracledb@@CAXV?$Local@VString@v8@@@v8@@V?$Local@VValue@v8@@@3@AEBV?$PropertyCallbackInfo@X@Nan@@@Z@4HA 00000001800411ec f   njsOracle.obj
 0001:000401f8       ?dtor$2@?0??SetFetchAsString@Oracledb@@CAXV?$Local@VString@v8@@@v8@@V?$Local@VValue@v8@@@3@AEBV?$PropertyCallbackInfo@X@Nan@@@Z@4HA 00000001800411f8 f   njsOracle.obj
 0001:00040204       ?dtor$3@?0??SetFetchAsString@Oracledb@@CAXV?$Local@VString@v8@@@v8@@V?$Local@VValue@v8@@@3@AEBV?$PropertyCallbackInfo@X@Nan@@@Z@4HA 0000000180041204 f   njsOracle.obj
 0001:00040210       ?dtor$4@?0??SetFetchAsString@Oracledb@@CAXV?$Local@VString@v8@@@v8@@V?$Local@VValue@v8@@@3@AEBV?$PropertyCallbackInfo@X@Nan@@@Z@4HA 0000000180041210 f   njsOracle.obj
 0001:00040220       ?dtor$0@?0??GetConnection@Oracledb@@CAXAEBV?$FunctionCallbackInfo@VValue@v8@@@Nan@@@Z@4HA 0000000180041220 f   njsOracle.obj
 0001:0004022c       ?dtor$1@?0??GetConnection@Oracledb@@CAXAEBV?$FunctionCallbackInfo@VValue@v8@@@Nan@@@Z@4HA 000000018004122c f   njsOracle.obj
 0001:00040238       ?dtor$2@?0??GetConnection@Oracledb@@CAXAEBV?$FunctionCallbackInfo@VValue@v8@@@Nan@@@Z@4HA 0000000180041238 f   njsOracle.obj
 0001:00040255       ?dtor$3@?0??GetConnection@Oracledb@@CAXAEBV?$FunctionCallbackInfo@VValue@v8@@@Nan@@@Z@4HA 0000000180041255 f   njsOracle.obj
 0001:00040261       ?dtor$4@?0??GetConnection@Oracledb@@CAXAEBV?$FunctionCallbackInfo@VValue@v8@@@Nan@@@Z@4HA 0000000180041261 f   njsOracle.obj
 0001:0004026d       ?dtor$5@?0??GetConnection@Oracledb@@CAXAEBV?$FunctionCallbackInfo@VValue@v8@@@Nan@@@Z@4HA 000000018004126d f   njsOracle.obj
 0001:00040279       ?dtor$6@?0??GetConnection@Oracledb@@CAXAEBV?$FunctionCallbackInfo@VValue@v8@@@Nan@@@Z@4HA 0000000180041279 f   njsOracle.obj
 0001:00040287       ?dtor$7@?0??GetConnection@Oracledb@@CAXAEBV?$FunctionCallbackInfo@VValue@v8@@@Nan@@@Z@4HA 0000000180041287 f   njsOracle.obj
 0001:00040293       ?dtor$8@?0??GetConnection@Oracledb@@CAXAEBV?$FunctionCallbackInfo@VValue@v8@@@Nan@@@Z@4HA 0000000180041293 f   njsOracle.obj
 0001:0004029f       ?dtor$9@?0??GetConnection@Oracledb@@CAXAEBV?$FunctionCallbackInfo@VValue@v8@@@Nan@@@Z@4HA 000000018004129f f   njsOracle.obj
 0001:000402ad       ?dtor$10@?0??GetConnection@Oracledb@@CAXAEBV?$FunctionCallbackInfo@VValue@v8@@@Nan@@@Z@4HA 00000001800412ad f   njsOracle.obj
 0001:000402b9       ?dtor$11@?0??GetConnection@Oracledb@@CAXAEBV?$FunctionCallbackInfo@VValue@v8@@@Nan@@@Z@4HA 00000001800412b9 f   njsOracle.obj
 0001:000402c5       ?dtor$12@?0??GetConnection@Oracledb@@CAXAEBV?$FunctionCallbackInfo@VValue@v8@@@Nan@@@Z@4HA 00000001800412c5 f   njsOracle.obj
 0001:000402d3       ?dtor$13@?0??GetConnection@Oracledb@@CAXAEBV?$FunctionCallbackInfo@VValue@v8@@@Nan@@@Z@4HA 00000001800412d3 f   njsOracle.obj
 0001:000402df       ?dtor$14@?0??GetConnection@Oracledb@@CAXAEBV?$FunctionCallbackInfo@VValue@v8@@@Nan@@@Z@4HA 00000001800412df f   njsOracle.obj
 0001:000402eb       ?dtor$15@?0??GetConnection@Oracledb@@CAXAEBV?$FunctionCallbackInfo@VValue@v8@@@Nan@@@Z@4HA 00000001800412eb f   njsOracle.obj
 0001:000402f7       ?dtor$16@?0??GetConnection@Oracledb@@CAXAEBV?$FunctionCallbackInfo@VValue@v8@@@Nan@@@Z@4HA 00000001800412f7 f   njsOracle.obj
 0001:00040303       ?dtor$17@?0??GetConnection@Oracledb@@CAXAEBV?$FunctionCallbackInfo@VValue@v8@@@Nan@@@Z@4HA 0000000180041303 f   njsOracle.obj
 0001:00040310       ?catch$0@?0??Async_GetConnection@Oracledb@@CAXPEAUuv_work_s@@@Z@4HA 0000000180041310 f   njsOracle.obj
 0001:0004031d       __catch$?Async_GetConnection@Oracledb@@CAXPEAUuv_work_s@@@Z$1 000000018004131d f   njsOracle.obj
 0001:000403c5       ?dtor$0@?0??Async_GetConnection@Oracledb@@CAXPEAUuv_work_s@@@Z@4HA 00000001800413c5 f   njsOracle.obj
 0001:000403e0       ?dtor$0@?0??Async_AfterGetConnection@Pool@@CAXPEAUuv_work_s@@@Z@4HA 00000001800413e0 f   njsPool.obj
 0001:000403e0       ?dtor$0@?0??Async_AfterGetRows@ResultSet@@CAXPEAUuv_work_s@@@Z@4HA 00000001800413e0 f   njsResultSet.obj
 0001:000403e0       ?dtor$0@?0??Async_AfterGetConnection@Oracledb@@CAXPEAUuv_work_s@@@Z@4HA 00000001800413e0 f   njsOracle.obj
 0001:000403e0       ?dtor$0@?0??Async_AfterRead@ILob@@CAXPEAUuv_work_s@@@Z@4HA 00000001800413e0 f   njsIntLob.obj
 0001:000403ec       ?dtor$1@?0??Async_AfterGetRows@ResultSet@@CAXPEAUuv_work_s@@@Z@4HA 00000001800413ec f   njsResultSet.obj
 0001:000403ec       ?dtor$1@?0??Async_AfterRead@ILob@@CAXPEAUuv_work_s@@@Z@4HA 00000001800413ec f   njsIntLob.obj
 0001:000403ec       ?dtor$1@?0??Async_AfterGetConnection@Pool@@CAXPEAUuv_work_s@@@Z@4HA 00000001800413ec f   njsPool.obj
 0001:000403ec       ?dtor$1@?0??Async_AfterGetConnection@Oracledb@@CAXPEAUuv_work_s@@@Z@4HA 00000001800413ec f   njsOracle.obj
 0001:00040400       ?dtor$0@?0??CreatePool@Oracledb@@CAXAEBV?$FunctionCallbackInfo@VValue@v8@@@Nan@@@Z@4HA 0000000180041400 f   njsOracle.obj
 0001:0004040c       ?dtor$1@?0??CreatePool@Oracledb@@CAXAEBV?$FunctionCallbackInfo@VValue@v8@@@Nan@@@Z@4HA 000000018004140c f   njsOracle.obj
 0001:00040418       ?dtor$2@?0??CreatePool@Oracledb@@CAXAEBV?$FunctionCallbackInfo@VValue@v8@@@Nan@@@Z@4HA 0000000180041418 f   njsOracle.obj
 0001:00040424       ?dtor$3@?0??CreatePool@Oracledb@@CAXAEBV?$FunctionCallbackInfo@VValue@v8@@@Nan@@@Z@4HA 0000000180041424 f   njsOracle.obj
 0001:00040441       ?dtor$4@?0??CreatePool@Oracledb@@CAXAEBV?$FunctionCallbackInfo@VValue@v8@@@Nan@@@Z@4HA 0000000180041441 f   njsOracle.obj
 0001:0004044d       ?dtor$5@?0??CreatePool@Oracledb@@CAXAEBV?$FunctionCallbackInfo@VValue@v8@@@Nan@@@Z@4HA 000000018004144d f   njsOracle.obj
 0001:00040459       ?dtor$6@?0??CreatePool@Oracledb@@CAXAEBV?$FunctionCallbackInfo@VValue@v8@@@Nan@@@Z@4HA 0000000180041459 f   njsOracle.obj
 0001:00040465       ?dtor$7@?0??CreatePool@Oracledb@@CAXAEBV?$FunctionCallbackInfo@VValue@v8@@@Nan@@@Z@4HA 0000000180041465 f   njsOracle.obj
 0001:00040473       ?dtor$8@?0??CreatePool@Oracledb@@CAXAEBV?$FunctionCallbackInfo@VValue@v8@@@Nan@@@Z@4HA 0000000180041473 f   njsOracle.obj
 0001:0004047f       ?dtor$9@?0??CreatePool@Oracledb@@CAXAEBV?$FunctionCallbackInfo@VValue@v8@@@Nan@@@Z@4HA 000000018004147f f   njsOracle.obj
 0001:0004048b       ?dtor$10@?0??CreatePool@Oracledb@@CAXAEBV?$FunctionCallbackInfo@VValue@v8@@@Nan@@@Z@4HA 000000018004148b f   njsOracle.obj
 0001:00040499       ?dtor$11@?0??CreatePool@Oracledb@@CAXAEBV?$FunctionCallbackInfo@VValue@v8@@@Nan@@@Z@4HA 0000000180041499 f   njsOracle.obj
 0001:000404a5       ?dtor$12@?0??CreatePool@Oracledb@@CAXAEBV?$FunctionCallbackInfo@VValue@v8@@@Nan@@@Z@4HA 00000001800414a5 f   njsOracle.obj
 0001:000404b1       ?dtor$13@?0??CreatePool@Oracledb@@CAXAEBV?$FunctionCallbackInfo@VValue@v8@@@Nan@@@Z@4HA 00000001800414b1 f   njsOracle.obj
 0001:000404bf       ?dtor$14@?0??CreatePool@Oracledb@@CAXAEBV?$FunctionCallbackInfo@VValue@v8@@@Nan@@@Z@4HA 00000001800414bf f   njsOracle.obj
 0001:000404cb       ?dtor$15@?0??CreatePool@Oracledb@@CAXAEBV?$FunctionCallbackInfo@VValue@v8@@@Nan@@@Z@4HA 00000001800414cb f   njsOracle.obj
 0001:000404d7       ?dtor$16@?0??CreatePool@Oracledb@@CAXAEBV?$FunctionCallbackInfo@VValue@v8@@@Nan@@@Z@4HA 00000001800414d7 f   njsOracle.obj
 0001:000404e3       ?dtor$17@?0??CreatePool@Oracledb@@CAXAEBV?$FunctionCallbackInfo@VValue@v8@@@Nan@@@Z@4HA 00000001800414e3 f   njsOracle.obj
 0001:000404ef       ?dtor$18@?0??CreatePool@Oracledb@@CAXAEBV?$FunctionCallbackInfo@VValue@v8@@@Nan@@@Z@4HA 00000001800414ef f   njsOracle.obj
 0001:000404fb       ?dtor$19@?0??CreatePool@Oracledb@@CAXAEBV?$FunctionCallbackInfo@VValue@v8@@@Nan@@@Z@4HA 00000001800414fb f   njsOracle.obj
 0001:00040507       ?dtor$20@?0??CreatePool@Oracledb@@CAXAEBV?$FunctionCallbackInfo@VValue@v8@@@Nan@@@Z@4HA 0000000180041507 f   njsOracle.obj
 0001:00040513       ?dtor$21@?0??CreatePool@Oracledb@@CAXAEBV?$FunctionCallbackInfo@VValue@v8@@@Nan@@@Z@4HA 0000000180041513 f   njsOracle.obj
 0001:0004051f       ?dtor$22@?0??CreatePool@Oracledb@@CAXAEBV?$FunctionCallbackInfo@VValue@v8@@@Nan@@@Z@4HA 000000018004151f f   njsOracle.obj
 0001:0004052b       ?dtor$23@?0??CreatePool@Oracledb@@CAXAEBV?$FunctionCallbackInfo@VValue@v8@@@Nan@@@Z@4HA 000000018004152b f   njsOracle.obj
 0001:00040537       ?dtor$24@?0??CreatePool@Oracledb@@CAXAEBV?$FunctionCallbackInfo@VValue@v8@@@Nan@@@Z@4HA 0000000180041537 f   njsOracle.obj
 0001:00040543       ?dtor$25@?0??CreatePool@Oracledb@@CAXAEBV?$FunctionCallbackInfo@VValue@v8@@@Nan@@@Z@4HA 0000000180041543 f   njsOracle.obj
 0001:0004054f       ?dtor$26@?0??CreatePool@Oracledb@@CAXAEBV?$FunctionCallbackInfo@VValue@v8@@@Nan@@@Z@4HA 000000018004154f f   njsOracle.obj
 0001:00040560       ?catch$0@?0??Async_CreatePool@Oracledb@@CAXPEAUuv_work_s@@@Z@4HA 0000000180041560 f   njsOracle.obj
 0001:0004056d       __catch$?Async_CreatePool@Oracledb@@CAXPEAUuv_work_s@@@Z$1 000000018004156d f   njsOracle.obj
 0001:00040618       ?dtor$0@?0??Async_CreatePool@Oracledb@@CAXPEAUuv_work_s@@@Z@4HA 0000000180041618 f   njsOracle.obj
 0001:00040630       ?dtor$0@?0??Async_AfterCreatePool@Oracledb@@CAXPEAUuv_work_s@@@Z@4HA 0000000180041630 f   njsOracle.obj
 0001:0004063c       ?dtor$1@?0??Async_AfterCreatePool@Oracledb@@CAXPEAUuv_work_s@@@Z@4HA 000000018004163c f   njsOracle.obj
 0001:00040650       ?dtor$0@?0???0?$basic_stringstream@DU?$char_traits@D@std@@V?$allocator@D@2@@std@@QEAA@H@Z@4HA 0000000180041650 f   njsOracle.obj
 0001:0004067d       ?dtor$1@?0???0?$basic_stringstream@DU?$char_traits@D@std@@V?$allocator@D@2@@std@@QEAA@H@Z@4HA 000000018004167d f   njsOracle.obj
 0001:0004068d       ?dtor$3@?0???0?$basic_stringstream@DU?$char_traits@D@std@@V?$allocator@D@2@@std@@QEAA@H@Z@4HA 000000018004168d f   njsOracle.obj
 0001:000406a0       ?dtor$2@?0???6?$basic_ostream@DU?$char_traits@D@std@@@std@@QEAAAEAV01@H@Z@4HA 00000001800416a0 f   njsOracle.obj
 0001:000406ac       ?dtor$0@?0???6?$basic_ostream@DU?$char_traits@D@std@@@std@@QEAAAEAV01@H@Z@4HA 00000001800416ac f   njsOracle.obj
 0001:000406b8       ?dtor$1@?0???6?$basic_ostream@DU?$char_traits@D@std@@@std@@QEAAAEAV01@H@Z@4HA 00000001800416b8 f   njsOracle.obj
 0001:000406d0       ?dtor$0@?0???0sentry@?$basic_ostream@DU?$char_traits@D@std@@@std@@QEAA@AEAV12@@Z@4HA 00000001800416d0 f   njsOracle.obj
 0001:000406e0       ?dtor$0@?0??do_put@?$num_put@DV?$ostreambuf_iterator@DU?$char_traits@D@std@@@std@@@std@@MEBA?AV?$ostreambuf_iterator@DU?$char_traits@D@std@@@2@V32@AEAVios_base@2@DO@Z@4HA 00000001800416e0 f   njsOracle.obj
 0001:000406e0       ?dtor$0@?0??do_put@?$num_put@DV?$ostreambuf_iterator@DU?$char_traits@D@std@@@std@@@std@@MEBA?AV?$ostreambuf_iterator@DU?$char_traits@D@std@@@2@V32@AEAVios_base@2@DN@Z@4HA 00000001800416e0 f   njsOracle.obj
 0001:000406f0       ?dtor$0@?0??do_put@?$num_put@DV?$ostreambuf_iterator@DU?$char_traits@D@std@@@std@@@std@@MEBA?AV?$ostreambuf_iterator@DU?$char_traits@D@std@@@2@V32@AEAVios_base@2@D_N@Z@4HA 00000001800416f0 f   njsOracle.obj
 0001:000406fc       ?dtor$1@?0??do_put@?$num_put@DV?$ostreambuf_iterator@DU?$char_traits@D@std@@@std@@@std@@MEBA?AV?$ostreambuf_iterator@DU?$char_traits@D@std@@@2@V32@AEAVios_base@2@D_N@Z@4HA 00000001800416fc f   njsOracle.obj
 0001:00040710       ?dtor$1@?0???0?$basic_iostream@DU?$char_traits@D@std@@@std@@QEAA@PEAV?$basic_streambuf@DU?$char_traits@D@std@@@1@@Z@4HA 0000000180041710 f   njsOracle.obj
 0001:00040720       ?dtor$0@?0??_Iput@?$num_put@DV?$ostreambuf_iterator@DU?$char_traits@D@std@@@std@@@std@@AEBA?AV?$ostreambuf_iterator@DU?$char_traits@D@std@@@2@V32@AEAVios_base@2@DPEAD_K@Z@4HA 0000000180041720 f   njsOracle.obj
 0001:0004072c       ?dtor$1@?0??_Iput@?$num_put@DV?$ostreambuf_iterator@DU?$char_traits@D@std@@@std@@@std@@AEBA?AV?$ostreambuf_iterator@DU?$char_traits@D@std@@@2@V32@AEAVios_base@2@DPEAD_K@Z@4HA 000000018004172c f   njsOracle.obj
 0001:00040738       ?dtor$2@?0??_Iput@?$num_put@DV?$ostreambuf_iterator@DU?$char_traits@D@std@@@std@@@std@@AEBA?AV?$ostreambuf_iterator@DU?$char_traits@D@std@@@2@V32@AEAVios_base@2@DPEAD_K@Z@4HA 0000000180041738 f   njsOracle.obj
 0001:00040744       ?dtor$3@?0??_Iput@?$num_put@DV?$ostreambuf_iterator@DU?$char_traits@D@std@@@std@@@std@@AEBA?AV?$ostreambuf_iterator@DU?$char_traits@D@std@@@2@V32@AEAVios_base@2@DPEAD_K@Z@4HA 0000000180041744 f   njsOracle.obj
 0001:00040750       ?dtor$0@?0??_Fput@?$num_put@DV?$ostreambuf_iterator@DU?$char_traits@D@std@@@std@@@std@@AEBA?AV?$ostreambuf_iterator@DU?$char_traits@D@std@@@2@V32@AEAVios_base@2@DPEBD_K@Z@4HA 0000000180041750 f   njsOracle.obj
 0001:0004075c       ?dtor$1@?0??_Fput@?$num_put@DV?$ostreambuf_iterator@DU?$char_traits@D@std@@@std@@@std@@AEBA?AV?$ostreambuf_iterator@DU?$char_traits@D@std@@@2@V32@AEAVios_base@2@DPEBD_K@Z@4HA 000000018004175c f   njsOracle.obj
 0001:00040768       ?dtor$2@?0??_Fput@?$num_put@DV?$ostreambuf_iterator@DU?$char_traits@D@std@@@std@@@std@@AEBA?AV?$ostreambuf_iterator@DU?$char_traits@D@std@@@2@V32@AEAVios_base@2@DPEBD_K@Z@4HA 0000000180041768 f   njsOracle.obj
 0001:00040774       ?dtor$3@?0??_Fput@?$num_put@DV?$ostreambuf_iterator@DU?$char_traits@D@std@@@std@@@std@@AEBA?AV?$ostreambuf_iterator@DU?$char_traits@D@std@@@2@V32@AEAVios_base@2@DPEBD_K@Z@4HA 0000000180041774 f   njsOracle.obj
 0001:00040780       ?dtor$0@?0??flush@?$basic_ostream@DU?$char_traits@D@std@@@std@@QEAAAEAV12@XZ@4HA 0000000180041780 f   njsOracle.obj
 0001:00040790       ?dtor$0@?0??init@?$basic_ios@DU?$char_traits@D@std@@@std@@IEAAXPEAV?$basic_streambuf@DU?$char_traits@D@std@@@2@_N@Z@4HA 0000000180041790 f   njsOracle.obj
 0001:000407a0       ?dtor$0@?0???$use_facet@V?$ctype@D@std@@@std@@YAAEBV?$ctype@D@0@AEBVlocale@0@@Z@4HA 00000001800417a0 f   njsOracle.obj
 0001:000407a0       ?dtor$0@?0???$use_facet@V?$num_put@DV?$ostreambuf_iterator@DU?$char_traits@D@std@@@std@@@std@@@std@@YAAEBV?$num_put@DV?$ostreambuf_iterator@DU?$char_traits@D@std@@@std@@@0@AEBVlocale@0@@Z@4HA 00000001800417a0 f   njsOracle.obj
 0001:000407a0       ?dtor$0@?0???$use_facet@V?$numpunct@D@std@@@std@@YAAEBV?$numpunct@D@0@AEBVlocale@0@@Z@4HA 00000001800417a0 f   njsOracle.obj
 0001:000407b0       ?dtor$0@?0???$New@VString@v8@@V?$basic_string@DU?$char_traits@D@std@@V?$allocator@D@2@@std@@@Nan@@YA?AV?$MaybeLocal@VString@v8@@@v8@@V?$basic_string@DU?$char_traits@D@std@@V?$allocator@D@2@@std@@@Z@4HA 00000001800417b0 f   njsOracle.obj
 0001:000407c0       ?dtor$1@?0???$?6DU?$char_traits@D@std@@V?$allocator@D@1@@std@@YAAEAV?$basic_ostream@DU?$char_traits@D@std@@@0@AEAV10@AEBV?$basic_string@DU?$char_traits@D@std@@V?$allocator@D@2@@0@@Z@4HA 00000001800417c0 f   dpiExceptionImpl.obj
 0001:000407c0       ?dtor$1@?0???$?6U?$char_traits@D@std@@@std@@YAAEAV?$basic_ostream@DU?$char_traits@D@std@@@0@AEAV10@PEBD@Z@4HA 00000001800417c0 f   njsOracle.obj
 0001:000407cc       ?dtor$0@?0???$?6DU?$char_traits@D@std@@V?$allocator@D@1@@std@@YAAEAV?$basic_ostream@DU?$char_traits@D@std@@@0@AEAV10@AEBV?$basic_string@DU?$char_traits@D@std@@V?$allocator@D@2@@0@@Z@4HA 00000001800417cc f   dpiExceptionImpl.obj
 0001:000407cc       ?dtor$0@?0???$?6U?$char_traits@D@std@@@std@@YAAEAV?$basic_ostream@DU?$char_traits@D@std@@@0@AEAV10@PEBD@Z@4HA 00000001800417cc f   njsOracle.obj
 0001:000407e0       ?dtor$0@?0??_Getcat@?$numpunct@D@std@@SA_KPEAPEBVfacet@locale@2@PEBV42@@Z@4HA 00000001800417e0 f   njsOracle.obj
 0001:00040800       ?dtor$2@?0??_Getcat@?$numpunct@D@std@@SA_KPEAPEBVfacet@locale@2@PEBV42@@Z@4HA 0000000180041800 f   njsOracle.obj
 0001:0004080c       ?dtor$3@?0??_Getcat@?$numpunct@D@std@@SA_KPEAPEBVfacet@locale@2@PEBV42@@Z@4HA 000000018004180c f   njsOracle.obj
 0001:0004081c       ?dtor$4@?0??_Getcat@?$numpunct@D@std@@SA_KPEAPEBVfacet@locale@2@PEBV42@@Z@4HA 000000018004181c f   njsOracle.obj
 0001:0004082c       ?dtor$5@?0??_Getcat@?$numpunct@D@std@@SA_KPEAPEBVfacet@locale@2@PEBV42@@Z@4HA 000000018004182c f   njsOracle.obj
 0001:0004083c       ?dtor$6@?0??_Getcat@?$numpunct@D@std@@SA_KPEAPEBVfacet@locale@2@PEBV42@@Z@4HA 000000018004183c f   njsOracle.obj
 0001:0004084c       ?dtor$7@?0??_Getcat@?$numpunct@D@std@@SA_KPEAPEBVfacet@locale@2@PEBV42@@Z@4HA 000000018004184c f   njsOracle.obj
 0001:0004085c       ?dtor$8@?0??_Getcat@?$numpunct@D@std@@SA_KPEAPEBVfacet@locale@2@PEBV42@@Z@4HA 000000018004185c f   njsOracle.obj
 0001:0004086c       ?dtor$9@?0??_Getcat@?$numpunct@D@std@@SA_KPEAPEBVfacet@locale@2@PEBV42@@Z@4HA 000000018004186c f   njsOracle.obj
 0001:00040878       ?dtor$1@?0??_Getcat@?$numpunct@D@std@@SA_KPEAPEBVfacet@locale@2@PEBV42@@Z@4HA 0000000180041878 f   njsOracle.obj
 0001:000408a4       ?dtor$11@?0??_Getcat@?$numpunct@D@std@@SA_KPEAPEBVfacet@locale@2@PEBV42@@Z@4HA 00000001800418a4 f   njsOracle.obj
 0001:000408b0       ?dtor$0@?0??_Getcat@?$num_put@DV?$ostreambuf_iterator@DU?$char_traits@D@std@@@std@@@std@@SA_KPEAPEBVfacet@locale@2@PEBV42@@Z@4HA 00000001800418b0 f   njsOracle.obj
 0001:000408d0       ?dtor$2@?0??_Getcat@?$num_put@DV?$ostreambuf_iterator@DU?$char_traits@D@std@@@std@@@std@@SA_KPEAPEBVfacet@locale@2@PEBV42@@Z@4HA 00000001800418d0 f   njsOracle.obj
 0001:000408dc       ?dtor$3@?0??_Getcat@?$num_put@DV?$ostreambuf_iterator@DU?$char_traits@D@std@@@std@@@std@@SA_KPEAPEBVfacet@locale@2@PEBV42@@Z@4HA 00000001800418dc f   njsOracle.obj
 0001:000408ec       ?dtor$4@?0??_Getcat@?$num_put@DV?$ostreambuf_iterator@DU?$char_traits@D@std@@@std@@@std@@SA_KPEAPEBVfacet@locale@2@PEBV42@@Z@4HA 00000001800418ec f   njsOracle.obj
 0001:000408fc       ?dtor$5@?0??_Getcat@?$num_put@DV?$ostreambuf_iterator@DU?$char_traits@D@std@@@std@@@std@@SA_KPEAPEBVfacet@locale@2@PEBV42@@Z@4HA 00000001800418fc f   njsOracle.obj
 0001:0004090c       ?dtor$6@?0??_Getcat@?$num_put@DV?$ostreambuf_iterator@DU?$char_traits@D@std@@@std@@@std@@SA_KPEAPEBVfacet@locale@2@PEBV42@@Z@4HA 000000018004190c f   njsOracle.obj
 0001:0004091c       ?dtor$7@?0??_Getcat@?$num_put@DV?$ostreambuf_iterator@DU?$char_traits@D@std@@@std@@@std@@SA_KPEAPEBVfacet@locale@2@PEBV42@@Z@4HA 000000018004191c f   njsOracle.obj
 0001:0004092c       ?dtor$8@?0??_Getcat@?$num_put@DV?$ostreambuf_iterator@DU?$char_traits@D@std@@@std@@@std@@SA_KPEAPEBVfacet@locale@2@PEBV42@@Z@4HA 000000018004192c f   njsOracle.obj
 0001:0004093c       ?dtor$9@?0??_Getcat@?$num_put@DV?$ostreambuf_iterator@DU?$char_traits@D@std@@@std@@@std@@SA_KPEAPEBVfacet@locale@2@PEBV42@@Z@4HA 000000018004193c f   njsOracle.obj
 0001:00040950       ?dtor$0@?0???0poolBaton@@QEAA@V?$Local@VFunction@v8@@@v8@@V?$Local@VObject@v8@@@2@@Z@4HA 0000000180041950 f   njsPool.obj
 0001:00040963       ?dtor$1@?0???0poolBaton@@QEAA@V?$Local@VFunction@v8@@@v8@@V?$Local@VObject@v8@@@2@@Z@4HA 0000000180041963 f   njsPool.obj
 0001:00040976       ?dtor$2@?0???0poolBaton@@QEAA@V?$Local@VFunction@v8@@@v8@@V?$Local@VObject@v8@@@2@@Z@4HA 0000000180041976 f   njsPool.obj
 0001:00040989       ?dtor$3@?0???0poolBaton@@QEAA@V?$Local@VFunction@v8@@@v8@@V?$Local@VObject@v8@@@2@@Z@4HA 0000000180041989 f   njsPool.obj
 0001:000409a0       ?dtor$0@?0??getPoolProperty@Pool@@CA?AV?$Local@VPrimitive@v8@@@v8@@PEAV1@I@Z@4HA 00000001800419a0 f   njsPool.obj
 0001:000409ac       ?dtor$1@?0??getPoolProperty@Pool@@CA?AV?$Local@VPrimitive@v8@@@v8@@PEAV1@I@Z@4HA 00000001800419ac f   njsPool.obj
 0001:000409c0       ?dtor$0@?0??GetConnectionsOpen@Pool@@CAXV?$Local@VString@v8@@@v8@@AEBV?$PropertyCallbackInfo@VValue@v8@@@Nan@@@Z@4HA 00000001800419c0 f   njsPool.obj
 0001:000409cc       ?dtor$1@?0??GetConnectionsOpen@Pool@@CAXV?$Local@VString@v8@@@v8@@AEBV?$PropertyCallbackInfo@VValue@v8@@@Nan@@@Z@4HA 00000001800419cc f   njsPool.obj
 0001:000409d8       ?catch$0@?0??GetConnectionsOpen@Pool@@CAXV?$Local@VString@v8@@@v8@@AEBV?$PropertyCallbackInfo@VValue@v8@@@Nan@@@Z@4HA 00000001800419d8 f   njsPool.obj
 0001:000409e5       __catch$?GetConnectionsOpen@Pool@@CAXV?$Local@VString@v8@@@v8@@AEBV?$PropertyCallbackInfo@VValue@v8@@@Nan@@@Z$0 00000001800419e5 f   njsPool.obj
 0001:00040a30       ?dtor$0@?0??GetConnectionsInUse@Pool@@CAXV?$Local@VString@v8@@@v8@@AEBV?$PropertyCallbackInfo@VValue@v8@@@Nan@@@Z@4HA 0000000180041a30 f   njsPool.obj
 0001:00040a3c       ?dtor$1@?0??GetConnectionsInUse@Pool@@CAXV?$Local@VString@v8@@@v8@@AEBV?$PropertyCallbackInfo@VValue@v8@@@Nan@@@Z@4HA 0000000180041a3c f   njsPool.obj
 0001:00040a48       ?catch$0@?0??GetConnectionsInUse@Pool@@CAXV?$Local@VString@v8@@@v8@@AEBV?$PropertyCallbackInfo@VValue@v8@@@Nan@@@Z@4HA 0000000180041a48 f   njsPool.obj
 0001:00040a55       __catch$?GetConnectionsInUse@Pool@@CAXV?$Local@VString@v8@@@v8@@AEBV?$PropertyCallbackInfo@VValue@v8@@@Nan@@@Z$0 0000000180041a55 f   njsPool.obj
 0001:00040aa0       ?dtor$0@?0??setPoolProperty@Pool@@CAXPEAV1@V?$basic_string@DU?$char_traits@D@std@@V?$allocator@D@2@@std@@@Z@4HA 0000000180041aa0 f   njsPool.obj
 0001:00040aac       ?dtor$1@?0??setPoolProperty@Pool@@CAXPEAV1@V?$basic_string@DU?$char_traits@D@std@@V?$allocator@D@2@@std@@@Z@4HA 0000000180041aac f   njsPool.obj
 0001:00040ab8       ?dtor$2@?0??setPoolProperty@Pool@@CAXPEAV1@V?$basic_string@DU?$char_traits@D@std@@V?$allocator@D@2@@std@@@Z@4HA 0000000180041ab8 f   njsPool.obj
 0001:00040ac4       ?dtor$3@?0??setPoolProperty@Pool@@CAXPEAV1@V?$basic_string@DU?$char_traits@D@std@@V?$allocator@D@2@@std@@@Z@4HA 0000000180041ac4 f   njsPool.obj
 0001:00040ad0       ?dtor$4@?0??setPoolProperty@Pool@@CAXPEAV1@V?$basic_string@DU?$char_traits@D@std@@V?$allocator@D@2@@std@@@Z@4HA 0000000180041ad0 f   njsPool.obj
 0001:00040adc       ?dtor$5@?0??setPoolProperty@Pool@@CAXPEAV1@V?$basic_string@DU?$char_traits@D@std@@V?$allocator@D@2@@std@@@Z@4HA 0000000180041adc f   njsPool.obj
 0001:00040af0       ?dtor$0@?0??SetConnectionsInUse@Pool@@CAXV?$Local@VString@v8@@@v8@@V?$Local@VValue@v8@@@3@AEBV?$PropertyCallbackInfo@X@Nan@@@Z@4HA 0000000180041af0 f   njsPool.obj
 0001:00040af0       ?dtor$0@?0??SetConnectionsOpen@Pool@@CAXV?$Local@VString@v8@@@v8@@V?$Local@VValue@v8@@@3@AEBV?$PropertyCallbackInfo@X@Nan@@@Z@4HA 0000000180041af0 f   njsPool.obj
 0001:00040af0       ?dtor$0@?0??SetPoolIncrement@Pool@@CAXV?$Local@VString@v8@@@v8@@V?$Local@VValue@v8@@@3@AEBV?$PropertyCallbackInfo@X@Nan@@@Z@4HA 0000000180041af0 f   njsPool.obj
 0001:00040af0       ?dtor$0@?0??SetPoolMax@Pool@@CAXV?$Local@VString@v8@@@v8@@V?$Local@VValue@v8@@@3@AEBV?$PropertyCallbackInfo@X@Nan@@@Z@4HA 0000000180041af0 f   njsPool.obj
 0001:00040af0       ?dtor$0@?0??SetPoolMin@Pool@@CAXV?$Local@VString@v8@@@v8@@V?$Local@VValue@v8@@@3@AEBV?$PropertyCallbackInfo@X@Nan@@@Z@4HA 0000000180041af0 f   njsPool.obj
 0001:00040af0       ?dtor$0@?0??SetStmtCacheSize@Pool@@CAXV?$Local@VString@v8@@@v8@@V?$Local@VValue@v8@@@3@AEBV?$PropertyCallbackInfo@X@Nan@@@Z@4HA 0000000180041af0 f   njsPool.obj
 0001:00040af0       ?dtor$0@?0??SetPoolTimeout@Pool@@CAXV?$Local@VString@v8@@@v8@@V?$Local@VValue@v8@@@3@AEBV?$PropertyCallbackInfo@X@Nan@@@Z@4HA 0000000180041af0 f   njsPool.obj
 0001:00040b00       ?dtor$0@?0??GetConnection@Pool@@CAXAEBV?$FunctionCallbackInfo@VValue@v8@@@Nan@@@Z@4HA 0000000180041b00 f   njsPool.obj
 0001:00040b00       ?dtor$0@?0??Terminate@Pool@@CAXAEBV?$FunctionCallbackInfo@VValue@v8@@@Nan@@@Z@4HA 0000000180041b00 f   njsPool.obj
 0001:00040b0c       ?dtor$1@?0??GetConnection@Pool@@CAXAEBV?$FunctionCallbackInfo@VValue@v8@@@Nan@@@Z@4HA 0000000180041b0c f   njsPool.obj
 0001:00040b0c       ?dtor$1@?0??Terminate@Pool@@CAXAEBV?$FunctionCallbackInfo@VValue@v8@@@Nan@@@Z@4HA 0000000180041b0c f   njsPool.obj
 0001:00040b18       ?dtor$2@?0??GetConnection@Pool@@CAXAEBV?$FunctionCallbackInfo@VValue@v8@@@Nan@@@Z@4HA 0000000180041b18 f   njsPool.obj
 0001:00040b18       ?dtor$2@?0??Terminate@Pool@@CAXAEBV?$FunctionCallbackInfo@VValue@v8@@@Nan@@@Z@4HA 0000000180041b18 f   njsPool.obj
 0001:00040b35       ?dtor$3@?0??Terminate@Pool@@CAXAEBV?$FunctionCallbackInfo@VValue@v8@@@Nan@@@Z@4HA 0000000180041b35 f   njsPool.obj
 0001:00040b35       ?dtor$3@?0??GetConnection@Pool@@CAXAEBV?$FunctionCallbackInfo@VValue@v8@@@Nan@@@Z@4HA 0000000180041b35 f   njsPool.obj
 0001:00040b41       ?dtor$4@?0??Terminate@Pool@@CAXAEBV?$FunctionCallbackInfo@VValue@v8@@@Nan@@@Z@4HA 0000000180041b41 f   njsPool.obj
 0001:00040b41       ?dtor$4@?0??GetConnection@Pool@@CAXAEBV?$FunctionCallbackInfo@VValue@v8@@@Nan@@@Z@4HA 0000000180041b41 f   njsPool.obj
 0001:00040b4d       ?dtor$5@?0??GetConnection@Pool@@CAXAEBV?$FunctionCallbackInfo@VValue@v8@@@Nan@@@Z@4HA 0000000180041b4d f   njsPool.obj
 0001:00040b4d       ?dtor$5@?0??Terminate@Pool@@CAXAEBV?$FunctionCallbackInfo@VValue@v8@@@Nan@@@Z@4HA 0000000180041b4d f   njsPool.obj
 0001:00040b59       ?dtor$6@?0??Terminate@Pool@@CAXAEBV?$FunctionCallbackInfo@VValue@v8@@@Nan@@@Z@4HA 0000000180041b59 f   njsPool.obj
 0001:00040b59       ?dtor$6@?0??GetConnection@Pool@@CAXAEBV?$FunctionCallbackInfo@VValue@v8@@@Nan@@@Z@4HA 0000000180041b59 f   njsPool.obj
 0001:00040b70       ?dtor$0@?0??Async_GetConnection@Pool@@CAXPEAUuv_work_s@@@Z@4HA 0000000180041b70 f   njsPool.obj
 0001:00040b7c       ?dtor$1@?0??Async_GetConnection@Pool@@CAXPEAUuv_work_s@@@Z@4HA 0000000180041b7c f   njsPool.obj
 0001:00040b88       ?dtor$2@?0??Async_GetConnection@Pool@@CAXPEAUuv_work_s@@@Z@4HA 0000000180041b88 f   njsPool.obj
 0001:00040b94       ?catch$0@?0??Async_GetConnection@Pool@@CAXPEAUuv_work_s@@@Z@4HA 0000000180041b94 f   njsPool.obj
 0001:00040ba1       __catch$?Async_GetConnection@Pool@@CAXPEAUuv_work_s@@@Z$1 0000000180041ba1 f   njsPool.obj
 0001:00040c45       ?dtor$3@?0??Async_GetConnection@Pool@@CAXPEAUuv_work_s@@@Z@4HA 0000000180041c45 f   njsPool.obj
 0001:00040c60       ?catch$0@?0??Async_Terminate@Pool@@CAXPEAUuv_work_s@@@Z@4HA 0000000180041c60 f   njsPool.obj
 0001:00040c6d       __catch$?Async_Terminate@Pool@@CAXPEAUuv_work_s@@@Z$1 0000000180041c6d f   njsPool.obj
 0001:00040d15       ?dtor$0@?0??Async_Terminate@Pool@@CAXPEAUuv_work_s@@@Z@4HA 0000000180041d15 f   njsPool.obj
 0001:00040d30       ?dtor$0@?0??Async_AfterBreak@Connection@@CAXPEAUuv_work_s@@@Z@4HA 0000000180041d30 f   njsConnection.obj
 0001:00040d30       ?dtor$0@?0??Async_AfterWrite@ILob@@CAXPEAUuv_work_s@@@Z@4HA 0000000180041d30 f   njsIntLob.obj
 0001:00040d30       ?dtor$0@?0??Async_AfterTerminate@Pool@@CAXPEAUuv_work_s@@@Z@4HA 0000000180041d30 f   njsPool.obj
 0001:00040d30       ?dtor$0@?0??Async_AfterRollback@Connection@@CAXPEAUuv_work_s@@@Z@4HA 0000000180041d30 f   njsConnection.obj
 0001:00040d30       ?dtor$0@?0??Async_AfterClose@ResultSet@@CAXPEAUuv_work_s@@@Z@4HA 0000000180041d30 f   njsResultSet.obj
 0001:00040d30       ?dtor$0@?0??Async_AfterRelease@Connection@@CAXPEAUuv_work_s@@@Z@4HA 0000000180041d30 f   njsConnection.obj
 0001:00040d30       ?dtor$0@?0??Async_AfterCommit@Connection@@CAXPEAUuv_work_s@@@Z@4HA 0000000180041d30 f   njsConnection.obj
 0001:00040d3c       ?dtor$1@?0??Async_AfterWrite@ILob@@CAXPEAUuv_work_s@@@Z@4HA 0000000180041d3c f   njsIntLob.obj
 0001:00040d3c       ?dtor$1@?0??Async_AfterClose@ResultSet@@CAXPEAUuv_work_s@@@Z@4HA 0000000180041d3c f   njsResultSet.obj
 0001:00040d3c       ?dtor$1@?0??Async_AfterRelease@Connection@@CAXPEAUuv_work_s@@@Z@4HA 0000000180041d3c f   njsConnection.obj
 0001:00040d3c       ?dtor$1@?0??Async_AfterTerminate@Pool@@CAXPEAUuv_work_s@@@Z@4HA 0000000180041d3c f   njsPool.obj
 0001:00040d3c       ?dtor$1@?0??Async_AfterRollback@Connection@@CAXPEAUuv_work_s@@@Z@4HA 0000000180041d3c f   njsConnection.obj
 0001:00040d3c       ?dtor$1@?0??Async_AfterBreak@Connection@@CAXPEAUuv_work_s@@@Z@4HA 0000000180041d3c f   njsConnection.obj
 0001:00040d3c       ?dtor$1@?0??Async_AfterCommit@Connection@@CAXPEAUuv_work_s@@@Z@4HA 0000000180041d3c f   njsConnection.obj
 0001:00040d50       ?dtor$0@?0???0eBaton@@QEAA@AEAIV?$Local@VFunction@v8@@@v8@@V?$Local@VObject@v8@@@2@@Z@4HA 0000000180041d50 f   njsConnection.obj
 0001:00040d63       ?dtor$1@?0???0eBaton@@QEAA@AEAIV?$Local@VFunction@v8@@@v8@@V?$Local@VObject@v8@@@2@@Z@4HA 0000000180041d63 f   njsConnection.obj
 0001:00040d76       ?dtor$2@?0???0eBaton@@QEAA@AEAIV?$Local@VFunction@v8@@@v8@@V?$Local@VObject@v8@@@2@@Z@4HA 0000000180041d76 f   njsConnection.obj
 0001:00040d89       ?dtor$3@?0???0eBaton@@QEAA@AEAIV?$Local@VFunction@v8@@@v8@@V?$Local@VObject@v8@@@2@@Z@4HA 0000000180041d89 f   njsConnection.obj
 0001:00040d9c       ?dtor$4@?0???0eBaton@@QEAA@AEAIV?$Local@VFunction@v8@@@v8@@V?$Local@VObject@v8@@@2@@Z@4HA 0000000180041d9c f   njsConnection.obj
 0001:00040daf       ?dtor$5@?0???0eBaton@@QEAA@AEAIV?$Local@VFunction@v8@@@v8@@V?$Local@VObject@v8@@@2@@Z@4HA 0000000180041daf f   njsConnection.obj
 0001:00040dc2       ?dtor$6@?0???0eBaton@@QEAA@AEAIV?$Local@VFunction@v8@@@v8@@V?$Local@VObject@v8@@@2@@Z@4HA 0000000180041dc2 f   njsConnection.obj
 0001:00040de0       ?dtor$2@?0???1eBaton@@QEAA@XZ@4HA 0000000180041de0 f   njsConnection.obj
 0001:00040de5       ?dtor$4@?0???1eBaton@@QEAA@XZ@4HA 0000000180041de5 f   njsConnection.obj
 0001:00040dea       ?dtor$6@?0???1eBaton@@QEAA@XZ@4HA 0000000180041dea f   njsConnection.obj
 0001:00040def       ?dtor$8@?0???1eBaton@@QEAA@XZ@4HA 0000000180041def f   njsConnection.obj
 0001:00040df4       ?dtor$9@?0???1eBaton@@QEAA@XZ@4HA 0000000180041df4 f   njsConnection.obj
 0001:00040df9       ?dtor$11@?0???1eBaton@@QEAA@XZ@4HA 0000000180041df9 f   njsConnection.obj
 0001:00040dfe       ?dtor$12@?0???1eBaton@@QEAA@XZ@4HA 0000000180041dfe f   njsConnection.obj
 0001:00040e10       ?dtor$0@?0??connectionPropertyException@Connection@@CAXPEAV1@W4NJSErrorType@@V?$basic_string@DU?$char_traits@D@std@@V?$allocator@D@2@@std@@@Z@4HA 0000000180041e10 f   njsConnection.obj
 0001:00040e10       ?dtor$0@?0??lobPropertyException@ILob@@CAXPEAV1@W4NJSErrorType@@V?$basic_string@DU?$char_traits@D@std@@V?$allocator@D@2@@std@@@Z@4HA 0000000180041e10 f   njsIntLob.obj
 0001:00040e1c       ?dtor$1@?0??lobPropertyException@ILob@@CAXPEAV1@W4NJSErrorType@@V?$basic_string@DU?$char_traits@D@std@@V?$allocator@D@2@@std@@@Z@4HA 0000000180041e1c f   njsIntLob.obj
 0001:00040e1c       ?dtor$1@?0??connectionPropertyException@Connection@@CAXPEAV1@W4NJSErrorType@@V?$basic_string@DU?$char_traits@D@std@@V?$allocator@D@2@@std@@@Z@4HA 0000000180041e1c f   njsConnection.obj
 0001:00040e28       ?dtor$2@?0??lobPropertyException@ILob@@CAXPEAV1@W4NJSErrorType@@V?$basic_string@DU?$char_traits@D@std@@V?$allocator@D@2@@std@@@Z@4HA 0000000180041e28 f   njsIntLob.obj
 0001:00040e28       ?dtor$2@?0??connectionPropertyException@Connection@@CAXPEAV1@W4NJSErrorType@@V?$basic_string@DU?$char_traits@D@std@@V?$allocator@D@2@@std@@@Z@4HA 0000000180041e28 f   njsConnection.obj
 0001:00040e34       ?dtor$3@?0??lobPropertyException@ILob@@CAXPEAV1@W4NJSErrorType@@V?$basic_string@DU?$char_traits@D@std@@V?$allocator@D@2@@std@@@Z@4HA 0000000180041e34 f   njsIntLob.obj
 0001:00040e34       ?dtor$3@?0??connectionPropertyException@Connection@@CAXPEAV1@W4NJSErrorType@@V?$basic_string@DU?$char_traits@D@std@@V?$allocator@D@2@@std@@@Z@4HA 0000000180041e34 f   njsConnection.obj
 0001:00040e40       ?dtor$4@?0??connectionPropertyException@Connection@@CAXPEAV1@W4NJSErrorType@@V?$basic_string@DU?$char_traits@D@std@@V?$allocator@D@2@@std@@@Z@4HA 0000000180041e40 f   njsConnection.obj
 0001:00040e40       ?dtor$4@?0??lobPropertyException@ILob@@CAXPEAV1@W4NJSErrorType@@V?$basic_string@DU?$char_traits@D@std@@V?$allocator@D@2@@std@@@Z@4HA 0000000180041e40 f   njsIntLob.obj
 0001:00040e50       ?dtor$0@?0??GetStmtCacheSize@Connection@@CAXV?$Local@VString@v8@@@v8@@AEBV?$PropertyCallbackInfo@VValue@v8@@@Nan@@@Z@4HA 0000000180041e50 f   njsConnection.obj
 0001:00040e5c       ?dtor$1@?0??GetStmtCacheSize@Connection@@CAXV?$Local@VString@v8@@@v8@@AEBV?$PropertyCallbackInfo@VValue@v8@@@Nan@@@Z@4HA 0000000180041e5c f   njsConnection.obj
 0001:00040e68       ?catch$0@?0??GetStmtCacheSize@Connection@@CAXV?$Local@VString@v8@@@v8@@AEBV?$PropertyCallbackInfo@VValue@v8@@@Nan@@@Z@4HA 0000000180041e68 f   njsConnection.obj
 0001:00040e77       __catch$?GetStmtCacheSize@Connection@@CAXV?$Local@VString@v8@@@v8@@AEBV?$PropertyCallbackInfo@VValue@v8@@@Nan@@@Z$0 0000000180041e77 f   njsConnection.obj
 0001:00040f00       ?dtor$0@?0??SetClientId@Connection@@CAXV?$Local@VString@v8@@@v8@@V?$Local@VValue@v8@@@3@AEBV?$PropertyCallbackInfo@X@Nan@@@Z@4HA 0000000180041f00 f   njsConnection.obj
 0001:00040f0c       ?dtor$1@?0??SetClientId@Connection@@CAXV?$Local@VString@v8@@@v8@@V?$Local@VValue@v8@@@3@AEBV?$PropertyCallbackInfo@X@Nan@@@Z@4HA 0000000180041f0c f   njsConnection.obj
 0001:00040f18       ?dtor$2@?0??SetClientId@Connection@@CAXV?$Local@VString@v8@@@v8@@V?$Local@VValue@v8@@@3@AEBV?$PropertyCallbackInfo@X@Nan@@@Z@4HA 0000000180041f18 f   njsConnection.obj
 0001:00040f24       ?dtor$3@?0??SetClientId@Connection@@CAXV?$Local@VString@v8@@@v8@@V?$Local@VValue@v8@@@3@AEBV?$PropertyCallbackInfo@X@Nan@@@Z@4HA 0000000180041f24 f   njsConnection.obj
 0001:00040f30       ?dtor$4@?0??SetClientId@Connection@@CAXV?$Local@VString@v8@@@v8@@V?$Local@VValue@v8@@@3@AEBV?$PropertyCallbackInfo@X@Nan@@@Z@4HA 0000000180041f30 f   njsConnection.obj
 0001:00040f3e       ?dtor$5@?0??SetClientId@Connection@@CAXV?$Local@VString@v8@@@v8@@V?$Local@VValue@v8@@@3@AEBV?$PropertyCallbackInfo@X@Nan@@@Z@4HA 0000000180041f3e f   njsConnection.obj
 0001:00040f4a       ?dtor$6@?0??SetClientId@Connection@@CAXV?$Local@VString@v8@@@v8@@V?$Local@VValue@v8@@@3@AEBV?$PropertyCallbackInfo@X@Nan@@@Z@4HA 0000000180041f4a f   njsConnection.obj
 0001:00040f56       ?catch$0@?0??SetClientId@Connection@@CAXV?$Local@VString@v8@@@v8@@V?$Local@VValue@v8@@@3@AEBV?$PropertyCallbackInfo@X@Nan@@@Z@4HA 0000000180041f56 f   njsConnection.obj
 0001:00040f65       __catch$?SetClientId@Connection@@CAXV?$Local@VString@v8@@@v8@@V?$Local@VValue@v8@@@3@AEBV?$PropertyCallbackInfo@X@Nan@@@Z$0 0000000180041f65 f   njsConnection.obj
 0001:00040ff0       ?dtor$0@?0??SetModule@Connection@@CAXV?$Local@VString@v8@@@v8@@V?$Local@VValue@v8@@@3@AEBV?$PropertyCallbackInfo@X@Nan@@@Z@4HA 0000000180041ff0 f   njsConnection.obj
 0001:00040ffc       ?dtor$1@?0??SetModule@Connection@@CAXV?$Local@VString@v8@@@v8@@V?$Local@VValue@v8@@@3@AEBV?$PropertyCallbackInfo@X@Nan@@@Z@4HA 0000000180041ffc f   njsConnection.obj
 0001:00041008       ?dtor$2@?0??SetModule@Connection@@CAXV?$Local@VString@v8@@@v8@@V?$Local@VValue@v8@@@3@AEBV?$PropertyCallbackInfo@X@Nan@@@Z@4HA 0000000180042008 f   njsConnection.obj
 0001:00041014       ?dtor$3@?0??SetModule@Connection@@CAXV?$Local@VString@v8@@@v8@@V?$Local@VValue@v8@@@3@AEBV?$PropertyCallbackInfo@X@Nan@@@Z@4HA 0000000180042014 f   njsConnection.obj
 0001:00041020       ?dtor$4@?0??SetModule@Connection@@CAXV?$Local@VString@v8@@@v8@@V?$Local@VValue@v8@@@3@AEBV?$PropertyCallbackInfo@X@Nan@@@Z@4HA 0000000180042020 f   njsConnection.obj
 0001:0004102e       ?dtor$5@?0??SetModule@Connection@@CAXV?$Local@VString@v8@@@v8@@V?$Local@VValue@v8@@@3@AEBV?$PropertyCallbackInfo@X@Nan@@@Z@4HA 000000018004202e f   njsConnection.obj
 0001:0004103a       ?dtor$6@?0??SetModule@Connection@@CAXV?$Local@VString@v8@@@v8@@V?$Local@VValue@v8@@@3@AEBV?$PropertyCallbackInfo@X@Nan@@@Z@4HA 000000018004203a f   njsConnection.obj
 0001:00041046       ?catch$0@?0??SetModule@Connection@@CAXV?$Local@VString@v8@@@v8@@V?$Local@VValue@v8@@@3@AEBV?$PropertyCallbackInfo@X@Nan@@@Z@4HA 0000000180042046 f   njsConnection.obj
 0001:00041055       __catch$?SetModule@Connection@@CAXV?$Local@VString@v8@@@v8@@V?$Local@VValue@v8@@@3@AEBV?$PropertyCallbackInfo@X@Nan@@@Z$0 0000000180042055 f   njsConnection.obj
 0001:000410e0       ?dtor$0@?0??SetAction@Connection@@CAXV?$Local@VString@v8@@@v8@@V?$Local@VValue@v8@@@3@AEBV?$PropertyCallbackInfo@X@Nan@@@Z@4HA 00000001800420e0 f   njsConnection.obj
 0001:000410ec       ?dtor$1@?0??SetAction@Connection@@CAXV?$Local@VString@v8@@@v8@@V?$Local@VValue@v8@@@3@AEBV?$PropertyCallbackInfo@X@Nan@@@Z@4HA 00000001800420ec f   njsConnection.obj
 0001:000410f8       ?dtor$2@?0??SetAction@Connection@@CAXV?$Local@VString@v8@@@v8@@V?$Local@VValue@v8@@@3@AEBV?$PropertyCallbackInfo@X@Nan@@@Z@4HA 00000001800420f8 f   njsConnection.obj
 0001:00041104       ?dtor$3@?0??SetAction@Connection@@CAXV?$Local@VString@v8@@@v8@@V?$Local@VValue@v8@@@3@AEBV?$PropertyCallbackInfo@X@Nan@@@Z@4HA 0000000180042104 f   njsConnection.obj
 0001:00041110       ?dtor$4@?0??SetAction@Connection@@CAXV?$Local@VString@v8@@@v8@@V?$Local@VValue@v8@@@3@AEBV?$PropertyCallbackInfo@X@Nan@@@Z@4HA 0000000180042110 f   njsConnection.obj
 0001:0004111e       ?dtor$5@?0??SetAction@Connection@@CAXV?$Local@VString@v8@@@v8@@V?$Local@VValue@v8@@@3@AEBV?$PropertyCallbackInfo@X@Nan@@@Z@4HA 000000018004211e f   njsConnection.obj
 0001:0004112a       ?dtor$6@?0??SetAction@Connection@@CAXV?$Local@VString@v8@@@v8@@V?$Local@VValue@v8@@@3@AEBV?$PropertyCallbackInfo@X@Nan@@@Z@4HA 000000018004212a f   njsConnection.obj
 0001:00041136       ?catch$0@?0??SetAction@Connection@@CAXV?$Local@VString@v8@@@v8@@V?$Local@VValue@v8@@@3@AEBV?$PropertyCallbackInfo@X@Nan@@@Z@4HA 0000000180042136 f   njsConnection.obj
 0001:00041145       __catch$?SetAction@Connection@@CAXV?$Local@VString@v8@@@v8@@V?$Local@VValue@v8@@@3@AEBV?$PropertyCallbackInfo@X@Nan@@@Z$0 0000000180042145 f   njsConnection.obj
 0001:000411d0       ?dtor$0@?0??GetOracleServerVersion@Connection@@CAXV?$Local@VString@v8@@@v8@@AEBV?$PropertyCallbackInfo@VValue@v8@@@Nan@@@Z@4HA 00000001800421d0 f   njsConnection.obj
 0001:000411dc       ?dtor$1@?0??GetOracleServerVersion@Connection@@CAXV?$Local@VString@v8@@@v8@@AEBV?$PropertyCallbackInfo@VValue@v8@@@Nan@@@Z@4HA 00000001800421dc f   njsConnection.obj
 0001:000411e8       ?catch$0@?0??GetOracleServerVersion@Connection@@CAXV?$Local@VString@v8@@@v8@@AEBV?$PropertyCallbackInfo@VValue@v8@@@Nan@@@Z@4HA 00000001800421e8 f   njsConnection.obj
 0001:000411f7       __catch$?GetOracleServerVersion@Connection@@CAXV?$Local@VString@v8@@@v8@@AEBV?$PropertyCallbackInfo@VValue@v8@@@Nan@@@Z$0 00000001800421f7 f   njsConnection.obj
 0001:00041290       ?dtor$0@?0??Execute@Connection@@CAXAEBV?$FunctionCallbackInfo@VValue@v8@@@Nan@@@Z@4HA 0000000180042290 f   njsConnection.obj
 0001:0004129c       ?dtor$1@?0??Execute@Connection@@CAXAEBV?$FunctionCallbackInfo@VValue@v8@@@Nan@@@Z@4HA 000000018004229c f   njsConnection.obj
 0001:000412a8       ?dtor$2@?0??Execute@Connection@@CAXAEBV?$FunctionCallbackInfo@VValue@v8@@@Nan@@@Z@4HA 00000001800422a8 f   njsConnection.obj
 0001:000412b4       ?dtor$3@?0??Execute@Connection@@CAXAEBV?$FunctionCallbackInfo@VValue@v8@@@Nan@@@Z@4HA 00000001800422b4 f   njsConnection.obj
 0001:000412d1       ?dtor$4@?0??Execute@Connection@@CAXAEBV?$FunctionCallbackInfo@VValue@v8@@@Nan@@@Z@4HA 00000001800422d1 f   njsConnection.obj
 0001:000412dd       ?dtor$5@?0??Execute@Connection@@CAXAEBV?$FunctionCallbackInfo@VValue@v8@@@Nan@@@Z@4HA 00000001800422dd f   njsConnection.obj
 0001:000412e9       ?dtor$6@?0??Execute@Connection@@CAXAEBV?$FunctionCallbackInfo@VValue@v8@@@Nan@@@Z@4HA 00000001800422e9 f   njsConnection.obj
 0001:000412f5       ?dtor$7@?0??Execute@Connection@@CAXAEBV?$FunctionCallbackInfo@VValue@v8@@@Nan@@@Z@4HA 00000001800422f5 f   njsConnection.obj
 0001:00041303       ?dtor$8@?0??Execute@Connection@@CAXAEBV?$FunctionCallbackInfo@VValue@v8@@@Nan@@@Z@4HA 0000000180042303 f   njsConnection.obj
 0001:0004130f       ?dtor$9@?0??Execute@Connection@@CAXAEBV?$FunctionCallbackInfo@VValue@v8@@@Nan@@@Z@4HA 000000018004230f f   njsConnection.obj
 0001:0004131b       ?dtor$10@?0??Execute@Connection@@CAXAEBV?$FunctionCallbackInfo@VValue@v8@@@Nan@@@Z@4HA 000000018004231b f   njsConnection.obj
 0001:00041330       ?dtor$0@?0??ProcessBinds@Connection@@CAXAEBV?$FunctionCallbackInfo@VValue@v8@@@Nan@@IPEAUeBaton@@@Z@4HA 0000000180042330 f   njsConnection.obj
 0001:0004133c       ?dtor$1@?0??ProcessBinds@Connection@@CAXAEBV?$FunctionCallbackInfo@VValue@v8@@@Nan@@IPEAUeBaton@@@Z@4HA 000000018004233c f   njsConnection.obj
 0001:00041350       ?dtor$0@?0??ProcessOptions@Connection@@CAXAEBV?$FunctionCallbackInfo@VValue@v8@@@Nan@@IPEAUeBaton@@@Z@4HA 0000000180042350 f   njsConnection.obj
 0001:0004135c       ?dtor$1@?0??ProcessOptions@Connection@@CAXAEBV?$FunctionCallbackInfo@VValue@v8@@@Nan@@IPEAUeBaton@@@Z@4HA 000000018004235c f   njsConnection.obj
 0001:00041368       ?dtor$2@?0??ProcessOptions@Connection@@CAXAEBV?$FunctionCallbackInfo@VValue@v8@@@Nan@@IPEAUeBaton@@@Z@4HA 0000000180042368 f   njsConnection.obj
 0001:00041374       ?dtor$3@?0??ProcessOptions@Connection@@CAXAEBV?$FunctionCallbackInfo@VValue@v8@@@Nan@@IPEAUeBaton@@@Z@4HA 0000000180042374 f   njsConnection.obj
 0001:00041380       ?dtor$4@?0??ProcessOptions@Connection@@CAXAEBV?$FunctionCallbackInfo@VValue@v8@@@Nan@@IPEAUeBaton@@@Z@4HA 0000000180042380 f   njsConnection.obj
 0001:0004138c       ?dtor$5@?0??ProcessOptions@Connection@@CAXAEBV?$FunctionCallbackInfo@VValue@v8@@@Nan@@IPEAUeBaton@@@Z@4HA 000000018004238c f   njsConnection.obj
 0001:00041398       ?dtor$6@?0??ProcessOptions@Connection@@CAXAEBV?$FunctionCallbackInfo@VValue@v8@@@Nan@@IPEAUeBaton@@@Z@4HA 0000000180042398 f   njsConnection.obj
 0001:000413a4       ?dtor$7@?0??ProcessOptions@Connection@@CAXAEBV?$FunctionCallbackInfo@VValue@v8@@@Nan@@IPEAUeBaton@@@Z@4HA 00000001800423a4 f   njsConnection.obj
 0001:000413b0       ?dtor$8@?0??ProcessOptions@Connection@@CAXAEBV?$FunctionCallbackInfo@VValue@v8@@@Nan@@IPEAUeBaton@@@Z@4HA 00000001800423b0 f   njsConnection.obj
 0001:000413ee       ?dtor$9@?0??ProcessOptions@Connection@@CAXAEBV?$FunctionCallbackInfo@VValue@v8@@@Nan@@IPEAUeBaton@@@Z@4HA 00000001800423ee f   njsConnection.obj
 0001:000413fc       ?dtor$10@?0??ProcessOptions@Connection@@CAXAEBV?$FunctionCallbackInfo@VValue@v8@@@Nan@@IPEAUeBaton@@@Z@4HA 00000001800423fc f   njsConnection.obj
 0001:00041408       ?dtor$12@?0??ProcessOptions@Connection@@CAXAEBV?$FunctionCallbackInfo@VValue@v8@@@Nan@@IPEAUeBaton@@@Z@4HA 0000000180042408 f   njsConnection.obj
 0001:00041414       ?dtor$13@?0??ProcessOptions@Connection@@CAXAEBV?$FunctionCallbackInfo@VValue@v8@@@Nan@@IPEAUeBaton@@@Z@4HA 0000000180042414 f   njsConnection.obj
 0001:00041420       ?dtor$14@?0??ProcessOptions@Connection@@CAXAEBV?$FunctionCallbackInfo@VValue@v8@@@Nan@@IPEAUeBaton@@@Z@4HA 0000000180042420 f   njsConnection.obj
 0001:0004142c       ?dtor$15@?0??ProcessOptions@Connection@@CAXAEBV?$FunctionCallbackInfo@VValue@v8@@@Nan@@IPEAUeBaton@@@Z@4HA 000000018004242c f   njsConnection.obj
 0001:00041438       ?dtor$16@?0??ProcessOptions@Connection@@CAXAEBV?$FunctionCallbackInfo@VValue@v8@@@Nan@@IPEAUeBaton@@@Z@4HA 0000000180042438 f   njsConnection.obj
 0001:00041444       ?dtor$17@?0??ProcessOptions@Connection@@CAXAEBV?$FunctionCallbackInfo@VValue@v8@@@Nan@@IPEAUeBaton@@@Z@4HA 0000000180042444 f   njsConnection.obj
 0001:00041450       ?dtor$0@?0??GetBinds@Connection@@CAXV?$Local@VObject@v8@@@v8@@PEAUeBaton@@@Z@4HA 0000000180042450 f   njsConnection.obj
 0001:0004145c       ?dtor$1@?0??GetBinds@Connection@@CAXV?$Local@VObject@v8@@@v8@@PEAUeBaton@@@Z@4HA 000000018004245c f   njsConnection.obj
 0001:00041468       ?dtor$2@?0??GetBinds@Connection@@CAXV?$Local@VObject@v8@@@v8@@PEAUeBaton@@@Z@4HA 0000000180042468 f   njsConnection.obj
 0001:00041485       ?dtor$3@?0??GetBinds@Connection@@CAXV?$Local@VObject@v8@@@v8@@PEAUeBaton@@@Z@4HA 0000000180042485 f   njsConnection.obj
 0001:00041493       ?dtor$4@?0??GetBinds@Connection@@CAXV?$Local@VObject@v8@@@v8@@PEAUeBaton@@@Z@4HA 0000000180042493 f   njsConnection.obj
 0001:0004149f       ?dtor$5@?0??GetBinds@Connection@@CAXV?$Local@VObject@v8@@@v8@@PEAUeBaton@@@Z@4HA 000000018004249f f   njsConnection.obj
 0001:000414ab       ?dtor$6@?0??GetBinds@Connection@@CAXV?$Local@VObject@v8@@@v8@@PEAUeBaton@@@Z@4HA 00000001800424ab f   njsConnection.obj
 0001:000414c0       ?dtor$0@?0??GetBinds@Connection@@CAXV?$Local@VArray@v8@@@v8@@PEAUeBaton@@@Z@4HA 00000001800424c0 f   njsConnection.obj
 0001:000414cc       ?dtor$1@?0??GetBinds@Connection@@CAXV?$Local@VArray@v8@@@v8@@PEAUeBaton@@@Z@4HA 00000001800424cc f   njsConnection.obj
 0001:000414f0       ?dtor$0@?0??GetBindUnit@Connection@@CAXV?$Local@VValue@v8@@@v8@@PEAUBind@@_NPEAUeBaton@@@Z@4HA 00000001800424f0 f   njsConnection.obj
 0001:000414fc       ?dtor$1@?0??GetBindUnit@Connection@@CAXV?$Local@VValue@v8@@@v8@@PEAUBind@@_NPEAUeBaton@@@Z@4HA 00000001800424fc f   njsConnection.obj
 0001:00041508       ?dtor$2@?0??GetBindUnit@Connection@@CAXV?$Local@VValue@v8@@@v8@@PEAUBind@@_NPEAUeBaton@@@Z@4HA 0000000180042508 f   njsConnection.obj
 0001:00041516       ?dtor$3@?0??GetBindUnit@Connection@@CAXV?$Local@VValue@v8@@@v8@@PEAUBind@@_NPEAUeBaton@@@Z@4HA 0000000180042516 f   njsConnection.obj
 0001:00041522       ?dtor$4@?0??GetBindUnit@Connection@@CAXV?$Local@VValue@v8@@@v8@@PEAUBind@@_NPEAUeBaton@@@Z@4HA 0000000180042522 f   njsConnection.obj
 0001:0004152e       ?dtor$5@?0??GetBindUnit@Connection@@CAXV?$Local@VValue@v8@@@v8@@PEAUBind@@_NPEAUeBaton@@@Z@4HA 000000018004252e f   njsConnection.obj
 0001:0004153a       ?dtor$6@?0??GetBindUnit@Connection@@CAXV?$Local@VValue@v8@@@v8@@PEAUBind@@_NPEAUeBaton@@@Z@4HA 000000018004253a f   njsConnection.obj
 0001:00041546       ?dtor$7@?0??GetBindUnit@Connection@@CAXV?$Local@VValue@v8@@@v8@@PEAUBind@@_NPEAUeBaton@@@Z@4HA 0000000180042546 f   njsConnection.obj
 0001:00041552       ?dtor$8@?0??GetBindUnit@Connection@@CAXV?$Local@VValue@v8@@@v8@@PEAUBind@@_NPEAUeBaton@@@Z@4HA 0000000180042552 f   njsConnection.obj
 0001:0004155e       ?dtor$9@?0??GetBindUnit@Connection@@CAXV?$Local@VValue@v8@@@v8@@PEAUBind@@_NPEAUeBaton@@@Z@4HA 000000018004255e f   njsConnection.obj
 0001:0004156a       ?dtor$10@?0??GetBindUnit@Connection@@CAXV?$Local@VValue@v8@@@v8@@PEAUBind@@_NPEAUeBaton@@@Z@4HA 000000018004256a f   njsConnection.obj
 0001:00041576       ?dtor$11@?0??GetBindUnit@Connection@@CAXV?$Local@VValue@v8@@@v8@@PEAUBind@@_NPEAUeBaton@@@Z@4HA 0000000180042576 f   njsConnection.obj
 0001:00041582       ?dtor$12@?0??GetBindUnit@Connection@@CAXV?$Local@VValue@v8@@@v8@@PEAUBind@@_NPEAUeBaton@@@Z@4HA 0000000180042582 f   njsConnection.obj
 0001:0004158e       ?dtor$13@?0??GetBindUnit@Connection@@CAXV?$Local@VValue@v8@@@v8@@PEAUBind@@_NPEAUeBaton@@@Z@4HA 000000018004258e f   njsConnection.obj
 0001:0004159a       ?dtor$14@?0??GetBindUnit@Connection@@CAXV?$Local@VValue@v8@@@v8@@PEAUBind@@_NPEAUeBaton@@@Z@4HA 000000018004259a f   njsConnection.obj
 0001:000415a6       ?dtor$15@?0??GetBindUnit@Connection@@CAXV?$Local@VValue@v8@@@v8@@PEAUBind@@_NPEAUeBaton@@@Z@4HA 00000001800425a6 f   njsConnection.obj
 0001:000415b2       ?dtor$16@?0??GetBindUnit@Connection@@CAXV?$Local@VValue@v8@@@v8@@PEAUBind@@_NPEAUeBaton@@@Z@4HA 00000001800425b2 f   njsConnection.obj
 0001:000415be       ?dtor$17@?0??GetBindUnit@Connection@@CAXV?$Local@VValue@v8@@@v8@@PEAUBind@@_NPEAUeBaton@@@Z@4HA 00000001800425be f   njsConnection.obj
 0001:000415ca       ?dtor$18@?0??GetBindUnit@Connection@@CAXV?$Local@VValue@v8@@@v8@@PEAUBind@@_NPEAUeBaton@@@Z@4HA 00000001800425ca f   njsConnection.obj
 0001:000415e0       ?dtor$0@?0??GetOutBindParams@Connection@@CAXGPEAUBind@@PEAUeBaton@@@Z@4HA 00000001800425e0 f   njsConnection.obj
 0001:000415ec       ?dtor$1@?0??GetOutBindParams@Connection@@CAXGPEAUBind@@PEAUeBaton@@@Z@4HA 00000001800425ec f   njsConnection.obj
 0001:000415f8       ?dtor$2@?0??GetOutBindParams@Connection@@CAXGPEAUBind@@PEAUeBaton@@@Z@4HA 00000001800425f8 f   njsConnection.obj
 0001:00041610       ?dtor$0@?0??GetInBindParams@Connection@@CAXV?$Local@VValue@v8@@@v8@@PEAUBind@@PEAUeBaton@@@Z@4HA 0000000180042610 f   njsConnection.obj
 0001:00041610       ?dtor$0@?0??GetValueLob@Connection@@CA?AV?$Local@VValue@v8@@@v8@@PEAUeBaton@@PEAUBind@@@Z@4HA 0000000180042610 f   njsConnection.obj
 0001:00041610       ?dtor$0@?0??GetOutBinds@Connection@@CA?AV?$Local@VValue@v8@@@v8@@PEAUeBaton@@@Z@4HA 0000000180042610 f   njsConnection.obj
 0001:00041610       ?dtor$0@?0??v8Date2OraDate@Connection@@CAXV?$Local@VValue@v8@@@v8@@PEAUBind@@@Z@4HA 0000000180042610 f   njsConnection.obj
 0001:00041620       ?dtor$0@?0??GetInBindParamsScalar@Connection@@CAXV?$Local@VValue@v8@@@v8@@PEAUBind@@PEAUeBaton@@@Z@4HA 0000000180042620 f   njsConnection.obj
 0001:0004162c       ?dtor$1@?0??GetInBindParamsScalar@Connection@@CAXV?$Local@VValue@v8@@@v8@@PEAUBind@@PEAUeBaton@@@Z@4HA 000000018004262c f   njsConnection.obj
 0001:00041638       ?dtor$2@?0??GetInBindParamsScalar@Connection@@CAXV?$Local@VValue@v8@@@v8@@PEAUBind@@PEAUeBaton@@@Z@4HA 0000000180042638 f   njsConnection.obj
 0001:00041646       ?dtor$3@?0??GetInBindParamsScalar@Connection@@CAXV?$Local@VValue@v8@@@v8@@PEAUBind@@PEAUeBaton@@@Z@4HA 0000000180042646 f   njsConnection.obj
 0001:00041652       ?dtor$4@?0??GetInBindParamsScalar@Connection@@CAXV?$Local@VValue@v8@@@v8@@PEAUBind@@PEAUeBaton@@@Z@4HA 0000000180042652 f   njsConnection.obj
 0001:0004165e       ?dtor$5@?0??GetInBindParamsScalar@Connection@@CAXV?$Local@VValue@v8@@@v8@@PEAUBind@@PEAUeBaton@@@Z@4HA 000000018004265e f   njsConnection.obj
 0001:0004166a       ?dtor$6@?0??GetInBindParamsScalar@Connection@@CAXV?$Local@VValue@v8@@@v8@@PEAUBind@@PEAUeBaton@@@Z@4HA 000000018004266a f   njsConnection.obj
 0001:00041676       ?dtor$7@?0??GetInBindParamsScalar@Connection@@CAXV?$Local@VValue@v8@@@v8@@PEAUBind@@PEAUeBaton@@@Z@4HA 0000000180042676 f   njsConnection.obj
 0001:00041682       ?dtor$8@?0??GetInBindParamsScalar@Connection@@CAXV?$Local@VValue@v8@@@v8@@PEAUBind@@PEAUeBaton@@@Z@4HA 0000000180042682 f   njsConnection.obj
 0001:0004168e       ?dtor$9@?0??GetInBindParamsScalar@Connection@@CAXV?$Local@VValue@v8@@@v8@@PEAUBind@@PEAUeBaton@@@Z@4HA 000000018004268e f   njsConnection.obj
 0001:000416a0       ?dtor$0@?0??GetInBindParamsArray@Connection@@CAXV?$Local@VArray@v8@@@v8@@PEAUBind@@PEAUeBaton@@@Z@4HA 00000001800426a0 f   njsConnection.obj
 0001:000416ac       ?dtor$1@?0??GetInBindParamsArray@Connection@@CAXV?$Local@VArray@v8@@@v8@@PEAUBind@@PEAUeBaton@@@Z@4HA 00000001800426ac f   njsConnection.obj
 0001:000416b8       ?dtor$2@?0??GetInBindParamsArray@Connection@@CAXV?$Local@VArray@v8@@@v8@@PEAUBind@@PEAUeBaton@@@Z@4HA 00000001800426b8 f   njsConnection.obj
 0001:000416c4       ?dtor$3@?0??GetInBindParamsArray@Connection@@CAXV?$Local@VArray@v8@@@v8@@PEAUBind@@PEAUeBaton@@@Z@4HA 00000001800426c4 f   njsConnection.obj
 0001:000416d0       ?dtor$5@?0??GetInBindParamsArray@Connection@@CAXV?$Local@VArray@v8@@@v8@@PEAUBind@@PEAUeBaton@@@Z@4HA 00000001800426d0 f   njsConnection.obj
 0001:000416dc       ?dtor$6@?0??GetInBindParamsArray@Connection@@CAXV?$Local@VArray@v8@@@v8@@PEAUBind@@PEAUeBaton@@@Z@4HA 00000001800426dc f   njsConnection.obj
 0001:000416e8       ?dtor$7@?0??GetInBindParamsArray@Connection@@CAXV?$Local@VArray@v8@@@v8@@PEAUBind@@PEAUeBaton@@@Z@4HA 00000001800426e8 f   njsConnection.obj
 0001:000416f4       ?dtor$8@?0??GetInBindParamsArray@Connection@@CAXV?$Local@VArray@v8@@@v8@@PEAUBind@@PEAUeBaton@@@Z@4HA 00000001800426f4 f   njsConnection.obj
 0001:00041700       ?dtor$9@?0??GetInBindParamsArray@Connection@@CAXV?$Local@VArray@v8@@@v8@@PEAUBind@@PEAUeBaton@@@Z@4HA 0000000180042700 f   njsConnection.obj
 0001:0004170c       ?dtor$10@?0??GetInBindParamsArray@Connection@@CAXV?$Local@VArray@v8@@@v8@@PEAUBind@@PEAUeBaton@@@Z@4HA 000000018004270c f   njsConnection.obj
 0001:00041718       ?dtor$11@?0??GetInBindParamsArray@Connection@@CAXV?$Local@VArray@v8@@@v8@@PEAUBind@@PEAUeBaton@@@Z@4HA 0000000180042718 f   njsConnection.obj
 0001:00041724       ?dtor$12@?0??GetInBindParamsArray@Connection@@CAXV?$Local@VArray@v8@@@v8@@PEAUBind@@PEAUeBaton@@@Z@4HA 0000000180042724 f   njsConnection.obj
 0001:00041730       ?dtor$13@?0??GetInBindParamsArray@Connection@@CAXV?$Local@VArray@v8@@@v8@@PEAUBind@@PEAUeBaton@@@Z@4HA 0000000180042730 f   njsConnection.obj
 0001:0004173c       ?dtor$14@?0??GetInBindParamsArray@Connection@@CAXV?$Local@VArray@v8@@@v8@@PEAUBind@@PEAUeBaton@@@Z@4HA 000000018004273c f   njsConnection.obj
 0001:00041748       ?dtor$16@?0??GetInBindParamsArray@Connection@@CAXV?$Local@VArray@v8@@@v8@@PEAUBind@@PEAUeBaton@@@Z@4HA 0000000180042748 f   njsConnection.obj
 0001:00041760       ?dtor$0@?0??AllocateBindArray@Connection@@CA_NGPEAUBind@@PEAUeBaton@@PEA_K@Z@4HA 0000000180042760 f   njsConnection.obj
 0001:0004176c       ?dtor$1@?0??AllocateBindArray@Connection@@CA_NGPEAUBind@@PEAUeBaton@@PEA_K@Z@4HA 000000018004276c f   njsConnection.obj
 0001:00041778       ?dtor$2@?0??AllocateBindArray@Connection@@CA_NGPEAUBind@@PEAUeBaton@@PEA_K@Z@4HA 0000000180042778 f   njsConnection.obj
 0001:00041784       ?dtor$3@?0??AllocateBindArray@Connection@@CA_NGPEAUBind@@PEAUeBaton@@PEA_K@Z@4HA 0000000180042784 f   njsConnection.obj
 0001:00041790       ?dtor$4@?0??AllocateBindArray@Connection@@CA_NGPEAUBind@@PEAUeBaton@@PEA_K@Z@4HA 0000000180042790 f   njsConnection.obj
 0001:0004179c       ?dtor$5@?0??AllocateBindArray@Connection@@CA_NGPEAUBind@@PEAUeBaton@@PEA_K@Z@4HA 000000018004279c f   njsConnection.obj
 0001:000417a8       ?dtor$6@?0??AllocateBindArray@Connection@@CA_NGPEAUBind@@PEAUeBaton@@PEA_K@Z@4HA 00000001800427a8 f   njsConnection.obj
 0001:000417b4       ?dtor$7@?0??AllocateBindArray@Connection@@CA_NGPEAUBind@@PEAUeBaton@@PEA_K@Z@4HA 00000001800427b4 f   njsConnection.obj
 0001:000417c0       ?dtor$0@?0??Async_Execute@Connection@@CAXPEAUuv_work_s@@@Z@4HA 00000001800427c0 f   njsConnection.obj
 0001:000417cc       ?dtor$1@?0??Async_Execute@Connection@@CAXPEAUuv_work_s@@@Z@4HA 00000001800427cc f   njsConnection.obj
 0001:0004180a       ?dtor$2@?0??Async_Execute@Connection@@CAXPEAUuv_work_s@@@Z@4HA 000000018004280a f   njsConnection.obj
 0001:00041816       ?dtor$3@?0??Async_Execute@Connection@@CAXPEAUuv_work_s@@@Z@4HA 0000000180042816 f   njsConnection.obj
 0001:00041822       ?dtor$4@?0??Async_Execute@Connection@@CAXPEAUuv_work_s@@@Z@4HA 0000000180042822 f   njsConnection.obj
 0001:0004182e       ?dtor$5@?0??Async_Execute@Connection@@CAXPEAUuv_work_s@@@Z@4HA 000000018004282e f   njsConnection.obj
 0001:0004183a       ?dtor$8@?0??Async_Execute@Connection@@CAXPEAUuv_work_s@@@Z@4HA 000000018004283a f   njsConnection.obj
 0001:00041878       ?dtor$9@?0??Async_Execute@Connection@@CAXPEAUuv_work_s@@@Z@4HA 0000000180042878 f   njsConnection.obj
 0001:00041884       ?catch$0@?0??Async_Execute@Connection@@CAXPEAUuv_work_s@@@Z@4HA 0000000180042884 f   njsConnection.obj
 0001:00041893       __catch$?Async_Execute@Connection@@CAXPEAUuv_work_s@@@Z$12 0000000180042893 f   njsConnection.obj
 0001:000419c9       ?dtor$10@?0??Async_Execute@Connection@@CAXPEAUuv_work_s@@@Z@4HA 00000001800429c9 f   njsConnection.obj
 0001:000419d5       ?dtor$11@?0??Async_Execute@Connection@@CAXPEAUuv_work_s@@@Z@4HA 00000001800429d5 f   njsConnection.obj
 0001:000419f0       ?dtor$1@?0??PrepareAndBind@Connection@@CAXPEAUeBaton@@@Z@4HA 00000001800429f0 f   njsConnection.obj
 0001:00041a0d       ?dtor$0@?0??PrepareAndBind@Connection@@CAXPEAUeBaton@@@Z@4HA 0000000180042a0d f   njsConnection.obj
 0001:00041a20       ?dtor$0@?0??CopyMetaData@Connection@@SAXPEAUMetaInfo@@PEAUeBaton@@PEBUMetaData@dpi@@I@Z@4HA 0000000180042a20 f   njsConnection.obj
 0001:00041a2c       ?dtor$1@?0??CopyMetaData@Connection@@SAXPEAUMetaInfo@@PEAUeBaton@@PEBUMetaData@dpi@@I@Z@4HA 0000000180042a2c f   njsConnection.obj
 0001:00041a40       ?dtor$1@?0??DoDefines@Connection@@SAXPEAUeBaton@@@Z@4HA 0000000180042a40 f   njsConnection.obj
 0001:00041a4c       ?dtor$2@?0??DoDefines@Connection@@SAXPEAUeBaton@@@Z@4HA 0000000180042a4c f   njsConnection.obj
 0001:00041a58       ?dtor$3@?0??DoDefines@Connection@@SAXPEAUeBaton@@@Z@4HA 0000000180042a58 f   njsConnection.obj
 0001:00041a64       ?dtor$4@?0??DoDefines@Connection@@SAXPEAUeBaton@@@Z@4HA 0000000180042a64 f   njsConnection.obj
 0001:00041a70       ?dtor$5@?0??DoDefines@Connection@@SAXPEAUeBaton@@@Z@4HA 0000000180042a70 f   njsConnection.obj
 0001:00041a7c       ?dtor$6@?0??DoDefines@Connection@@SAXPEAUeBaton@@@Z@4HA 0000000180042a7c f   njsConnection.obj
 0001:00041a88       ?dtor$7@?0??DoDefines@Connection@@SAXPEAUeBaton@@@Z@4HA 0000000180042a88 f   njsConnection.obj
 0001:00041a94       ?dtor$8@?0??DoDefines@Connection@@SAXPEAUeBaton@@@Z@4HA 0000000180042a94 f   njsConnection.obj
 0001:00041aa0       ?dtor$9@?0??DoDefines@Connection@@SAXPEAUeBaton@@@Z@4HA 0000000180042aa0 f   njsConnection.obj
 0001:00041aac       ?dtor$10@?0??DoDefines@Connection@@SAXPEAUeBaton@@@Z@4HA 0000000180042aac f   njsConnection.obj
 0001:00041ab8       ?dtor$11@?0??DoDefines@Connection@@SAXPEAUeBaton@@@Z@4HA 0000000180042ab8 f   njsConnection.obj
 0001:00041ac4       ?dtor$12@?0??DoDefines@Connection@@SAXPEAUeBaton@@@Z@4HA 0000000180042ac4 f   njsConnection.obj
 0001:00041ad0       ?dtor$13@?0??DoDefines@Connection@@SAXPEAUeBaton@@@Z@4HA 0000000180042ad0 f   njsConnection.obj
 0001:00041adc       ?dtor$14@?0??DoDefines@Connection@@SAXPEAUeBaton@@@Z@4HA 0000000180042adc f   njsConnection.obj
 0001:00041ae8       ?dtor$15@?0??DoDefines@Connection@@SAXPEAUeBaton@@@Z@4HA 0000000180042ae8 f   njsConnection.obj
 0001:00041b00       ?dtor$0@?0??Descr2protoILob@Connection@@CAXPEAUeBaton@@II@Z@4HA 0000000180042b00 f   njsConnection.obj
 0001:00041b1d       ?dtor$1@?0??Descr2protoILob@Connection@@CAXPEAUeBaton@@II@Z@4HA 0000000180042b1d f   njsConnection.obj
 0001:00041b40       ?dtor$0@?0??Async_AfterExecute@Connection@@CAXPEAUuv_work_s@@@Z@4HA 0000000180042b40 f   njsConnection.obj
 0001:00041b4c       ?dtor$1@?0??Async_AfterExecute@Connection@@CAXPEAUuv_work_s@@@Z@4HA 0000000180042b4c f   njsConnection.obj
 0001:00041b60       ?dtor$0@?0??GetMetaData@Connection@@SA?AV?$Local@VValue@v8@@@v8@@PEBUMetaInfo@@I_N@Z@4HA 0000000180042b60 f   njsConnection.obj
 0001:00041b70       ?dtor$0@?0??GetRows@Connection@@SA?AV?$Local@VValue@v8@@@v8@@PEAUeBaton@@@Z@4HA 0000000180042b70 f   njsConnection.obj
 0001:00041b7c       ?dtor$2@?0??GetRows@Connection@@SA?AV?$Local@VValue@v8@@@v8@@PEAUeBaton@@@Z@4HA 0000000180042b7c f   njsConnection.obj
 0001:00041b90       ?dtor$0@?0??GetValueCommon@Connection@@CA?AV?$Local@VValue@v8@@@v8@@PEAUeBaton@@FGPEAXI@Z@4HA 0000000180042b90 f   njsConnection.obj
 0001:00041ba0       ?dtor$0@?0??GetArrayValue@Connection@@CA?AV?$Local@VValue@v8@@@v8@@PEAUeBaton@@PEAUBind@@K@Z@4HA 0000000180042ba0 f   njsConnection.obj
 0001:00041bb0       ?dtor$0@?0??GetOutBindArray@Connection@@CA?AV?$Local@VValue@v8@@@v8@@PEAUeBaton@@@Z@4HA 0000000180042bb0 f   njsConnection.obj
 0001:00041bbc       ?dtor$1@?0??GetOutBindArray@Connection@@CA?AV?$Local@VValue@v8@@@v8@@PEAUeBaton@@@Z@4HA 0000000180042bbc f   njsConnection.obj
 0001:00041bd0       ?dtor$0@?0??GetOutBindObject@Connection@@CA?AV?$Local@VValue@v8@@@v8@@PEAUeBaton@@@Z@4HA 0000000180042bd0 f   njsConnection.obj
 0001:00041bdc       ?dtor$1@?0??GetOutBindObject@Connection@@CA?AV?$Local@VValue@v8@@@v8@@PEAUeBaton@@@Z@4HA 0000000180042bdc f   njsConnection.obj
 0001:00041bf0       ?dtor$0@?0??Release@Connection@@CAXAEBV?$FunctionCallbackInfo@VValue@v8@@@Nan@@@Z@4HA 0000000180042bf0 f   njsConnection.obj
 0001:00041bfc       ?dtor$1@?0??Release@Connection@@CAXAEBV?$FunctionCallbackInfo@VValue@v8@@@Nan@@@Z@4HA 0000000180042bfc f   njsConnection.obj
 0001:00041c08       ?dtor$2@?0??Release@Connection@@CAXAEBV?$FunctionCallbackInfo@VValue@v8@@@Nan@@@Z@4HA 0000000180042c08 f   njsConnection.obj
 0001:00041c14       ?dtor$3@?0??Release@Connection@@CAXAEBV?$FunctionCallbackInfo@VValue@v8@@@Nan@@@Z@4HA 0000000180042c14 f   njsConnection.obj
 0001:00041c20       ?dtor$4@?0??Release@Connection@@CAXAEBV?$FunctionCallbackInfo@VValue@v8@@@Nan@@@Z@4HA 0000000180042c20 f   njsConnection.obj
 0001:00041c3d       ?dtor$5@?0??Release@Connection@@CAXAEBV?$FunctionCallbackInfo@VValue@v8@@@Nan@@@Z@4HA 0000000180042c3d f   njsConnection.obj
 0001:00041c49       ?dtor$6@?0??Release@Connection@@CAXAEBV?$FunctionCallbackInfo@VValue@v8@@@Nan@@@Z@4HA 0000000180042c49 f   njsConnection.obj
 0001:00041c55       ?dtor$7@?0??Release@Connection@@CAXAEBV?$FunctionCallbackInfo@VValue@v8@@@Nan@@@Z@4HA 0000000180042c55 f   njsConnection.obj
 0001:00041c61       ?dtor$8@?0??Release@Connection@@CAXAEBV?$FunctionCallbackInfo@VValue@v8@@@Nan@@@Z@4HA 0000000180042c61 f   njsConnection.obj
 0001:00041c6d       ?dtor$9@?0??Release@Connection@@CAXAEBV?$FunctionCallbackInfo@VValue@v8@@@Nan@@@Z@4HA 0000000180042c6d f   njsConnection.obj
 0001:00041c79       ?dtor$10@?0??Release@Connection@@CAXAEBV?$FunctionCallbackInfo@VValue@v8@@@Nan@@@Z@4HA 0000000180042c79 f   njsConnection.obj
 0001:00041c90       ?dtor$0@?0??Async_Release@Connection@@CAXPEAUuv_work_s@@@Z@4HA 0000000180042c90 f   njsConnection.obj
 0001:00041c9c       ?catch$0@?0??Async_Release@Connection@@CAXPEAUuv_work_s@@@Z@4HA 0000000180042c9c f   njsConnection.obj
 0001:00041cab       __catch$?Async_Release@Connection@@CAXPEAUuv_work_s@@@Z$1 0000000180042cab f   njsConnection.obj
 0001:00041d93       ?dtor$1@?0??Async_Release@Connection@@CAXPEAUuv_work_s@@@Z@4HA 0000000180042d93 f   njsConnection.obj
 0001:00041da0       ?dtor$0@?0??Rollback@Connection@@CAXAEBV?$FunctionCallbackInfo@VValue@v8@@@Nan@@@Z@4HA 0000000180042da0 f   njsConnection.obj
 0001:00041da0       ?dtor$0@?0??Break@Connection@@CAXAEBV?$FunctionCallbackInfo@VValue@v8@@@Nan@@@Z@4HA 0000000180042da0 f   njsConnection.obj
 0001:00041da0       ?dtor$0@?0??Commit@Connection@@CAXAEBV?$FunctionCallbackInfo@VValue@v8@@@Nan@@@Z@4HA 0000000180042da0 f   njsConnection.obj
 0001:00041dac       ?dtor$1@?0??Break@Connection@@CAXAEBV?$FunctionCallbackInfo@VValue@v8@@@Nan@@@Z@4HA 0000000180042dac f   njsConnection.obj
 0001:00041dac       ?dtor$1@?0??Commit@Connection@@CAXAEBV?$FunctionCallbackInfo@VValue@v8@@@Nan@@@Z@4HA 0000000180042dac f   njsConnection.obj
 0001:00041dac       ?dtor$1@?0??Rollback@Connection@@CAXAEBV?$FunctionCallbackInfo@VValue@v8@@@Nan@@@Z@4HA 0000000180042dac f   njsConnection.obj
 0001:00041db8       ?dtor$2@?0??Rollback@Connection@@CAXAEBV?$FunctionCallbackInfo@VValue@v8@@@Nan@@@Z@4HA 0000000180042db8 f   njsConnection.obj
 0001:00041db8       ?dtor$2@?0??Break@Connection@@CAXAEBV?$FunctionCallbackInfo@VValue@v8@@@Nan@@@Z@4HA 0000000180042db8 f   njsConnection.obj
 0001:00041db8       ?dtor$2@?0??Commit@Connection@@CAXAEBV?$FunctionCallbackInfo@VValue@v8@@@Nan@@@Z@4HA 0000000180042db8 f   njsConnection.obj
 0001:00041dc4       ?dtor$3@?0??Commit@Connection@@CAXAEBV?$FunctionCallbackInfo@VValue@v8@@@Nan@@@Z@4HA 0000000180042dc4 f   njsConnection.obj
 0001:00041dc4       ?dtor$3@?0??Break@Connection@@CAXAEBV?$FunctionCallbackInfo@VValue@v8@@@Nan@@@Z@4HA 0000000180042dc4 f   njsConnection.obj
 0001:00041dc4       ?dtor$3@?0??Rollback@Connection@@CAXAEBV?$FunctionCallbackInfo@VValue@v8@@@Nan@@@Z@4HA 0000000180042dc4 f   njsConnection.obj
 0001:00041de1       ?dtor$4@?0??Commit@Connection@@CAXAEBV?$FunctionCallbackInfo@VValue@v8@@@Nan@@@Z@4HA 0000000180042de1 f   njsConnection.obj
 0001:00041de1       ?dtor$4@?0??Rollback@Connection@@CAXAEBV?$FunctionCallbackInfo@VValue@v8@@@Nan@@@Z@4HA 0000000180042de1 f   njsConnection.obj
 0001:00041de1       ?dtor$4@?0??Break@Connection@@CAXAEBV?$FunctionCallbackInfo@VValue@v8@@@Nan@@@Z@4HA 0000000180042de1 f   njsConnection.obj
 0001:00041ded       ?dtor$5@?0??Break@Connection@@CAXAEBV?$FunctionCallbackInfo@VValue@v8@@@Nan@@@Z@4HA 0000000180042ded f   njsConnection.obj
 0001:00041ded       ?dtor$5@?0??Commit@Connection@@CAXAEBV?$FunctionCallbackInfo@VValue@v8@@@Nan@@@Z@4HA 0000000180042ded f   njsConnection.obj
 0001:00041ded       ?dtor$5@?0??Rollback@Connection@@CAXAEBV?$FunctionCallbackInfo@VValue@v8@@@Nan@@@Z@4HA 0000000180042ded f   njsConnection.obj
 0001:00041df9       ?dtor$6@?0??Rollback@Connection@@CAXAEBV?$FunctionCallbackInfo@VValue@v8@@@Nan@@@Z@4HA 0000000180042df9 f   njsConnection.obj
 0001:00041df9       ?dtor$6@?0??Commit@Connection@@CAXAEBV?$FunctionCallbackInfo@VValue@v8@@@Nan@@@Z@4HA 0000000180042df9 f   njsConnection.obj
 0001:00041df9       ?dtor$6@?0??Break@Connection@@CAXAEBV?$FunctionCallbackInfo@VValue@v8@@@Nan@@@Z@4HA 0000000180042df9 f   njsConnection.obj
 0001:00041e10       ?catch$0@?0??Async_Commit@Connection@@CAXPEAUuv_work_s@@@Z@4HA 0000000180042e10 f   njsConnection.obj
 0001:00041e1f       __catch$?Async_Commit@Connection@@CAXPEAUuv_work_s@@@Z$1 0000000180042e1f f   njsConnection.obj
 0001:00041f03       ?dtor$0@?0??Async_Commit@Connection@@CAXPEAUuv_work_s@@@Z@4HA 0000000180042f03 f   njsConnection.obj
 0001:00041f10       ?catch$0@?0??Async_Rollback@Connection@@CAXPEAUuv_work_s@@@Z@4HA 0000000180042f10 f   njsConnection.obj
 0001:00041f1f       __catch$?Async_Rollback@Connection@@CAXPEAUuv_work_s@@@Z$1 0000000180042f1f f   njsConnection.obj
 0001:00042003       ?dtor$0@?0??Async_Rollback@Connection@@CAXPEAUuv_work_s@@@Z@4HA 0000000180043003 f   njsConnection.obj
 0001:00042010       ?catch$0@?0??Async_Break@Connection@@CAXPEAUuv_work_s@@@Z@4HA 0000000180043010 f   njsConnection.obj
 0001:0004201f       __catch$?Async_Break@Connection@@CAXPEAUuv_work_s@@@Z$1 000000018004301f f   njsConnection.obj
 0001:00042103       ?dtor$0@?0??Async_Break@Connection@@CAXPEAUuv_work_s@@@Z@4HA 0000000180043103 f   njsConnection.obj
 0001:00042110       ?dtor$0@?0??cbDynBufferAllocate@Connection@@CAXPEAX_NII@Z@4HA 0000000180043110 f   njsConnection.obj
 0001:0004211c       ?dtor$1@?0??cbDynBufferAllocate@Connection@@CAXPEAX_NII@Z@4HA 000000018004311c f   njsConnection.obj
 0001:00042128       ?dtor$2@?0??cbDynBufferAllocate@Connection@@CAXPEAX_NII@Z@4HA 0000000180043128 f   njsConnection.obj
 0001:00042134       ?dtor$3@?0??cbDynBufferAllocate@Connection@@CAXPEAX_NII@Z@4HA 0000000180043134 f   njsConnection.obj
 0001:00042140       ?dtor$4@?0??cbDynBufferAllocate@Connection@@CAXPEAX_NII@Z@4HA 0000000180043140 f   njsConnection.obj
 0001:0004214c       ?dtor$5@?0??cbDynBufferAllocate@Connection@@CAXPEAX_NII@Z@4HA 000000018004314c f   njsConnection.obj
 0001:00042158       ?dtor$6@?0??cbDynBufferAllocate@Connection@@CAXPEAX_NII@Z@4HA 0000000180043158 f   njsConnection.obj
 0001:00042164       ?dtor$7@?0??cbDynBufferAllocate@Connection@@CAXPEAX_NII@Z@4HA 0000000180043164 f   njsConnection.obj
 0001:00042170       ?dtor$8@?0??cbDynBufferAllocate@Connection@@CAXPEAX_NII@Z@4HA 0000000180043170 f   njsConnection.obj
 0001:0004217c       ?dtor$9@?0??cbDynBufferAllocate@Connection@@CAXPEAX_NII@Z@4HA 000000018004317c f   njsConnection.obj
 0001:00042188       ?dtor$10@?0??cbDynBufferAllocate@Connection@@CAXPEAX_NII@Z@4HA 0000000180043188 f   njsConnection.obj
 0001:00042194       ?dtor$11@?0??cbDynBufferAllocate@Connection@@CAXPEAX_NII@Z@4HA 0000000180043194 f   njsConnection.obj
 0001:000421a0       ?dtor$12@?0??cbDynBufferAllocate@Connection@@CAXPEAX_NII@Z@4HA 00000001800431a0 f   njsConnection.obj
 0001:000421ac       ?dtor$13@?0??cbDynBufferAllocate@Connection@@CAXPEAX_NII@Z@4HA 00000001800431ac f   njsConnection.obj
 0001:000421b8       ?dtor$14@?0??cbDynBufferAllocate@Connection@@CAXPEAX_NII@Z@4HA 00000001800431b8 f   njsConnection.obj
 0001:000421c4       ?dtor$15@?0??cbDynBufferAllocate@Connection@@CAXPEAX_NII@Z@4HA 00000001800431c4 f   njsConnection.obj
 0001:000421d0       ?dtor$16@?0??cbDynBufferAllocate@Connection@@CAXPEAX_NII@Z@4HA 00000001800431d0 f   njsConnection.obj
 0001:000421dc       ?dtor$17@?0??cbDynBufferAllocate@Connection@@CAXPEAX_NII@Z@4HA 00000001800431dc f   njsConnection.obj
 0001:000421e8       ?dtor$18@?0??cbDynBufferAllocate@Connection@@CAXPEAX_NII@Z@4HA 00000001800431e8 f   njsConnection.obj
 0001:00042200       ?dtor$0@?0??NewLob@Connection@@CA?AV?$Local@VValue@v8@@@v8@@PEAUeBaton@@PEAVProtoILob@@@Z@4HA 0000000180043200 f   njsConnection.obj
 0001:00042210       ?dtor$0@?0???0rsBaton@@QEAA@AEAIV?$Local@VFunction@v8@@@v8@@V?$Local@VObject@v8@@@2@2@Z@4HA 0000000180043210 f   njsResultSet.obj
 0001:00042223       ?dtor$1@?0???0rsBaton@@QEAA@AEAIV?$Local@VFunction@v8@@@v8@@V?$Local@VObject@v8@@@2@2@Z@4HA 0000000180043223 f   njsResultSet.obj
 0001:00042236       ?dtor$2@?0???0rsBaton@@QEAA@AEAIV?$Local@VFunction@v8@@@v8@@V?$Local@VObject@v8@@@2@2@Z@4HA 0000000180043236 f   njsResultSet.obj
 0001:00042260       ?dtor$0@?0??setResultSet@ResultSet@@QEAAXPEAVStmt@dpi@@PEAUeBaton@@IPEBUMetaInfo@@@Z@4HA 0000000180043260 f   njsResultSet.obj
 0001:0004229e       ?dtor$1@?0??setResultSet@ResultSet@@QEAAXPEAVStmt@dpi@@PEAUeBaton@@IPEBUMetaInfo@@@Z@4HA 000000018004329e f   njsResultSet.obj
 0001:000422aa       ?dtor$2@?0??setResultSet@ResultSet@@QEAAXPEAVStmt@dpi@@PEAUeBaton@@IPEBUMetaInfo@@@Z@4HA 00000001800432aa f   njsResultSet.obj
 0001:000422b0       ?dtor$0@?0??GetMetaData@ResultSet@@CAXV?$Local@VString@v8@@@v8@@AEBV?$PropertyCallbackInfo@VValue@v8@@@Nan@@@Z@4HA 00000001800432b0 f   njsResultSet.obj
 0001:000422bc       ?dtor$1@?0??GetMetaData@ResultSet@@CAXV?$Local@VString@v8@@@v8@@AEBV?$PropertyCallbackInfo@VValue@v8@@@Nan@@@Z@4HA 00000001800432bc f   njsResultSet.obj
 0001:000422c8       ?dtor$2@?0??GetMetaData@ResultSet@@CAXV?$Local@VString@v8@@@v8@@AEBV?$PropertyCallbackInfo@VValue@v8@@@Nan@@@Z@4HA 00000001800432c8 f   njsResultSet.obj
 0001:000422d4       ?dtor$3@?0??GetMetaData@ResultSet@@CAXV?$Local@VString@v8@@@v8@@AEBV?$PropertyCallbackInfo@VValue@v8@@@Nan@@@Z@4HA 00000001800432d4 f   njsResultSet.obj
 0001:000422e0       ?dtor$0@?0??SetMetaData@ResultSet@@CAXV?$Local@VString@v8@@@v8@@V?$Local@VValue@v8@@@3@AEBV?$PropertyCallbackInfo@X@Nan@@@Z@4HA 00000001800432e0 f   njsResultSet.obj
 0001:000422ec       ?dtor$1@?0??SetMetaData@ResultSet@@CAXV?$Local@VString@v8@@@v8@@V?$Local@VValue@v8@@@3@AEBV?$PropertyCallbackInfo@X@Nan@@@Z@4HA 00000001800432ec f   njsResultSet.obj
 0001:000422f8       ?dtor$2@?0??SetMetaData@ResultSet@@CAXV?$Local@VString@v8@@@v8@@V?$Local@VValue@v8@@@3@AEBV?$PropertyCallbackInfo@X@Nan@@@Z@4HA 00000001800432f8 f   njsResultSet.obj
 0001:00042304       ?dtor$3@?0??SetMetaData@ResultSet@@CAXV?$Local@VString@v8@@@v8@@V?$Local@VValue@v8@@@3@AEBV?$PropertyCallbackInfo@X@Nan@@@Z@4HA 0000000180043304 f   njsResultSet.obj
 0001:00042310       ?dtor$4@?0??SetMetaData@ResultSet@@CAXV?$Local@VString@v8@@@v8@@V?$Local@VValue@v8@@@3@AEBV?$PropertyCallbackInfo@X@Nan@@@Z@4HA 0000000180043310 f   njsResultSet.obj
 0001:00042320       ?dtor$0@?0??GetRow@ResultSet@@CAXAEBV?$FunctionCallbackInfo@VValue@v8@@@Nan@@@Z@4HA 0000000180043320 f   njsResultSet.obj
 0001:0004232c       ?dtor$1@?0??GetRow@ResultSet@@CAXAEBV?$FunctionCallbackInfo@VValue@v8@@@Nan@@@Z@4HA 000000018004332c f   njsResultSet.obj
 0001:00042338       ?dtor$2@?0??GetRow@ResultSet@@CAXAEBV?$FunctionCallbackInfo@VValue@v8@@@Nan@@@Z@4HA 0000000180043338 f   njsResultSet.obj
 0001:00042344       ?dtor$3@?0??GetRow@ResultSet@@CAXAEBV?$FunctionCallbackInfo@VValue@v8@@@Nan@@@Z@4HA 0000000180043344 f   njsResultSet.obj
 0001:00042361       ?dtor$4@?0??GetRow@ResultSet@@CAXAEBV?$FunctionCallbackInfo@VValue@v8@@@Nan@@@Z@4HA 0000000180043361 f   njsResultSet.obj
 0001:0004236d       ?dtor$5@?0??GetRow@ResultSet@@CAXAEBV?$FunctionCallbackInfo@VValue@v8@@@Nan@@@Z@4HA 000000018004336d f   njsResultSet.obj
 0001:00042379       ?dtor$6@?0??GetRow@ResultSet@@CAXAEBV?$FunctionCallbackInfo@VValue@v8@@@Nan@@@Z@4HA 0000000180043379 f   njsResultSet.obj
 0001:00042390       ?dtor$0@?0??GetRows@ResultSet@@CAXAEBV?$FunctionCallbackInfo@VValue@v8@@@Nan@@@Z@4HA 0000000180043390 f   njsResultSet.obj
 0001:0004239c       ?dtor$1@?0??GetRows@ResultSet@@CAXAEBV?$FunctionCallbackInfo@VValue@v8@@@Nan@@@Z@4HA 000000018004339c f   njsResultSet.obj
 0001:000423a8       ?dtor$2@?0??GetRows@ResultSet@@CAXAEBV?$FunctionCallbackInfo@VValue@v8@@@Nan@@@Z@4HA 00000001800433a8 f   njsResultSet.obj
 0001:000423b4       ?dtor$3@?0??GetRows@ResultSet@@CAXAEBV?$FunctionCallbackInfo@VValue@v8@@@Nan@@@Z@4HA 00000001800433b4 f   njsResultSet.obj
 0001:000423d1       ?dtor$4@?0??GetRows@ResultSet@@CAXAEBV?$FunctionCallbackInfo@VValue@v8@@@Nan@@@Z@4HA 00000001800433d1 f   njsResultSet.obj
 0001:000423dd       ?dtor$5@?0??GetRows@ResultSet@@CAXAEBV?$FunctionCallbackInfo@VValue@v8@@@Nan@@@Z@4HA 00000001800433dd f   njsResultSet.obj
 0001:000423e9       ?dtor$6@?0??GetRows@ResultSet@@CAXAEBV?$FunctionCallbackInfo@VValue@v8@@@Nan@@@Z@4HA 00000001800433e9 f   njsResultSet.obj
 0001:000423f5       ?dtor$7@?0??GetRows@ResultSet@@CAXAEBV?$FunctionCallbackInfo@VValue@v8@@@Nan@@@Z@4HA 00000001800433f5 f   njsResultSet.obj
 0001:00042401       ?dtor$8@?0??GetRows@ResultSet@@CAXAEBV?$FunctionCallbackInfo@VValue@v8@@@Nan@@@Z@4HA 0000000180043401 f   njsResultSet.obj
 0001:00042410       ?dtor$0@?0??GetRowsCommon@ResultSet@@CAXPEAUrsBaton@@@Z@4HA 0000000180043410 f   njsResultSet.obj
 0001:0004241c       ?dtor$1@?0??GetRowsCommon@ResultSet@@CAXPEAUrsBaton@@@Z@4HA 000000018004341c f   njsResultSet.obj
 0001:00042430       ?catch$0@?0??Async_GetRows@ResultSet@@CAXPEAUuv_work_s@@@Z@4HA 0000000180043430 f   njsResultSet.obj
 0001:0004243f       __catch$?Async_GetRows@ResultSet@@CAXPEAUuv_work_s@@@Z$4 000000018004343f f   njsResultSet.obj
 0001:00042527       ?dtor$0@?0??Async_GetRows@ResultSet@@CAXPEAUuv_work_s@@@Z@4HA 0000000180043527 f   njsResultSet.obj
 0001:00042540       ?dtor$0@?0??Close@ResultSet@@CAXAEBV?$FunctionCallbackInfo@VValue@v8@@@Nan@@@Z@4HA 0000000180043540 f   njsResultSet.obj
 0001:0004254c       ?dtor$1@?0??Close@ResultSet@@CAXAEBV?$FunctionCallbackInfo@VValue@v8@@@Nan@@@Z@4HA 000000018004354c f   njsResultSet.obj
 0001:00042558       ?dtor$2@?0??Close@ResultSet@@CAXAEBV?$FunctionCallbackInfo@VValue@v8@@@Nan@@@Z@4HA 0000000180043558 f   njsResultSet.obj
 0001:00042564       ?dtor$3@?0??Close@ResultSet@@CAXAEBV?$FunctionCallbackInfo@VValue@v8@@@Nan@@@Z@4HA 0000000180043564 f   njsResultSet.obj
 0001:00042581       ?dtor$4@?0??Close@ResultSet@@CAXAEBV?$FunctionCallbackInfo@VValue@v8@@@Nan@@@Z@4HA 0000000180043581 f   njsResultSet.obj
 0001:0004258d       ?dtor$5@?0??Close@ResultSet@@CAXAEBV?$FunctionCallbackInfo@VValue@v8@@@Nan@@@Z@4HA 000000018004358d f   njsResultSet.obj
 0001:00042599       ?dtor$6@?0??Close@ResultSet@@CAXAEBV?$FunctionCallbackInfo@VValue@v8@@@Nan@@@Z@4HA 0000000180043599 f   njsResultSet.obj
 0001:000425a5       ?dtor$7@?0??Close@ResultSet@@CAXAEBV?$FunctionCallbackInfo@VValue@v8@@@Nan@@@Z@4HA 00000001800435a5 f   njsResultSet.obj
 0001:000425b1       ?dtor$8@?0??Close@ResultSet@@CAXAEBV?$FunctionCallbackInfo@VValue@v8@@@Nan@@@Z@4HA 00000001800435b1 f   njsResultSet.obj
 0001:000425c0       ?catch$0@?0??Async_Close@ResultSet@@CAXPEAUuv_work_s@@@Z@4HA 00000001800435c0 f   njsResultSet.obj
 0001:000425d0       __catch$?Async_Close@ResultSet@@CAXPEAUuv_work_s@@@Z$1 00000001800435d0 f   njsResultSet.obj
 0001:000426b6       ?dtor$0@?0??Async_Close@ResultSet@@CAXPEAUuv_work_s@@@Z@4HA 00000001800436b6 f   njsResultSet.obj
 0001:000426d0       ?dtor$0@?0??getErrorMsg@NJSMessages@@SA?AV?$basic_string@DU?$char_traits@D@std@@V?$allocator@D@2@@std@@W4NJSErrorType@@ZZ@4HA 00000001800436d0 f   njsMessages.obj
 0001:00042700       ?dtor$0@?0???0LobBaton@@QEAA@AEAIV?$Local@VFunction@v8@@@v8@@V?$Local@VObject@v8@@@2@@Z@4HA 0000000180043700 f   njsIntLob.obj
 0001:00042700       ?dtor$0@?0???0LobBaton@@QEAA@AEAIV?$Local@VObject@v8@@@v8@@V?$Local@VFunction@v8@@@2@1@Z@4HA 0000000180043700 f   njsIntLob.obj
 0001:00042713       ?dtor$1@?0???0LobBaton@@QEAA@AEAIV?$Local@VFunction@v8@@@v8@@V?$Local@VObject@v8@@@2@@Z@4HA 0000000180043713 f   njsIntLob.obj
 0001:00042713       ?dtor$1@?0???0LobBaton@@QEAA@AEAIV?$Local@VObject@v8@@@v8@@V?$Local@VFunction@v8@@@2@1@Z@4HA 0000000180043713 f   njsIntLob.obj
 0001:00042726       ?dtor$2@?0???0LobBaton@@QEAA@AEAIV?$Local@VObject@v8@@@v8@@V?$Local@VFunction@v8@@@2@1@Z@4HA 0000000180043726 f   njsIntLob.obj
 0001:00042726       ?dtor$2@?0???0LobBaton@@QEAA@AEAIV?$Local@VFunction@v8@@@v8@@V?$Local@VObject@v8@@@2@@Z@4HA 0000000180043726 f   njsIntLob.obj
 0001:00042739       ?dtor$3@?0???0LobBaton@@QEAA@AEAIV?$Local@VFunction@v8@@@v8@@V?$Local@VObject@v8@@@2@@Z@4HA 0000000180043739 f   njsIntLob.obj
 0001:00042739       ?dtor$3@?0???0LobBaton@@QEAA@AEAIV?$Local@VObject@v8@@@v8@@V?$Local@VFunction@v8@@@2@1@Z@4HA 0000000180043739 f   njsIntLob.obj
 0001:0004274c       ?dtor$4@?0???0LobBaton@@QEAA@AEAIV?$Local@VObject@v8@@@v8@@V?$Local@VFunction@v8@@@2@1@Z@4HA 000000018004374c f   njsIntLob.obj
 0001:0004274c       ?dtor$4@?0???0LobBaton@@QEAA@AEAIV?$Local@VFunction@v8@@@v8@@V?$Local@VObject@v8@@@2@@Z@4HA 000000018004374c f   njsIntLob.obj
 0001:00042760       ?dtor$0@?0???1LobBaton@@QEAA@XZ@4HA 0000000180043760 f   njsIntLob.obj
 0001:00042765       ?dtor$1@?0???1LobBaton@@QEAA@XZ@4HA 0000000180043765 f   njsIntLob.obj
 0001:0004276a       ?dtor$2@?0???1LobBaton@@QEAA@XZ@4HA 000000018004376a f   njsIntLob.obj
 0001:0004276f       ?dtor$3@?0???1LobBaton@@QEAA@XZ@4HA 000000018004376f f   njsIntLob.obj
 0001:00042774       ?dtor$4@?0???1LobBaton@@QEAA@XZ@4HA 0000000180043774 f   njsIntLob.obj
 0001:00042779       ?dtor$5@?0???1LobBaton@@QEAA@XZ@4HA 0000000180043779 f   njsIntLob.obj
 0001:00042780       ?catch$0@?0??setILob@ILob@@QEAAXPEAUeBaton@@PEAVProtoILob@@@Z@4HA 0000000180043780 f   njsIntLob.obj
 0001:0004278f       __catch$?setILob@ILob@@QEAAXPEAUeBaton@@PEAVProtoILob@@@Z$0 000000018004378f f   njsIntLob.obj
 0001:0004287c       ?dtor$0@?0??setILob@ILob@@QEAAXPEAUeBaton@@PEAVProtoILob@@@Z@4HA 000000018004387c f   njsIntLob.obj
 0001:00042890       ?dtor$0@?0??Release@ILob@@CAXAEBV?$FunctionCallbackInfo@VValue@v8@@@Nan@@@Z@4HA 0000000180043890 f   njsIntLob.obj
 0001:0004289c       ?dtor$1@?0??Release@ILob@@CAXAEBV?$FunctionCallbackInfo@VValue@v8@@@Nan@@@Z@4HA 000000018004389c f   njsIntLob.obj
 0001:000428a8       ?dtor$2@?0??Release@ILob@@CAXAEBV?$FunctionCallbackInfo@VValue@v8@@@Nan@@@Z@4HA 00000001800438a8 f   njsIntLob.obj
 0001:000428c0       ?dtor$0@?0??GetChunkSize@ILob@@CAXV?$Local@VString@v8@@@v8@@AEBV?$PropertyCallbackInfo@VValue@v8@@@Nan@@@Z@4HA 00000001800438c0 f   njsIntLob.obj
 0001:000428cc       ?dtor$1@?0??GetChunkSize@ILob@@CAXV?$Local@VString@v8@@@v8@@AEBV?$PropertyCallbackInfo@VValue@v8@@@Nan@@@Z@4HA 00000001800438cc f   njsIntLob.obj
 0001:000428d8       ?dtor$2@?0??GetChunkSize@ILob@@CAXV?$Local@VString@v8@@@v8@@AEBV?$PropertyCallbackInfo@VValue@v8@@@Nan@@@Z@4HA 00000001800438d8 f   njsIntLob.obj
 0001:000428e4       ?catch$0@?0??GetChunkSize@ILob@@CAXV?$Local@VString@v8@@@v8@@AEBV?$PropertyCallbackInfo@VValue@v8@@@Nan@@@Z@4HA 00000001800438e4 f   njsIntLob.obj
 0001:000428f3       __catch$?GetChunkSize@ILob@@CAXV?$Local@VString@v8@@@v8@@AEBV?$PropertyCallbackInfo@VValue@v8@@@Nan@@@Z$0 00000001800438f3 f   njsIntLob.obj
 0001:00042970       ?dtor$0@?0??GetLength@ILob@@CAXV?$Local@VString@v8@@@v8@@AEBV?$PropertyCallbackInfo@VValue@v8@@@Nan@@@Z@4HA 0000000180043970 f   njsIntLob.obj
 0001:0004297c       ?dtor$1@?0??GetLength@ILob@@CAXV?$Local@VString@v8@@@v8@@AEBV?$PropertyCallbackInfo@VValue@v8@@@Nan@@@Z@4HA 000000018004397c f   njsIntLob.obj
 0001:00042988       ?dtor$2@?0??GetLength@ILob@@CAXV?$Local@VString@v8@@@v8@@AEBV?$PropertyCallbackInfo@VValue@v8@@@Nan@@@Z@4HA 0000000180043988 f   njsIntLob.obj
 0001:00042994       ?catch$0@?0??GetLength@ILob@@CAXV?$Local@VString@v8@@@v8@@AEBV?$PropertyCallbackInfo@VValue@v8@@@Nan@@@Z@4HA 0000000180043994 f   njsIntLob.obj
 0001:000429a3       __catch$?GetLength@ILob@@CAXV?$Local@VString@v8@@@v8@@AEBV?$PropertyCallbackInfo@VValue@v8@@@Nan@@@Z$0 00000001800439a3 f   njsIntLob.obj
 0001:00042a20       ?dtor$0@?0??GetPieceSize@ILob@@CAXV?$Local@VString@v8@@@v8@@AEBV?$PropertyCallbackInfo@VValue@v8@@@Nan@@@Z@4HA 0000000180043a20 f   njsIntLob.obj
 0001:00042a2c       ?dtor$1@?0??GetPieceSize@ILob@@CAXV?$Local@VString@v8@@@v8@@AEBV?$PropertyCallbackInfo@VValue@v8@@@Nan@@@Z@4HA 0000000180043a2c f   njsIntLob.obj
 0001:00042a38       ?dtor$2@?0??GetPieceSize@ILob@@CAXV?$Local@VString@v8@@@v8@@AEBV?$PropertyCallbackInfo@VValue@v8@@@Nan@@@Z@4HA 0000000180043a38 f   njsIntLob.obj
 0001:00042a44       ?catch$0@?0??GetPieceSize@ILob@@CAXV?$Local@VString@v8@@@v8@@AEBV?$PropertyCallbackInfo@VValue@v8@@@Nan@@@Z@4HA 0000000180043a44 f   njsIntLob.obj
 0001:00042a53       __catch$?GetPieceSize@ILob@@CAXV?$Local@VString@v8@@@v8@@AEBV?$PropertyCallbackInfo@VValue@v8@@@Nan@@@Z$0 0000000180043a53 f   njsIntLob.obj
 0001:00042ad0       ?dtor$0@?0??SetPieceSize@ILob@@CAXV?$Local@VString@v8@@@v8@@V?$Local@VValue@v8@@@3@AEBV?$PropertyCallbackInfo@X@Nan@@@Z@4HA 0000000180043ad0 f   njsIntLob.obj
 0001:00042adc       ?dtor$1@?0??SetPieceSize@ILob@@CAXV?$Local@VString@v8@@@v8@@V?$Local@VValue@v8@@@3@AEBV?$PropertyCallbackInfo@X@Nan@@@Z@4HA 0000000180043adc f   njsIntLob.obj
 0001:00042ae8       ?dtor$2@?0??SetPieceSize@ILob@@CAXV?$Local@VString@v8@@@v8@@V?$Local@VValue@v8@@@3@AEBV?$PropertyCallbackInfo@X@Nan@@@Z@4HA 0000000180043ae8 f   njsIntLob.obj
 0001:00042af4       ?dtor$3@?0??SetPieceSize@ILob@@CAXV?$Local@VString@v8@@@v8@@V?$Local@VValue@v8@@@3@AEBV?$PropertyCallbackInfo@X@Nan@@@Z@4HA 0000000180043af4 f   njsIntLob.obj
 0001:00042b00       ?dtor$4@?0??SetPieceSize@ILob@@CAXV?$Local@VString@v8@@@v8@@V?$Local@VValue@v8@@@3@AEBV?$PropertyCallbackInfo@X@Nan@@@Z@4HA 0000000180043b00 f   njsIntLob.obj
 0001:00042b0c       ?dtor$5@?0??SetPieceSize@ILob@@CAXV?$Local@VString@v8@@@v8@@V?$Local@VValue@v8@@@3@AEBV?$PropertyCallbackInfo@X@Nan@@@Z@4HA 0000000180043b0c f   njsIntLob.obj
 0001:00042b18       ?catch$0@?0??SetPieceSize@ILob@@CAXV?$Local@VString@v8@@@v8@@V?$Local@VValue@v8@@@3@AEBV?$PropertyCallbackInfo@X@Nan@@@Z@4HA 0000000180043b18 f   njsIntLob.obj
 0001:00042b27       __catch$?SetPieceSize@ILob@@CAXV?$Local@VString@v8@@@v8@@V?$Local@VValue@v8@@@3@AEBV?$PropertyCallbackInfo@X@Nan@@@Z$0 0000000180043b27 f   njsIntLob.obj
 0001:00042bb0       ?dtor$0@?0??GetOffset@ILob@@CAXV?$Local@VString@v8@@@v8@@AEBV?$PropertyCallbackInfo@VValue@v8@@@Nan@@@Z@4HA 0000000180043bb0 f   njsIntLob.obj
 0001:00042bbc       ?dtor$1@?0??GetOffset@ILob@@CAXV?$Local@VString@v8@@@v8@@AEBV?$PropertyCallbackInfo@VValue@v8@@@Nan@@@Z@4HA 0000000180043bbc f   njsIntLob.obj
 0001:00042bc8       ?dtor$2@?0??GetOffset@ILob@@CAXV?$Local@VString@v8@@@v8@@AEBV?$PropertyCallbackInfo@VValue@v8@@@Nan@@@Z@4HA 0000000180043bc8 f   njsIntLob.obj
 0001:00042bd4       ?catch$0@?0??GetOffset@ILob@@CAXV?$Local@VString@v8@@@v8@@AEBV?$PropertyCallbackInfo@VValue@v8@@@Nan@@@Z@4HA 0000000180043bd4 f   njsIntLob.obj
 0001:00042be3       __catch$?GetOffset@ILob@@CAXV?$Local@VString@v8@@@v8@@AEBV?$PropertyCallbackInfo@VValue@v8@@@Nan@@@Z$0 0000000180043be3 f   njsIntLob.obj
 0001:00042c60       ?dtor$0@?0??SetOffset@ILob@@CAXV?$Local@VString@v8@@@v8@@V?$Local@VValue@v8@@@3@AEBV?$PropertyCallbackInfo@X@Nan@@@Z@4HA 0000000180043c60 f   njsIntLob.obj
 0001:00042c6c       ?dtor$1@?0??SetOffset@ILob@@CAXV?$Local@VString@v8@@@v8@@V?$Local@VValue@v8@@@3@AEBV?$PropertyCallbackInfo@X@Nan@@@Z@4HA 0000000180043c6c f   njsIntLob.obj
 0001:00042c78       ?dtor$2@?0??SetOffset@ILob@@CAXV?$Local@VString@v8@@@v8@@V?$Local@VValue@v8@@@3@AEBV?$PropertyCallbackInfo@X@Nan@@@Z@4HA 0000000180043c78 f   njsIntLob.obj
 0001:00042c84       ?dtor$3@?0??SetOffset@ILob@@CAXV?$Local@VString@v8@@@v8@@V?$Local@VValue@v8@@@3@AEBV?$PropertyCallbackInfo@X@Nan@@@Z@4HA 0000000180043c84 f   njsIntLob.obj
 0001:00042c90       ?dtor$4@?0??SetOffset@ILob@@CAXV?$Local@VString@v8@@@v8@@V?$Local@VValue@v8@@@3@AEBV?$PropertyCallbackInfo@X@Nan@@@Z@4HA 0000000180043c90 f   njsIntLob.obj
 0001:00042c9c       ?dtor$5@?0??SetOffset@ILob@@CAXV?$Local@VString@v8@@@v8@@V?$Local@VValue@v8@@@3@AEBV?$PropertyCallbackInfo@X@Nan@@@Z@4HA 0000000180043c9c f   njsIntLob.obj
 0001:00042ca8       ?dtor$6@?0??SetOffset@ILob@@CAXV?$Local@VString@v8@@@v8@@V?$Local@VValue@v8@@@3@AEBV?$PropertyCallbackInfo@X@Nan@@@Z@4HA 0000000180043ca8 f   njsIntLob.obj
 0001:00042cc0       ?dtor$0@?0??GetType@ILob@@CAXV?$Local@VString@v8@@@v8@@AEBV?$PropertyCallbackInfo@VValue@v8@@@Nan@@@Z@4HA 0000000180043cc0 f   njsIntLob.obj
 0001:00042ccc       ?catch$0@?0??GetType@ILob@@CAXV?$Local@VString@v8@@@v8@@AEBV?$PropertyCallbackInfo@VValue@v8@@@Nan@@@Z@4HA 0000000180043ccc f   njsIntLob.obj
 0001:00042cd9       __catch$?GetType@ILob@@CAXV?$Local@VString@v8@@@v8@@AEBV?$PropertyCallbackInfo@VValue@v8@@@Nan@@@Z$0 0000000180043cd9 f   njsIntLob.obj
 0001:00042d20       ?dtor$0@?0??Read@ILob@@CAXAEBV?$FunctionCallbackInfo@VValue@v8@@@Nan@@@Z@4HA 0000000180043d20 f   njsIntLob.obj
 0001:00042d2c       ?dtor$1@?0??Read@ILob@@CAXAEBV?$FunctionCallbackInfo@VValue@v8@@@Nan@@@Z@4HA 0000000180043d2c f   njsIntLob.obj
 0001:00042d38       ?dtor$2@?0??Read@ILob@@CAXAEBV?$FunctionCallbackInfo@VValue@v8@@@Nan@@@Z@4HA 0000000180043d38 f   njsIntLob.obj
 0001:00042d44       ?dtor$3@?0??Read@ILob@@CAXAEBV?$FunctionCallbackInfo@VValue@v8@@@Nan@@@Z@4HA 0000000180043d44 f   njsIntLob.obj
 0001:00042d61       ?dtor$4@?0??Read@ILob@@CAXAEBV?$FunctionCallbackInfo@VValue@v8@@@Nan@@@Z@4HA 0000000180043d61 f   njsIntLob.obj
 0001:00042d6d       ?dtor$5@?0??Read@ILob@@CAXAEBV?$FunctionCallbackInfo@VValue@v8@@@Nan@@@Z@4HA 0000000180043d6d f   njsIntLob.obj
 0001:00042d79       ?dtor$6@?0??Read@ILob@@CAXAEBV?$FunctionCallbackInfo@VValue@v8@@@Nan@@@Z@4HA 0000000180043d79 f   njsIntLob.obj
 0001:00042d85       ?dtor$7@?0??Read@ILob@@CAXAEBV?$FunctionCallbackInfo@VValue@v8@@@Nan@@@Z@4HA 0000000180043d85 f   njsIntLob.obj
 0001:00042da0       ?catch$0@?0??Async_Read@ILob@@CAXPEAUuv_work_s@@@Z@4HA 0000000180043da0 f   njsIntLob.obj
 0001:00042daf       __catch$?Async_Read@ILob@@CAXPEAUuv_work_s@@@Z$1 0000000180043daf f   njsIntLob.obj
 0001:00042ead       ?dtor$0@?0??Async_Read@ILob@@CAXPEAUuv_work_s@@@Z@4HA 0000000180043ead f   njsIntLob.obj
 0001:00042ec0       ?dtor$0@?0??Write@ILob@@CAXAEBV?$FunctionCallbackInfo@VValue@v8@@@Nan@@@Z@4HA 0000000180043ec0 f   njsIntLob.obj
 0001:00042ecc       ?dtor$1@?0??Write@ILob@@CAXAEBV?$FunctionCallbackInfo@VValue@v8@@@Nan@@@Z@4HA 0000000180043ecc f   njsIntLob.obj
 0001:00042ed8       ?dtor$2@?0??Write@ILob@@CAXAEBV?$FunctionCallbackInfo@VValue@v8@@@Nan@@@Z@4HA 0000000180043ed8 f   njsIntLob.obj
 0001:00042ee4       ?dtor$3@?0??Write@ILob@@CAXAEBV?$FunctionCallbackInfo@VValue@v8@@@Nan@@@Z@4HA 0000000180043ee4 f   njsIntLob.obj
 0001:00042f01       ?dtor$4@?0??Write@ILob@@CAXAEBV?$FunctionCallbackInfo@VValue@v8@@@Nan@@@Z@4HA 0000000180043f01 f   njsIntLob.obj
 0001:00042f0d       ?dtor$5@?0??Write@ILob@@CAXAEBV?$FunctionCallbackInfo@VValue@v8@@@Nan@@@Z@4HA 0000000180043f0d f   njsIntLob.obj
 0001:00042f19       ?dtor$6@?0??Write@ILob@@CAXAEBV?$FunctionCallbackInfo@VValue@v8@@@Nan@@@Z@4HA 0000000180043f19 f   njsIntLob.obj
 0001:00042f25       ?dtor$7@?0??Write@ILob@@CAXAEBV?$FunctionCallbackInfo@VValue@v8@@@Nan@@@Z@4HA 0000000180043f25 f   njsIntLob.obj
 0001:00042f40       ?catch$0@?0??Async_Write@ILob@@CAXPEAUuv_work_s@@@Z@4HA 0000000180043f40 f   njsIntLob.obj
 0001:00042f4f       __catch$?Async_Write@ILob@@CAXPEAUuv_work_s@@@Z$1 0000000180043f4f f   njsIntLob.obj
 0001:0004304d       ?dtor$0@?0??Async_Write@ILob@@CAXPEAUuv_work_s@@@Z@4HA 000000018004404d f   njsIntLob.obj
 0001:00043060       ?catch$0@?0???0ProtoILob@@QEAA@PEAUeBaton@@PEAUDescriptor@dpi@@G@Z@4HA 0000000180044060 f   njsIntLob.obj
 0001:0004306f       __catch$??0ProtoILob@@QEAA@PEAUeBaton@@PEAUDescriptor@dpi@@G@Z$0 000000018004406f f   njsIntLob.obj
 0001:00043155       ?dtor$0@?0???0ProtoILob@@QEAA@PEAUeBaton@@PEAUDescriptor@dpi@@G@Z@4HA 0000000180044155 f   njsIntLob.obj
 0001:00043170       ?dtor$0@?0???0EnvImpl@@QEAA@AEBV?$basic_string@DU?$char_traits@D@std@@V?$allocator@D@2@@std@@II@Z@4HA 0000000180044170 f   dpiEnvImpl.obj
 0001:0004317c       ?dtor$1@?0???0EnvImpl@@QEAA@AEBV?$basic_string@DU?$char_traits@D@std@@V?$allocator@D@2@@std@@II@Z@4HA 000000018004417c f   dpiEnvImpl.obj
 0001:0004318c       ?catch$0@?0???0EnvImpl@@QEAA@AEBV?$basic_string@DU?$char_traits@D@std@@V?$allocator@D@2@@std@@II@Z@4HA 000000018004418c f   dpiEnvImpl.obj
 0001:0004319a       __catch$??0EnvImpl@@QEAA@AEBV?$basic_string@DU?$char_traits@D@std@@V?$allocator@D@2@@std@@II@Z$0 000000018004419a f   dpiEnvImpl.obj
 0001:000431d0       ?dtor$0@?0???0ExceptionImpl@@QEAA@AEBV0@@Z@4HA 00000001800441d0 f   dpiEnvImpl.obj
 0001:000431dc       ?dtor$1@?0???0ExceptionImpl@@QEAA@AEBV0@@Z@4HA 00000001800441dc f   dpiEnvImpl.obj
 0001:000431f0       ?dtor$0@?0??createPool@EnvImpl@@UEAAPEAVSPool@dpi@@AEBV?$basic_string@DU?$char_traits@D@std@@V?$allocator@D@2@@std@@00HHHHH_N1@Z@4HA 00000001800441f0 f   dpiEnvImpl.obj
 0001:00043210       ?dtor$0@?0??getConnection@EnvImpl@@UEAAPEAVConn@dpi@@AEBV?$basic_string@DU?$char_traits@D@std@@V?$allocator@D@2@@std@@00H0_NW4DBPrivileges@3@@Z@4HA 0000000180044210 f   dpiEnvImpl.obj
 0001:00043230       ?dtor$0@?0???0ExceptionImpl@@QEAA@W4DpiError@dpi@@@Z@4HA 0000000180044230 f   dpiExceptionImpl.obj
 0001:0004323c       ?dtor$1@?0???0ExceptionImpl@@QEAA@W4DpiError@dpi@@@Z@4HA 000000018004423c f   dpiExceptionImpl.obj
 0001:0004324c       ?dtor$2@?0???0ExceptionImpl@@QEAA@W4DpiError@dpi@@@Z@4HA 000000018004424c f   dpiExceptionImpl.obj
 0001:0004325c       ?dtor$3@?0???0ExceptionImpl@@QEAA@W4DpiError@dpi@@@Z@4HA 000000018004425c f   dpiExceptionImpl.obj
 0001:00043268       ?dtor$4@?0???0ExceptionImpl@@QEAA@W4DpiError@dpi@@@Z@4HA 0000000180044268 f   dpiExceptionImpl.obj
 0001:00043280       ?dtor$0@?0???0ConnImpl@@QEAA@PEAVEnvImpl@@PEAUOCIEnv@@_NIAEBV?$basic_string@DU?$char_traits@D@std@@V?$allocator@D@2@@std@@333W4DBPrivileges@dpi@@@Z@4HA 0000000180044280 f   dpiConnImpl.obj
 0001:0004328c       ?dtor$1@?0???0ConnImpl@@QEAA@PEAVEnvImpl@@PEAUOCIEnv@@_NIAEBV?$basic_string@DU?$char_traits@D@std@@V?$allocator@D@2@@std@@333W4DBPrivileges@dpi@@@Z@4HA 000000018004428c f   dpiConnImpl.obj
 0001:0004329c       ?dtor$2@?0???0ConnImpl@@QEAA@PEAVEnvImpl@@PEAUOCIEnv@@_NIAEBV?$basic_string@DU?$char_traits@D@std@@V?$allocator@D@2@@std@@333W4DBPrivileges@dpi@@@Z@4HA 000000018004429c f   dpiConnImpl.obj
 0001:000432a8       ?catch$0@?0???0ConnImpl@@QEAA@PEAVEnvImpl@@PEAUOCIEnv@@_NIAEBV?$basic_string@DU?$char_traits@D@std@@V?$allocator@D@2@@std@@333W4DBPrivileges@dpi@@@Z@4HA 00000001800442a8 f   dpiConnImpl.obj
 0001:000432b5       __catch$??0ConnImpl@@QEAA@PEAVEnvImpl@@PEAUOCIEnv@@_NIAEBV?$basic_string@DU?$char_traits@D@std@@V?$allocator@D@2@@std@@333W4DBPrivileges@dpi@@@Z$0 00000001800442b5 f   dpiConnImpl.obj
 0001:000432d0       ?dtor$0@?0???0ConnImpl@@QEAA@PEAVPoolImpl@@PEAUOCIEnv@@_NPEAEIAEBV?$basic_string@DU?$char_traits@D@std@@V?$allocator@D@2@@std@@444HW4DBPrivileges@dpi@@@Z@4HA 00000001800442d0 f   dpiConnImpl.obj
 0001:000432dc       ?dtor$1@?0???0ConnImpl@@QEAA@PEAVPoolImpl@@PEAUOCIEnv@@_NPEAEIAEBV?$basic_string@DU?$char_traits@D@std@@V?$allocator@D@2@@std@@444HW4DBPrivileges@dpi@@@Z@4HA 00000001800442dc f   dpiConnImpl.obj
 0001:000432ec       ?catch$0@?0???0ConnImpl@@QEAA@PEAVPoolImpl@@PEAUOCIEnv@@_NPEAEIAEBV?$basic_string@DU?$char_traits@D@std@@V?$allocator@D@2@@std@@444HW4DBPrivileges@dpi@@@Z@4HA 00000001800442ec f   dpiConnImpl.obj
 0001:000432f9       __catch$??0ConnImpl@@QEAA@PEAVPoolImpl@@PEAUOCIEnv@@_NPEAEIAEBV?$basic_string@DU?$char_traits@D@std@@V?$allocator@D@2@@std@@444HW4DBPrivileges@dpi@@@Z$0 00000001800442f9 f   dpiConnImpl.obj
 0001:00043310       ?dtor$0@?0??getStmt@ConnImpl@@UEAAPEAVStmt@dpi@@AEBV?$basic_string@DU?$char_traits@D@std@@V?$allocator@D@2@@std@@@Z@4HA 0000000180044310 f   dpiConnImpl.obj
 0001:00043330       ?dtor$0@?0???0PoolImpl@@QEAA@PEAVEnvImpl@@PEAUOCIEnv@@AEBV?$basic_string@DU?$char_traits@D@std@@V?$allocator@D@2@@std@@22HHHH_NH3@Z@4HA 0000000180044330 f   dpiPoolImpl.obj
 0001:0004333c       ?catch$0@?0???0PoolImpl@@QEAA@PEAVEnvImpl@@PEAUOCIEnv@@AEBV?$basic_string@DU?$char_traits@D@std@@V?$allocator@D@2@@std@@22HHHH_NH3@Z@4HA 000000018004433c f   dpiPoolImpl.obj
 0001:0004334c       __catch$??0PoolImpl@@QEAA@PEAVEnvImpl@@PEAUOCIEnv@@AEBV?$basic_string@DU?$char_traits@D@std@@V?$allocator@D@2@@std@@22HHHH_NH3@Z$0 000000018004434c f   dpiPoolImpl.obj
 0001:00043370       ?dtor$0@?0??getConnection@PoolImpl@@UEAAPEAVConn@dpi@@AEBV?$basic_string@DU?$char_traits@D@std@@V?$allocator@D@2@@std@@000HW4DBPrivileges@3@@Z@4HA 0000000180044370 f   dpiPoolImpl.obj
 0001:00043390       ?dtor$0@?0???0StmtImpl@@QEAA@PEAVEnvImpl@@PEAUOCIEnv@@PEAVConnImpl@@PEAUOCISvcCtx@@AEBV?$basic_string@DU?$char_traits@D@std@@V?$allocator@D@2@@std@@@Z@4HA 0000000180044390 f   dpiStmtImpl.obj
 0001:0004339c       ?catch$0@?0???0StmtImpl@@QEAA@PEAVEnvImpl@@PEAUOCIEnv@@PEAVConnImpl@@PEAUOCISvcCtx@@AEBV?$basic_string@DU?$char_traits@D@std@@V?$allocator@D@2@@std@@@Z@4HA 000000018004439c f   dpiStmtImpl.obj
 0001:000433a9       __catch$??0StmtImpl@@QEAA@PEAVEnvImpl@@PEAUOCIEnv@@PEAVConnImpl@@PEAUOCISvcCtx@@AEBV?$basic_string@DU?$char_traits@D@std@@V?$allocator@D@2@@std@@@Z$0 00000001800443a9 f   dpiStmtImpl.obj
 0001:000433c0       ?dtor$0@?0??ociCallCommon@@YAXHPEAXI@Z@4HA 00000001800443c0 f   dpiUtils.obj
 0001:000433cc       ?dtor$1@?0??ociCallCommon@@YAXHPEAXI@Z@4HA 00000001800443cc f   dpiUtils.obj
 0001:000433dc       ?dtor$0@?0??_Locimp_dtor@_Locimp@locale@std@@CAXPEAV123@@Z@4HA 00000001800443dc f   libcpmt:locale0.obj
 0001:000433dc       ?dtor$0@?0??_Init@locale@std@@CAPEAV_Locimp@12@_N@Z@4HA 00000001800443dc f   libcpmt:locale0.obj
 0001:000433e8       __scrt_is_nonwritable_in_current_image$filt$0 00000001800443e8 f   LIBCMT:utility.obj
 0001:00043400       ?fin$0@?0???_M@YAXPEAX_K1P6AX0@Z@Z@4HA 0000000180044400 f   LIBCMT:ehvecdtr.obj
 0001:0004342c       ?filt$0@?0??__ArrayUnwind@@YAXPEAX_K1P6AX0@Z@Z@4HA 000000018004442c f   LIBCMT:ehvecdtr.obj
 0001:0004346d       ?fin$0@?0???_L@YAXPEAX_K1P6AX0@Z2@Z@4HA 000000018004446d f   LIBCMT:ehvecctr.obj
 0001:00043499       ?fin$0@?0??dllmain_crt_process_attach@@YAHQEAUHINSTANCE__@@QEAX@Z@4HA 0000000180044499 f   LIBCMT:dll_dllmain.obj
 0001:000434b0       ?fin$0@?0??dllmain_crt_process_detach@@YAH_N@Z@4HA 00000001800444b0 f   LIBCMT:dll_dllmain.obj
 0001:000434cc       ?filt$0@?0??dllmain_dispatch@@YAHQEAUHINSTANCE__@@KQEAX@Z@4HA 00000001800444cc f   LIBCMT:dll_dllmain.obj
 0001:00043502       __CxxCallCatchBlock$filt$0 0000000180044502 f   libvcruntime:frame.obj
 0001:00043527       __CxxCallCatchBlock$fin$1  0000000180044527 f   libvcruntime:frame.obj
 0001:0004359f       __DestructExceptionObject$filt$0 000000018004459f f   libvcruntime:frame.obj
 0001:000435b7       __FrameUnwindToState$filt$0 00000001800445b7 f   libvcruntime:frame.obj
 0001:000435cd       __FrameUnwindToState$fin$1 00000001800445cd f   libvcruntime:frame.obj
 0001:000435f0       _CallSETranslator$filt$0   00000001800445f0 f   libvcruntime:trnsctrl.obj
 0001:0004363c       setlocale$fin$0            000000018004463c f   libucrt:setlocale.obj
 0001:00043657       _query_new_handler$fin$0   0000000180044657 f   libucrt:new_handler.obj
 0001:0004366d       ?filt$0@?0??common_exit@@YAXHW4_crt_exit_cleanup_mode@@W4_crt_exit_return_mode@@@Z@4HA 000000018004466d f   libucrt:exit.obj
 0001:00043688       ?fin$1@?0??common_exit@@YAXHW4_crt_exit_cleanup_mode@@W4_crt_exit_return_mode@@@Z@4HA 0000000180044688 f   libucrt:exit.obj
 0001:000436a1       ?fin$0@?0???$?RV<lambda_e24bbb7b643b32fcea6fa61b31d4c984>@@AEAV<lambda_275893d493268fdec8709772e3fcec0e>@@V<lambda_9d71df4d7cf3f480f8d633942495c3b0>@@@?$__crt_seh_guarded_call@H@@QEAAH$$QEAV<lambda_e24bbb7b643b32fcea6fa61b31d4c984>@@AEAV<lambda_275893d493268fdec8709772e3fcec0e>@@$$QEAV<lambda_9d71df4d7cf3f480f8d633942495c3b0>@@@Z@4HA 00000001800446a1 f   libucrt:onexit.obj
 0001:000436be       raise$fin$0                00000001800446be f   libucrt:signal.obj
 0001:000436e2       ?fin$0@?0???$?RV<lambda_99476a1ad63dd22509b5d3e65b0ffc95>@@AEAV<lambda_ad1ced32f4ac17aa236e5ef05d6b3b7c>@@V<lambda_f7424dd8d45958661754dc4f2697e9c3>@@@?$__crt_seh_guarded_call@X@@QEAAX$$QEAV<lambda_99476a1ad63dd22509b5d3e65b0ffc95>@@AEAV<lambda_ad1ced32f4ac17aa236e5ef05d6b3b7c>@@$$QEAV<lambda_f7424dd8d45958661754dc4f2697e9c3>@@@Z@4HA 00000001800446e2 f   libucrt:mbctype.obj
 0001:000436e2       ?fin$0@?0???$?RV<lambda_b8c45f8f788dd370798f47cfe8ac3a86>@@AEAV<lambda_4e60a939b0d047cfe11ddc22648dfba9>@@V<lambda_332c3edc96d0294ec56c57d38c1cdfd5>@@@?$__crt_seh_guarded_call@H@@QEAAH$$QEAV<lambda_b8c45f8f788dd370798f47cfe8ac3a86>@@AEAV<lambda_4e60a939b0d047cfe11ddc22648dfba9>@@$$QEAV<lambda_332c3edc96d0294ec56c57d38c1cdfd5>@@@Z@4HA 00000001800446e2 f   libucrt:onexit.obj
 0001:000436e2       ?fin$0@?0???$?RV<lambda_630b2aca97f6d20d5b5ea6529ea6b6af>@@AEAV<lambda_af91936f1d075d609f72d9d8cba980af>@@V<lambda_e82fa975f615b5c7c7b0e4d178fdae67>@@@?$__crt_seh_guarded_call@H@@QEAAH$$QEAV<lambda_630b2aca97f6d20d5b5ea6529ea6b6af>@@AEAV<lambda_af91936f1d075d609f72d9d8cba980af>@@$$QEAV<lambda_e82fa975f615b5c7c7b0e4d178fdae67>@@@Z@4HA 00000001800446e2 f   libucrt:winapi_thunks.obj
 0001:000436e2       ?fin$0@?0???$?RV<lambda_46352004c1216016012b18bd6f87e700>@@AEAV<lambda_3bd07e1a1191394380780325891bf33f>@@V<lambda_334532d3f185bcaa59b5be82d7d22bff>@@@?$__crt_seh_guarded_call@X@@QEAAX$$QEAV<lambda_46352004c1216016012b18bd6f87e700>@@AEAV<lambda_3bd07e1a1191394380780325891bf33f>@@$$QEAV<lambda_334532d3f185bcaa59b5be82d7d22bff>@@@Z@4HA 00000001800446e2 f   libucrt:per_thread_data.obj
 0001:000436e2       ?fin$0@?0???$?RV<lambda_d67e8342c384adda8f857579ab50b2ae>@@AEAV<lambda_30712929f77e709619002f448b6a9510>@@V<lambda_4525336fd7e478d965fb7ca7a337cad8>@@@?$__crt_seh_guarded_call@X@@QEAAX$$QEAV<lambda_d67e8342c384adda8f857579ab50b2ae>@@AEAV<lambda_30712929f77e709619002f448b6a9510>@@$$QEAV<lambda_4525336fd7e478d965fb7ca7a337cad8>@@@Z@4HA 00000001800446e2 f   libucrt:wsetlocale.obj
 0001:000436e2       ?fin$0@?0???$?RV<lambda_5e887d1dcbef67a5eb4283622ba103bf>@@AEAV<lambda_4466841279450cc726390878d4a41900>@@V<lambda_341c25c0346d94847f1f3c463c57e077>@@@?$__crt_seh_guarded_call@X@@QEAAX$$QEAV<lambda_5e887d1dcbef67a5eb4283622ba103bf>@@AEAV<lambda_4466841279450cc726390878d4a41900>@@$$QEAV<lambda_341c25c0346d94847f1f3c463c57e077>@@@Z@4HA 00000001800446e2 f   libucrt:per_thread_data.obj
 0001:000436e2       ?fin$0@?0???$?RV<lambda_c36588078e9f5dfd39652860aa6b3aaf>@@AEAV<lambda_ec61778202f4f5fc7e7711acc23c3bca>@@V<lambda_dc9d2797ccde5d239b4a0efae8ebd7db>@@@?$__crt_seh_guarded_call@P6AXH@Z@@QEAAP6AXH@Z$$QEAV<lambda_c36588078e9f5dfd39652860aa6b3aaf>@@AEAV<lambda_ec61778202f4f5fc7e7711acc23c3bca>@@$$QEAV<lambda_dc9d2797ccde5d239b4a0efae8ebd7db>@@@Z@4HA 00000001800446e2 f   libucrt:signal.obj
 0001:000436e2       ?fin$0@?0???$?RV<lambda_72d1df2b273a38828b1ce30cbf4cdab5>@@AEAV<lambda_876a65b173b8412d3a47c70a915b0cf4>@@V<lambda_41932305e351933ebe8f8be3ed8bb5dc>@@@?$__crt_seh_guarded_call@X@@QEAAX$$QEAV<lambda_72d1df2b273a38828b1ce30cbf4cdab5>@@AEAV<lambda_876a65b173b8412d3a47c70a915b0cf4>@@$$QEAV<lambda_41932305e351933ebe8f8be3ed8bb5dc>@@@Z@4HA 00000001800446e2 f   libucrt:per_thread_data.obj
 0001:000436e2       ?fin$0@?0???$?RV<lambda_fb3a7dec4e47f37f22dae91bb15c9095>@@AEAV<lambda_698284760c8add0bfb0756c19673e34b>@@V<lambda_dfb8eca1e75fef3034a8fb18dd509707>@@@?$__crt_seh_guarded_call@X@@QEAAX$$QEAV<lambda_fb3a7dec4e47f37f22dae91bb15c9095>@@AEAV<lambda_698284760c8add0bfb0756c19673e34b>@@$$QEAV<lambda_dfb8eca1e75fef3034a8fb18dd509707>@@@Z@4HA 00000001800446e2 f   libucrt:per_thread_data.obj
 0001:000436fc       ?fin$0@?0???$?RV<lambda_5df02c53a8f32f81fd64e5bbb78039f1>@@AEAV<lambda_2af78c5f5901b1372d98f9ab3177dfa6>@@AEAV<lambda_f51fe5fd7c79a33db34fc9310f277369>@@@?$__crt_seh_guarded_call@X@@QEAAX$$QEAV<lambda_5df02c53a8f32f81fd64e5bbb78039f1>@@AEAV<lambda_2af78c5f5901b1372d98f9ab3177dfa6>@@AEAV<lambda_f51fe5fd7c79a33db34fc9310f277369>@@@Z@4HA 00000001800446fc f   libucrt:wsetlocale.obj
 0001:0004371d       __acrt_update_thread_locale_data$fin$0 000000018004471d f   libucrt:locale_refcounting.obj
 0001:0004371d       __acrt_uninitialize_locale$fin$0 000000018004471d f   libucrt:wsetlocale.obj
 0001:00043736       __acrt_lowio_ensure_fh_exists$fin$0 0000000180044736 f   libucrt:osfinfo.obj
 0001:00043736       __acrt_initialize_lowio$fin$0 0000000180044736 f   libucrt:ioinit.obj
 0001:0004374f       common_flush_all$fin$0     000000018004474f f   libucrt:fflush.obj
 0001:00043769       common_flush_all$fin$1     0000000180044769 f   libucrt:fflush.obj
 0001:00043782       ?fin$0@?0???$?RV<lambda_7a5ef57ff966f610505f1d28a3d40618>@@AEAV<lambda_b721fa326cdb32351d23dfa67958c160>@@V<lambda_5e0fb27672408a07956fe59e48ccb2aa>@@@?$__crt_seh_guarded_call@H@@QEAAH$$QEAV<lambda_7a5ef57ff966f610505f1d28a3d40618>@@AEAV<lambda_b721fa326cdb32351d23dfa67958c160>@@$$QEAV<lambda_5e0fb27672408a07956fe59e48ccb2aa>@@@Z@4HA 0000000180044782 f   libucrt:setvbuf.obj
 0001:00043782       ?fin$0@?0???$?RV<lambda_7b91131dde12e1c3dfc74ff76b3f2eac>@@AEAV<lambda_dd75445284c072d0bd3768540cc698fa>@@V<lambda_16bc4ecb55b4718497c16bceaea2ceaf>@@@?$__crt_seh_guarded_call@H@@QEAAH$$QEAV<lambda_7b91131dde12e1c3dfc74ff76b3f2eac>@@AEAV<lambda_dd75445284c072d0bd3768540cc698fa>@@$$QEAV<lambda_16bc4ecb55b4718497c16bceaea2ceaf>@@@Z@4HA 0000000180044782 f   libucrt:output.obj
 0001:0004379d       __acrt_update_thread_multibyte_data$fin$0 000000018004479d f   libucrt:mbctype.obj
 0001:000437b6       _fcloseall$fin$0           00000001800447b6 f   libucrt:closeall.obj
 0001:000437cf       ?fin$0@?0???$common_lseek@_J@@YA_JH_JH@Z@4HA 00000001800447cf f   libucrt:lseek.obj
 0001:000437cf       _write$fin$0               00000001800447cf f   libucrt:write.obj
 0001:000437e6       fflush$fin$0               00000001800447e6 f   libucrt:fflush.obj
 0001:000437e6       fclose$fin$0               00000001800447e6 f   libucrt:fclose.obj
 0001:000437fe       common_control87$filt$0    00000001800447fe f   libucrt:ieee.obj
 0001:000437fe       _ctrlfp$filt$0             00000001800447fe f   libucrt:fpctrl.obj
 0001:0004382a       ?fin$0@?0???$?RV<lambda_b521505b218e5242e90febf6bfebc422>@@AEAV<lambda_6978c1fb23f02e42e1d9e99668cc68aa>@@V<lambda_314360699dd331753a4119843814e9a7>@@@?$__crt_seh_guarded_call@H@@QEAAH$$QEAV<lambda_b521505b218e5242e90febf6bfebc422>@@AEAV<lambda_6978c1fb23f02e42e1d9e99668cc68aa>@@$$QEAV<lambda_314360699dd331753a4119843814e9a7>@@@Z@4HA 000000018004482a f   libucrt:commit.obj
 0001:0004382a       ?fin$0@?0???$?RV<lambda_bfedae4ebbf01fab1bb6dcc6a9e276e0>@@AEAV<lambda_2fe9b910cf3cbf4a0ab98a02ba45b3ec>@@V<lambda_237c231691f317818eb88cc1d5d642d6>@@@?$__crt_seh_guarded_call@H@@QEAAH$$QEAV<lambda_bfedae4ebbf01fab1bb6dcc6a9e276e0>@@AEAV<lambda_2fe9b910cf3cbf4a0ab98a02ba45b3ec>@@$$QEAV<lambda_237c231691f317818eb88cc1d5d642d6>@@@Z@4HA 000000018004482a f   libucrt:close.obj
 0001:00043850       _IsNonwritableInCurrentImage$filt$0 0000000180044850 f   LIBCMT:pesect.obj
 0001:00043870       ??__F?oracledbTemplate_s@Oracledb@@0V?$Persistent@VFunctionTemplate@v8@@V?$NonCopyablePersistentTraits@VFunctionTemplate@v8@@@2@@Nan@@A@@YAXXZ 0000000180044870 f   njsOracle.obj
 0001:000438a0       ??__F?poolTemplate_s@Pool@@2V?$Persistent@VFunctionTemplate@v8@@V?$NonCopyablePersistentTraits@VFunctionTemplate@v8@@@2@@Nan@@A@@YAXXZ 00000001800448a0 f   njsPool.obj
 0001:000438c0       ??__F?connectionTemplate_s@Connection@@2V?$Persistent@VFunctionTemplate@v8@@V?$NonCopyablePersistentTraits@VFunctionTemplate@v8@@@2@@Nan@@A@@YAXXZ 00000001800448c0 f   njsConnection.obj
 0001:000438e0       ??__F?resultSetTemplate_s@ResultSet@@2V?$Persistent@VFunctionTemplate@v8@@V?$NonCopyablePersistentTraits@VFunctionTemplate@v8@@@2@@Nan@@A@@YAXXZ 00000001800448e0 f   njsResultSet.obj
 0001:00043900       ??__F?iLobTemplate_s@ILob@@2V?$Persistent@VFunctionTemplate@v8@@V?$NonCopyablePersistentTraits@VFunctionTemplate@v8@@@2@@Nan@@A@@YAXXZ 0000000180044900 f   njsIntLob.obj
 0001:00043914       ??__Finitlocks@std@@YAXXZ  0000000180044914 f   libcpmt:xlock.obj
 0001:00043920       ??__F_Fac_tidy_reg@std@@YAXXZ 0000000180044920 f   libcpmt:locale0.obj
 0001:0004394c       ??__Fclassic_locale@std@@YAXXZ 000000018004494c f   libcpmt:locale0.obj
 0001:000439ac       ??__Finit_atexit@@YAXXZ    00000001800449ac f   libcpmt:iosptrs.obj
 0001:00043a00       ??__Finitlocks@std@@YAXXZ  0000000180044a00 f   libcpmt:iosptrs.obj
 0002:000003e8       ?initlocks$initializer$@std@@3P6AXXZEA 00000001800453e8     libcpmt:xlock.obj
 0002:000003f0       ?initlocks$initializer$@std@@3P6AXXZEA 00000001800453f0     libcpmt:iosptrs.obj
 0002:000003f8       ?init_atexit$initializer$@@3P6AXXZEA 00000001800453f8     libcpmt:iosptrs.obj
 0002:00000400       ?_Fac_tidy_reg$initializer$@std@@3P6AXXZEA 0000000180045400     libcpmt:locale0.obj
 0002:00000408       ?classic_locale$initializer$@std@@3P6AXXZEA 0000000180045408     libcpmt:locale0.obj
 0002:00000418       ??oracledbTemplate_s$initializer$@Oracledb@@0P6AXXZEA@@3P6AXXZEA 0000000180045418     njsOracle.obj
 0002:00000420       ??poolTemplate_s$initializer$@Pool@@2P6AXXZEA@@3P6AXXZEA 0000000180045420     njsPool.obj
 0002:00000428       ??connectionTemplate_s$initializer$@Connection@@2P6AXXZEA@@3P6AXXZEA 0000000180045428     njsConnection.obj
 0002:00000430       ??resultSetTemplate_s$initializer$@ResultSet@@2P6AXXZEA@@3P6AXXZEA 0000000180045430     njsResultSet.obj
 0002:00000438       ??iLobTemplate_s$initializer$@ILob@@2P6AXXZEA@@3P6AXXZEA 0000000180045438     njsIntLob.obj
 0002:00000450       ?pinit@@3P6AHXZEA          0000000180045450     libcpmt:winapisupp.obj
 0002:00000458       ?__scrt_initialize_tss_var@@3P6AHXZEA 0000000180045458     LIBCMT:thread_safe_statics.obj
 0002:000004e0       $cppxdata$??_G_Fac_node@std@@QEAAPEAXI@Z 00000001800454e0     libcpmt:locale0.obj
 0002:00000508       $cppxdata$?_Locimp_dtor@_Locimp@locale@std@@CAXPEAV123@@Z 0000000180045508     libcpmt:locale0.obj
 0002:00000530       $cppxdata$??_G_Locimp@locale@std@@MEAAPEAXI@Z 0000000180045530     libcpmt:locale0.obj
 0002:00000558       $cppxdata$?_Init@locale@std@@CAPEAV_Locimp@12@_N@Z 0000000180045558     libcpmt:locale0.obj
 0002:00000580       $cppxdata$??__Fclassic_locale@std@@YAXXZ 0000000180045580     libcpmt:locale0.obj
 0002:000006b0       ?_Win_errtab@std@@3QBU_Win_errtab_t@1@B 00000001800456b0     libcpmt:syserror.obj
 0002:00000900       ?_Sys_errtab@std@@3QBU_Sys_errtab_t@1@B 0000000180045900     libcpmt:syserror.obj
 0002:000014a0       $cppxdata$??__Finit_atexit@@YAXXZ 00000001800464a0     libcpmt:iosptrs.obj
 0002:000019e0       digits                     00000001800469e0     libcpmt:xstoul.obj
 0002:00001a08       ndigs                      0000000180046a08     libcpmt:xstoul.obj
 0002:00001a30       digits                     0000000180046a30     libcpmt:xstoull.obj
 0002:00001a58       ndigs                      0000000180046a58     libcpmt:xstoull.obj
 0002:00002220       ?LcidToLocaleNameTable@@3QBULcidToLocaleName@@B 0000000180047220     libcpmt:winapinls.obj
 0002:00003060       ?LocaleNameToIndexTable@@3QBULocaleNameIndex@@B 0000000180048060     libcpmt:winapinls.obj
 0002:00004dc0       ?digits@?1??_Stoxflt@@9@9  0000000180049dc0     libcpmt:xstoxflt.obj
 0002:00004dd8       ?vals@?1??_Stoxflt@@9@9    0000000180049dd8     libcpmt:xstoxflt.obj
 0002:00004df0       tenth                      0000000180049df0     libcpmt:xfdtento.obj
 0002:00004e08       tenth                      0000000180049e08     libcpmt:xdtento.obj
 0002:00004e28       tenth                      0000000180049e28     libcpmt:xldtento.obj
 0002:00004e48       ?mask@?3??_FDint@@9@9      0000000180049e48     libcpmt:xfdint.obj
 0002:00004e68       ?sub@?3??_FDint@@9@9       0000000180049e68     libcpmt:xfdint.obj
 0002:00004e78       ?mask@?3??_Dint@@9@9       0000000180049e78     libcpmt:xdint.obj
 0002:00004e98       ?sub@?3??_Dint@@9@9        0000000180049e98     libcpmt:xdint.obj
 0002:00004ec8       GS_ExceptionPointers       0000000180049ec8     LIBCMT:gs_report.obj
 0002:00004f40       ?ExceptionTemplate@?1??_UnwindNestedFrames@@9@4U_EXCEPTION_RECORD@@B 0000000180049f40     libvcruntime:trnsctrl.obj
 0002:00004fe0       ?ExceptionTemplate@?1??_CxxThrowException@@9@4UEHExceptionRecord@@B 0000000180049fe0     libvcruntime:throw.obj
 0002:00005020       ?module_names@?A0x61ce2399@@3QBQEB_WB 000000018004a020     libvcruntime:winapi_downlevel.obj
 0002:000050ec       ?candidate_modules@?1??try_get_EventRegister@@YAP6AKPEBU_GUID@@P6AX0KE_K1PEAU_EVENT_FILTER_DESCRIPTOR@@PEAX@Z3PEA_K@ZXZ@4QBW4module_id@?A0x61ce2399@@B 000000018004a0ec     libvcruntime:winapi_downlevel.obj
 0002:00005100       ?candidate_modules@?1??try_get_EventSetInformation@@YAP6AK_KW4_EVENT_INFO_CLASS@@PEAXK@ZXZ@4QBW4module_id@?A0x61ce2399@@B 000000018004a100     libvcruntime:winapi_downlevel.obj
 0002:0000511c       ?candidate_modules@?1??try_get_EventUnregister@@YAP6AK_K@ZXZ@4QBW4module_id@?A0x61ce2399@@B 000000018004a11c     libvcruntime:winapi_downlevel.obj
 0002:00005130       ?candidate_modules@?1??try_get_EventWriteTransfer@@YAP6AK_KPEBU_EVENT_DESCRIPTOR@@PEBU_GUID@@2KPEAU_EVENT_DATA_DESCRIPTOR@@@ZXZ@4QBW4module_id@?A0x61ce2399@@B 000000018004a130     libvcruntime:winapi_downlevel.obj
 0002:00005150       ?candidate_modules@?1??try_get_FlsAlloc@@YAP6AKP6AXPEAX@Z@ZXZ@4QBW4module_id@?A0x61ce2399@@B 000000018004a150     libvcruntime:winapi_downlevel.obj
 0002:00005158       ?candidate_modules@?1??try_get_FlsFree@@YAP6AHK@ZXZ@4QBW4module_id@?A0x61ce2399@@B 000000018004a158     libvcruntime:winapi_downlevel.obj
 0002:00005160       ?candidate_modules@?1??try_get_FlsGetValue@@YAP6APEAXK@ZXZ@4QBW4module_id@?A0x61ce2399@@B 000000018004a160     libvcruntime:winapi_downlevel.obj
 0002:00005168       ?candidate_modules@?1??try_get_FlsSetValue@@YAP6AHKPEAX@ZXZ@4QBW4module_id@?A0x61ce2399@@B 000000018004a168     libvcruntime:winapi_downlevel.obj
 0002:00005170       ?candidate_modules@?1??try_get_InitializeCriticalSectionEx@@YAP6AHPEAU_RTL_CRITICAL_SECTION@@KK@ZXZ@4QBW4module_id@?A0x61ce2399@@B 000000018004a170     libvcruntime:winapi_downlevel.obj
 0002:00005660       ?rttiTable@@3QBQEBDB       000000018004a660     libvcruntime:undname.obj
 0002:00005690       ?tokenTable@@3QBQEBDB      000000018004a690     libvcruntime:undname.obj
 0002:00005700       ?nameTable@@3QBQEBDB       000000018004a700     libvcruntime:undname.obj
 0002:000066f0       errtable                   000000018004b6f0     libucrt:errno.obj
 0002:00006960       __acrt_initializers        000000018004b960     libucrt:initialization.obj
 0002:00006bc0       _first_127char             000000018004bbc0     libucrt:wsetlocale.obj
 0002:000072e0       ?_names@?1??_get_fname@@9@9 000000018004c2e0     libucrt:fpexcept.obj
 0002:00007590       module_names               000000018004c590     libucrt:winapi_thunks.obj
 0002:00007ac0       ?candidate_modules@?1??try_get_CompareStringEx@@YAP6AHPEB_WK0H0HPEAU_nlsversioninfo@@PEAX_J@ZXZ@4QBW4module_id@?A0x63058377@@B 000000018004cac0     libucrt:winapi_thunks.obj
 0002:00007ac8       ?candidate_modules@?1??try_get_EnumSystemLocalesEx@@YAP6AHP6AHPEA_WK_J@ZK1PEAX@ZXZ@4QBW4module_id@?A0x63058377@@B 000000018004cac8     libucrt:winapi_thunks.obj
 0002:00007ae8       ?candidate_modules@?1??try_get_FlsAlloc@@YAP6AKP6AXPEAX@Z@ZXZ@4QBW4module_id@?A0x63058377@@B 000000018004cae8     libucrt:winapi_thunks.obj
 0002:00007af0       ?candidate_modules@?1??try_get_FlsFree@@YAP6AHK@ZXZ@4QBW4module_id@?A0x63058377@@B 000000018004caf0     libucrt:winapi_thunks.obj
 0002:00007af8       ?candidate_modules@?1??try_get_FlsGetValue@@YAP6APEAXK@ZXZ@4QBW4module_id@?A0x63058377@@B 000000018004caf8     libucrt:winapi_thunks.obj
 0002:00007b00       ?candidate_modules@?1??try_get_FlsSetValue@@YAP6AHKPEAX@ZXZ@4QBW4module_id@?A0x63058377@@B 000000018004cb00     libucrt:winapi_thunks.obj
 0002:00007b08       ?candidate_modules@?1??try_get_GetActiveWindow@@YAP6APEAUHWND__@@XZXZ@4QBW4module_id@?A0x63058377@@B 000000018004cb08     libucrt:winapi_thunks.obj
 0002:00007b20       ?candidate_modules@?1??try_get_GetCurrentPackageId@@YAP6AJPEAIPEAE@ZXZ@4QBW4module_id@?A0x63058377@@B 000000018004cb20     libucrt:winapi_thunks.obj
 0002:00007b28       ?candidate_modules@?1??try_get_GetLastActivePopup@@YAP6APEAUHWND__@@PEAU2@@ZXZ@4QBW4module_id@?A0x63058377@@B 000000018004cb28     libucrt:winapi_thunks.obj
 0002:00007b48       ?candidate_modules@?1??try_get_GetLocaleInfoEx@@YAP6AHPEB_WKPEA_WH@ZXZ@4QBW4module_id@?A0x63058377@@B 000000018004cb48     libucrt:winapi_thunks.obj
 0002:00007b50       ?candidate_modules@?1??try_get_GetProcessWindowStation@@YAP6APEAUHWINSTA__@@XZXZ@4QBW4module_id@?A0x63058377@@B 000000018004cb50     libucrt:winapi_thunks.obj
 0002:00007b70       ?candidate_modules@?1??try_get_GetUserDefaultLocaleName@@YAP6AHPEA_WH@ZXZ@4QBW4module_id@?A0x63058377@@B 000000018004cb70     libucrt:winapi_thunks.obj
 0002:00007b98       ?candidate_modules@?1??try_get_GetUserObjectInformationW@@YAP6AHPEAXH0KPEAK@ZXZ@4QBW4module_id@?A0x63058377@@B 000000018004cb98     libucrt:winapi_thunks.obj
 0002:00007bc0       ?candidate_modules@?1??try_get_InitializeCriticalSectionEx@@YAP6AHPEAU_RTL_CRITICAL_SECTION@@KK@ZXZ@4QBW4module_id@?A0x63058377@@B 000000018004cbc0     libucrt:winapi_thunks.obj
 0002:00007bc8       ?candidate_modules@?1??try_get_IsValidLocaleName@@YAP6AHPEB_W@ZXZ@4QBW4module_id@?A0x63058377@@B 000000018004cbc8     libucrt:winapi_thunks.obj
 0002:00007be8       ?candidate_modules@?1??try_get_LCMapStringEx@@YAP6AHPEB_WK0HPEA_WHPEAU_nlsversioninfo@@PEAX_J@ZXZ@4QBW4module_id@?A0x63058377@@B 000000018004cbe8     libucrt:winapi_thunks.obj
 0002:00007bf0       ?candidate_modules@?1??try_get_LCIDToLocaleName@@YAP6AHKPEA_WHK@ZXZ@4QBW4module_id@?A0x63058377@@B 000000018004cbf0     libucrt:winapi_thunks.obj
 0002:00007c10       ?candidate_modules@?1??try_get_LocaleNameToLCID@@YAP6AKPEB_WK@ZXZ@4QBW4module_id@?A0x63058377@@B 000000018004cc10     libucrt:winapi_thunks.obj
 0002:00007c30       ?candidate_modules@?1??try_get_MessageBoxA@@YAP6AHPEAUHWND__@@PEBD1I@ZXZ@4QBW4module_id@?A0x63058377@@B 000000018004cc30     libucrt:winapi_thunks.obj
 0002:00007c48       ?candidate_modules@?1??try_get_MessageBoxW@@YAP6AHPEAUHWND__@@PEB_W1I@ZXZ@4QBW4module_id@?A0x63058377@@B 000000018004cc48     libucrt:winapi_thunks.obj
 0002:00007c60       _mb_locale_names           000000018004cc60     libucrt:mbctype.obj
 0002:00009640       __real@433fffffffffffff    000000018004e640     libucrt:fpsr.obj
 0002:00009648       __real@c33fffffffffffff    000000018004e648     libucrt:fpsr.obj
 0002:00009650       LcidToLocaleNameTable      000000018004e650     libucrt:lcidtoname_downlevel.obj
 0002:0000a490       LocaleNameToIndexTable     000000018004f490     libucrt:lcidtoname_downlevel.obj
 0002:0000b2d0       __real_ninf                00000001800502d0     libucrt:log10.obj
 0002:0000b2e0       __real_inf                 00000001800502e0     libucrt:log10.obj
 0002:0000b2f0       __real_neg_qnan            00000001800502f0     libucrt:log10.obj
 0002:0000b300       __real_qnanbit             0000000180050300     libucrt:log10.obj
 0002:0000b310       __int_1023                 0000000180050310     libucrt:log10.obj
 0002:0000b320       __mask_001                 0000000180050320     libucrt:log10.obj
 0002:0000b330       __mask_mant                0000000180050330     libucrt:log10.obj
 0002:0000b340       __mask_mant_top8           0000000180050340     libucrt:log10.obj
 0002:0000b350       __mask_mant9               0000000180050350     libucrt:log10.obj
 0002:0000b360       __real_log10_e             0000000180050360     libucrt:log10.obj
 0002:0000b370       __real_log10_e_lead        0000000180050370     libucrt:log10.obj
 0002:0000b380       __real_log10_e_tail        0000000180050380     libucrt:log10.obj
 0002:0000b390       __real_log10_2_lead        0000000180050390     libucrt:log10.obj
 0002:0000b3a0       __real_log10_2_tail        00000001800503a0     libucrt:log10.obj
 0002:0000b3b0       __real_two                 00000001800503b0     libucrt:log10.obj
 0002:0000b3c0       __real_one                 00000001800503c0     libucrt:log10.obj
 0002:0000b3d0       __real_half                00000001800503d0     libucrt:log10.obj
 0002:0000b3e0       __mask_100                 00000001800503e0     libucrt:log10.obj
 0002:0000b3f0       __real_1_over_512          00000001800503f0     libucrt:log10.obj
 0002:0000b400       __real_1_over_2            0000000180050400     libucrt:log10.obj
 0002:0000b410       __real_1_over_3            0000000180050410     libucrt:log10.obj
 0002:0000b420       __real_1_over_4            0000000180050420     libucrt:log10.obj
 0002:0000b430       __real_1_over_5            0000000180050430     libucrt:log10.obj
 0002:0000b440       __real_1_over_6            0000000180050440     libucrt:log10.obj
 0002:0000b450       __real_neg_1023            0000000180050450     libucrt:log10.obj
 0002:0000b460       __mask_2045                0000000180050460     libucrt:log10.obj
 0002:0000b470       __real_threshold           0000000180050470     libucrt:log10.obj
 0002:0000b480       __real_near_one_lt         0000000180050480     libucrt:log10.obj
 0002:0000b490       __real_near_one_gt         0000000180050490     libucrt:log10.obj
 0002:0000b4a0       __real_min_norm            00000001800504a0     libucrt:log10.obj
 0002:0000b4b0       __real_notsign             00000001800504b0     libucrt:log10.obj
 0002:0000b4c0       __real_ca1                 00000001800504c0     libucrt:log10.obj
 0002:0000b4d0       __real_ca2                 00000001800504d0     libucrt:log10.obj
 0002:0000b4e0       __real_ca3                 00000001800504e0     libucrt:log10.obj
 0002:0000b4f0       __real_ca4                 00000001800504f0     libucrt:log10.obj
 0002:0000b500       __mask_lower               0000000180050500     libucrt:log10.obj
 0002:0000b510       __flag_x_zero              0000000180050510     libucrt:log10.obj
 0002:0000b514       __flag_x_neg               0000000180050514     libucrt:log10.obj
 0002:0000b518       __flag_x_nan               0000000180050518     libucrt:log10.obj
 0002:0000e2a0       ?errMsg@@3PAPEBDA          00000001800532a0     njsMessages.obj
 0002:0000e410       ?dpiErrors@@3PAPEBDA       0000000180053410     dpiExceptionImpl.obj
 0002:0000eb38       $cppxdata$?_Getcat@?$num_put@DV?$ostreambuf_iterator@DU?$char_traits@D@std@@@std@@@std@@SA_KPEAPEBVfacet@locale@2@PEBV42@@Z 0000000180053b38     njsOracle.obj
 0002:0000eb60       $cppxdata$?_Getcat@?$numpunct@D@std@@SA_KPEAPEBVfacet@locale@2@PEBV42@@Z 0000000180053b60     njsOracle.obj
 0002:0000eb88       $cppxdata$??$use_facet@V?$numpunct@D@std@@@std@@YAAEBV?$numpunct@D@0@AEBVlocale@0@@Z 0000000180053b88     njsOracle.obj
 0002:0000ebb0       $cppxdata$??$use_facet@V?$num_put@DV?$ostreambuf_iterator@DU?$char_traits@D@std@@@std@@@std@@@std@@YAAEBV?$num_put@DV?$ostreambuf_iterator@DU?$char_traits@D@std@@@std@@@0@AEBVlocale@0@@Z 0000000180053bb0     njsOracle.obj
 0002:0000ebd8       $cppxdata$??$?6U?$char_traits@D@std@@@std@@YAAEAV?$basic_ostream@DU?$char_traits@D@std@@@0@AEAV10@PEBD@Z 0000000180053bd8     njsOracle.obj
 0002:0000ec00       $cppxdata$??$New@VString@v8@@V?$basic_string@DU?$char_traits@D@std@@V?$allocator@D@2@@std@@@Nan@@YA?AV?$MaybeLocal@VString@v8@@@v8@@V?$basic_string@DU?$char_traits@D@std@@V?$allocator@D@2@@std@@@Z 0000000180053c00     njsOracle.obj
 0002:0000ec28       $cppxdata$??$use_facet@V?$ctype@D@std@@@std@@YAAEBV?$ctype@D@0@AEBVlocale@0@@Z 0000000180053c28     njsOracle.obj
 0002:0000ec50       $cppxdata$?init@?$basic_ios@DU?$char_traits@D@std@@@std@@IEAAXPEAV?$basic_streambuf@DU?$char_traits@D@std@@@2@_N@Z 0000000180053c50     njsOracle.obj
 0002:0000ec78       $cppxdata$??0?$basic_streambuf@DU?$char_traits@D@std@@@std@@IEAA@XZ 0000000180053c78     njsOracle.obj
 0002:0000eca0       $cppxdata$?flush@?$basic_ostream@DU?$char_traits@D@std@@@std@@QEAAAEAV12@XZ 0000000180053ca0     njsOracle.obj
 0002:0000ecc8       $cppxdata$?_Fput@?$num_put@DV?$ostreambuf_iterator@DU?$char_traits@D@std@@@std@@@std@@AEBA?AV?$ostreambuf_iterator@DU?$char_traits@D@std@@@2@V32@AEAVios_base@2@DPEBD_K@Z 0000000180053cc8     njsOracle.obj
 0002:0000ecf0       $cppxdata$?_Iput@?$num_put@DV?$ostreambuf_iterator@DU?$char_traits@D@std@@@std@@@std@@AEBA?AV?$ostreambuf_iterator@DU?$char_traits@D@std@@@2@V32@AEAVios_base@2@DPEAD_K@Z 0000000180053cf0     njsOracle.obj
 0002:0000ed18       $cppxdata$??0?$basic_iostream@DU?$char_traits@D@std@@@std@@QEAA@PEAV?$basic_streambuf@DU?$char_traits@D@std@@@1@@Z 0000000180053d18     njsOracle.obj
 0002:0000ed40       $cppxdata$?do_put@?$num_put@DV?$ostreambuf_iterator@DU?$char_traits@D@std@@@std@@@std@@MEBA?AV?$ostreambuf_iterator@DU?$char_traits@D@std@@@2@V32@AEAVios_base@2@D_N@Z 0000000180053d40     njsOracle.obj
 0002:0000ed68       $cppxdata$?do_put@?$num_put@DV?$ostreambuf_iterator@DU?$char_traits@D@std@@@std@@@std@@MEBA?AV?$ostreambuf_iterator@DU?$char_traits@D@std@@@2@V32@AEAVios_base@2@DN@Z 0000000180053d68     njsOracle.obj
 0002:0000ed90       $cppxdata$?do_put@?$num_put@DV?$ostreambuf_iterator@DU?$char_traits@D@std@@@std@@@std@@MEBA?AV?$ostreambuf_iterator@DU?$char_traits@D@std@@@2@V32@AEAVios_base@2@DO@Z 0000000180053d90     njsOracle.obj
 0002:0000edb8       $cppxdata$??0sentry@?$basic_ostream@DU?$char_traits@D@std@@@std@@QEAA@AEAV12@@Z 0000000180053db8     njsOracle.obj
 0002:0000ede0       $cppxdata$??6?$basic_ostream@DU?$char_traits@D@std@@@std@@QEAAAEAV01@H@Z 0000000180053de0     njsOracle.obj
 0002:0000ee08       $cppxdata$??0?$basic_stringstream@DU?$char_traits@D@std@@V?$allocator@D@2@@std@@QEAA@H@Z 0000000180053e08     njsOracle.obj
 0002:0000ee30       $cppxdata$?Async_AfterCreatePool@Oracledb@@CAXPEAUuv_work_s@@@Z 0000000180053e30     njsOracle.obj
 0002:0000ee58       $cppxdata$?Async_CreatePool@Oracledb@@CAXPEAUuv_work_s@@@Z 0000000180053e58     njsOracle.obj
 0002:0000ee80       $cppxdata$?CreatePool@Oracledb@@CAXAEBV?$FunctionCallbackInfo@VValue@v8@@@Nan@@@Z 0000000180053e80     njsOracle.obj
 0002:0000eea8       $cppxdata$?Async_AfterGetConnection@Oracledb@@CAXPEAUuv_work_s@@@Z 0000000180053ea8     njsOracle.obj
 0002:0000eed0       $cppxdata$?Async_GetConnection@Oracledb@@CAXPEAUuv_work_s@@@Z 0000000180053ed0     njsOracle.obj
 0002:0000eef8       $cppxdata$?GetConnection@Oracledb@@CAXAEBV?$FunctionCallbackInfo@VValue@v8@@@Nan@@@Z 0000000180053ef8     njsOracle.obj
 0002:0000ef20       $cppxdata$?SetOracleClientVersion@Oracledb@@CAXV?$Local@VString@v8@@@v8@@V?$Local@VValue@v8@@@3@AEBV?$PropertyCallbackInfo@X@Nan@@@Z 0000000180053f20     njsOracle.obj
 0002:0000ef48       $cppxdata$?GetOracleClientVersion@Oracledb@@CAXV?$Local@VString@v8@@@v8@@AEBV?$PropertyCallbackInfo@VValue@v8@@@Nan@@@Z 0000000180053f48     njsOracle.obj
 0002:0000ef70       $cppxdata$?SetFetchAsString@Oracledb@@CAXV?$Local@VString@v8@@@v8@@V?$Local@VValue@v8@@@3@AEBV?$PropertyCallbackInfo@X@Nan@@@Z 0000000180053f70     njsOracle.obj
 0002:0000ef98       $cppxdata$?GetFetchAsString@Oracledb@@CAXV?$Local@VString@v8@@@v8@@AEBV?$PropertyCallbackInfo@VValue@v8@@@Nan@@@Z 0000000180053f98     njsOracle.obj
 0002:0000efc0       $cppxdata$?SetLobPrefetchSize@Oracledb@@CAXV?$Local@VString@v8@@@v8@@V?$Local@VValue@v8@@@3@AEBV?$PropertyCallbackInfo@X@Nan@@@Z 0000000180053fc0     njsOracle.obj
 0002:0000efe8       $cppxdata$?GetLobPrefetchSize@Oracledb@@CAXV?$Local@VString@v8@@@v8@@AEBV?$PropertyCallbackInfo@VValue@v8@@@Nan@@@Z 0000000180053fe8     njsOracle.obj
 0002:0000f010       $cppxdata$?SetExternalAuth@Oracledb@@CAXV?$Local@VString@v8@@@v8@@V?$Local@VValue@v8@@@3@AEBV?$PropertyCallbackInfo@X@Nan@@@Z 0000000180054010     njsOracle.obj
 0002:0000f038       $cppxdata$?GetExternalAuth@Oracledb@@CAXV?$Local@VString@v8@@@v8@@AEBV?$PropertyCallbackInfo@VValue@v8@@@Nan@@@Z 0000000180054038     njsOracle.obj
 0002:0000f060       $cppxdata$?SetConnectionClass@Oracledb@@CAXV?$Local@VString@v8@@@v8@@V?$Local@VValue@v8@@@3@AEBV?$PropertyCallbackInfo@X@Nan@@@Z 0000000180054060     njsOracle.obj
 0002:0000f088       $cppxdata$?GetConnectionClass@Oracledb@@CAXV?$Local@VString@v8@@@v8@@AEBV?$PropertyCallbackInfo@VValue@v8@@@Nan@@@Z 0000000180054088     njsOracle.obj
 0002:0000f0b0       $cppxdata$?SetVersion@Oracledb@@CAXV?$Local@VString@v8@@@v8@@V?$Local@VValue@v8@@@3@AEBV?$PropertyCallbackInfo@X@Nan@@@Z 00000001800540b0     njsOracle.obj
 0002:0000f0d8       $cppxdata$?SetExtendedMetaData@Oracledb@@CAXV?$Local@VString@v8@@@v8@@V?$Local@VValue@v8@@@3@AEBV?$PropertyCallbackInfo@X@Nan@@@Z 00000001800540d8     njsOracle.obj
 0002:0000f100       $cppxdata$?GetExtendedMetaData@Oracledb@@CAXV?$Local@VString@v8@@@v8@@AEBV?$PropertyCallbackInfo@VValue@v8@@@Nan@@@Z 0000000180054100     njsOracle.obj
 0002:0000f128       $cppxdata$?SetAutoCommit@Oracledb@@CAXV?$Local@VString@v8@@@v8@@V?$Local@VValue@v8@@@3@AEBV?$PropertyCallbackInfo@X@Nan@@@Z 0000000180054128     njsOracle.obj
 0002:0000f150       $cppxdata$?GetAutoCommit@Oracledb@@CAXV?$Local@VString@v8@@@v8@@AEBV?$PropertyCallbackInfo@VValue@v8@@@Nan@@@Z 0000000180054150     njsOracle.obj
 0002:0000f178       $cppxdata$?SetPrefetchRows@Oracledb@@CAXV?$Local@VString@v8@@@v8@@V?$Local@VValue@v8@@@3@AEBV?$PropertyCallbackInfo@X@Nan@@@Z 0000000180054178     njsOracle.obj
 0002:0000f1a0       $cppxdata$?GetPrefetchRows@Oracledb@@CAXV?$Local@VString@v8@@@v8@@AEBV?$PropertyCallbackInfo@VValue@v8@@@Nan@@@Z 00000001800541a0     njsOracle.obj
 0002:0000f1c8       $cppxdata$?SetStmtCacheSize@Oracledb@@CAXV?$Local@VString@v8@@@v8@@V?$Local@VValue@v8@@@3@AEBV?$PropertyCallbackInfo@X@Nan@@@Z 00000001800541c8     njsOracle.obj
 0002:0000f1f0       $cppxdata$?GetStmtCacheSize@Oracledb@@CAXV?$Local@VString@v8@@@v8@@AEBV?$PropertyCallbackInfo@VValue@v8@@@Nan@@@Z 00000001800541f0     njsOracle.obj
 0002:0000f218       $cppxdata$?SetOutFormat@Oracledb@@CAXV?$Local@VString@v8@@@v8@@V?$Local@VValue@v8@@@3@AEBV?$PropertyCallbackInfo@X@Nan@@@Z 0000000180054218     njsOracle.obj
 0002:0000f240       $cppxdata$?GetOutFormat@Oracledb@@CAXV?$Local@VString@v8@@@v8@@AEBV?$PropertyCallbackInfo@VValue@v8@@@Nan@@@Z 0000000180054240     njsOracle.obj
 0002:0000f268       $cppxdata$?SetMaxRows@Oracledb@@CAXV?$Local@VString@v8@@@v8@@V?$Local@VValue@v8@@@3@AEBV?$PropertyCallbackInfo@X@Nan@@@Z 0000000180054268     njsOracle.obj
 0002:0000f290       $cppxdata$?GetMaxRows@Oracledb@@CAXV?$Local@VString@v8@@@v8@@AEBV?$PropertyCallbackInfo@VValue@v8@@@Nan@@@Z 0000000180054290     njsOracle.obj
 0002:0000f2b8       $cppxdata$?SetPoolTimeout@Oracledb@@CAXV?$Local@VString@v8@@@v8@@V?$Local@VValue@v8@@@3@AEBV?$PropertyCallbackInfo@X@Nan@@@Z 00000001800542b8     njsOracle.obj
 0002:0000f2e0       $cppxdata$?GetPoolTimeout@Oracledb@@CAXV?$Local@VString@v8@@@v8@@AEBV?$PropertyCallbackInfo@VValue@v8@@@Nan@@@Z 00000001800542e0     njsOracle.obj
 0002:0000f308       $cppxdata$?SetPoolIncrement@Oracledb@@CAXV?$Local@VString@v8@@@v8@@V?$Local@VValue@v8@@@3@AEBV?$PropertyCallbackInfo@X@Nan@@@Z 0000000180054308     njsOracle.obj
 0002:0000f330       $cppxdata$?GetPoolIncrement@Oracledb@@CAXV?$Local@VString@v8@@@v8@@AEBV?$PropertyCallbackInfo@VValue@v8@@@Nan@@@Z 0000000180054330     njsOracle.obj
 0002:0000f358       $cppxdata$?SetPoolMax@Oracledb@@CAXV?$Local@VString@v8@@@v8@@V?$Local@VValue@v8@@@3@AEBV?$PropertyCallbackInfo@X@Nan@@@Z 0000000180054358     njsOracle.obj
 0002:0000f380       $cppxdata$?GetPoolMax@Oracledb@@CAXV?$Local@VString@v8@@@v8@@AEBV?$PropertyCallbackInfo@VValue@v8@@@Nan@@@Z 0000000180054380     njsOracle.obj
 0002:0000f3a8       $cppxdata$?SetPoolMin@Oracledb@@CAXV?$Local@VString@v8@@@v8@@V?$Local@VValue@v8@@@3@AEBV?$PropertyCallbackInfo@X@Nan@@@Z 00000001800543a8     njsOracle.obj
 0002:0000f3d0       $cppxdata$?GetPoolMin@Oracledb@@CAXV?$Local@VString@v8@@@v8@@AEBV?$PropertyCallbackInfo@VValue@v8@@@Nan@@@Z 00000001800543d0     njsOracle.obj
 0002:0000f3f8       $cppxdata$?New@Oracledb@@CAXAEBV?$FunctionCallbackInfo@VValue@v8@@@Nan@@@Z 00000001800543f8     njsOracle.obj
 0002:0000f420       $cppxdata$?Init@Oracledb@@SAXV?$Local@VObject@v8@@@v8@@@Z 0000000180054420     njsOracle.obj
 0002:0000f448       $cppxdata$?driverName@Oracledb@@AEBA?BV?$basic_string@DU?$char_traits@D@std@@V?$allocator@D@2@@std@@XZ 0000000180054448     njsOracle.obj
 0002:0000f470       $cppxdata$??1Oracledb@@EEAA@XZ 0000000180054470     njsOracle.obj
 0002:0000f498       $cppxdata$??0Oracledb@@AEAA@XZ 0000000180054498     njsOracle.obj
 0002:0000f4c0       $cppxdata$??__F?oracledbTemplate_s@Oracledb@@0V?$Persistent@VFunctionTemplate@v8@@V?$NonCopyablePersistentTraits@VFunctionTemplate@v8@@@2@@Nan@@A@@YAXXZ 00000001800544c0     njsOracle.obj
 0002:0000f4e8       $cppxdata$??1connectionBaton@@QEAA@XZ 00000001800544e8     njsOracle.obj
 0002:0000f510       $cppxdata$??0connectionBaton@@QEAA@V?$Local@VFunction@v8@@@v8@@V?$Local@VObject@v8@@@2@@Z 0000000180054510     njsOracle.obj
 0002:0000f538       $cppxdata$??1ObjectWrap@Nan@@UEAA@XZ 0000000180054538     njsOracle.obj
 0002:0000f560       $cppxdata$?SetAccessor@Nan@@YAXV?$Local@VObjectTemplate@v8@@@v8@@V?$Local@VString@v8@@@3@P6AX1AEBV?$PropertyCallbackInfo@VValue@v8@@@1@@ZP6AX1V?$Local@VValue@v8@@@3@AEBV?$PropertyCallbackInfo@X@1@@Z4W4AccessControl@3@W4PropertyAttribute@3@V?$Local@VAccessorSignature@v8@@@3@@Z 0000000180054560     njsOracle.obj
 0002:0000f588       $cppxdata$?SetPrototypeMethod@Nan@@YAXV?$Local@VFunctionTemplate@v8@@@v8@@PEBDP6AXAEBV?$FunctionCallbackInfo@VValue@v8@@@1@@Z@Z 0000000180054588     njsOracle.obj
 0002:0000f5b0       $cppxdata$??1?$Persistent@VFunction@v8@@V?$NonCopyablePersistentTraits@VFunction@v8@@@2@@Nan@@QEAA@XZ 00000001800545b0     njsOracle.obj
 0002:0000f5b0       $cppxdata$??1?$Persistent@VObject@v8@@V?$NonCopyablePersistentTraits@VObject@v8@@@2@@Nan@@QEAA@XZ 00000001800545b0     njsOracle.obj
 0002:0000f5d8       $cppxdata$?ThrowError@Nan@@YAXPEBD@Z 00000001800545d8     njsOracle.obj
 0002:0000f600       $cppxdata$?New@?$Factory@VFunctionTemplate@v8@@@imp@Nan@@SA?AV?$Local@VFunctionTemplate@v8@@@v8@@P6AXAEBV?$FunctionCallbackInfo@VValue@v8@@@3@@ZV?$Local@VValue@v8@@@5@V?$Local@VSignature@v8@@@5@@Z 0000000180054600     njsOracle.obj
 0002:0000f628       $cppxdata$?_Init@ios_base@std@@IEAAXXZ 0000000180054628     njsOracle.obj
 0002:0000f650       $cppxdata$?clear@ios_base@std@@QEAAXH_N@Z 0000000180054650     njsOracle.obj
 0002:0000f678       $cppxdata$??0system_error@std@@QEAA@Verror_code@1@PEBD@Z 0000000180054678     njsOracle.obj
 0002:0000f6a0       $cppxdata$?_Makestr@_System_error@std@@CA?AV?$basic_string@DU?$char_traits@D@std@@V?$allocator@D@2@@2@Verror_code@2@V32@@Z 00000001800546a0     njsOracle.obj
 0002:0000f6c8       $cppxdata$?_Getcat@?$ctype@D@std@@SA_KPEAPEBVfacet@locale@2@PEBV42@@Z 00000001800546c8     njsOracle.obj
 0002:0000f750       $cppxdata$?Async_AfterTerminate@Pool@@CAXPEAUuv_work_s@@@Z 0000000180054750     njsPool.obj
 0002:0000f778       $cppxdata$?Async_Terminate@Pool@@CAXPEAUuv_work_s@@@Z 0000000180054778     njsPool.obj
 0002:0000f7a0       $cppxdata$?Terminate@Pool@@CAXAEBV?$FunctionCallbackInfo@VValue@v8@@@Nan@@@Z 00000001800547a0     njsPool.obj
 0002:0000f7c8       $cppxdata$?Async_AfterGetConnection@Pool@@CAXPEAUuv_work_s@@@Z 00000001800547c8     njsPool.obj
 0002:0000f7f0       $cppxdata$?Async_GetConnection@Pool@@CAXPEAUuv_work_s@@@Z 00000001800547f0     njsPool.obj
 0002:0000f818       $cppxdata$?GetConnection@Pool@@CAXAEBV?$FunctionCallbackInfo@VValue@v8@@@Nan@@@Z 0000000180054818     njsPool.obj
 0002:0000f840       $cppxdata$?SetStmtCacheSize@Pool@@CAXV?$Local@VString@v8@@@v8@@V?$Local@VValue@v8@@@3@AEBV?$PropertyCallbackInfo@X@Nan@@@Z 0000000180054840     njsPool.obj
 0002:0000f868       $cppxdata$?SetConnectionsInUse@Pool@@CAXV?$Local@VString@v8@@@v8@@V?$Local@VValue@v8@@@3@AEBV?$PropertyCallbackInfo@X@Nan@@@Z 0000000180054868     njsPool.obj
 0002:0000f890       $cppxdata$?SetConnectionsOpen@Pool@@CAXV?$Local@VString@v8@@@v8@@V?$Local@VValue@v8@@@3@AEBV?$PropertyCallbackInfo@X@Nan@@@Z 0000000180054890     njsPool.obj
 0002:0000f8b8       $cppxdata$?SetPoolTimeout@Pool@@CAXV?$Local@VString@v8@@@v8@@V?$Local@VValue@v8@@@3@AEBV?$PropertyCallbackInfo@X@Nan@@@Z 00000001800548b8     njsPool.obj
 0002:0000f8e0       $cppxdata$?SetPoolIncrement@Pool@@CAXV?$Local@VString@v8@@@v8@@V?$Local@VValue@v8@@@3@AEBV?$PropertyCallbackInfo@X@Nan@@@Z 00000001800548e0     njsPool.obj
 0002:0000f908       $cppxdata$?SetPoolMax@Pool@@CAXV?$Local@VString@v8@@@v8@@V?$Local@VValue@v8@@@3@AEBV?$PropertyCallbackInfo@X@Nan@@@Z 0000000180054908     njsPool.obj
 0002:0000f930       $cppxdata$?SetPoolMin@Pool@@CAXV?$Local@VString@v8@@@v8@@V?$Local@VValue@v8@@@3@AEBV?$PropertyCallbackInfo@X@Nan@@@Z 0000000180054930     njsPool.obj
 0002:0000f958       $cppxdata$?setPoolProperty@Pool@@CAXPEAV1@V?$basic_string@DU?$char_traits@D@std@@V?$allocator@D@2@@std@@@Z 0000000180054958     njsPool.obj
 0002:0000f980       $cppxdata$?GetStmtCacheSize@Pool@@CAXV?$Local@VString@v8@@@v8@@AEBV?$PropertyCallbackInfo@VValue@v8@@@Nan@@@Z 0000000180054980     njsPool.obj
 0002:0000f9a8       $cppxdata$?GetConnectionsInUse@Pool@@CAXV?$Local@VString@v8@@@v8@@AEBV?$PropertyCallbackInfo@VValue@v8@@@Nan@@@Z 00000001800549a8     njsPool.obj
 0002:0000f9d0       $cppxdata$?GetConnectionsOpen@Pool@@CAXV?$Local@VString@v8@@@v8@@AEBV?$PropertyCallbackInfo@VValue@v8@@@Nan@@@Z 00000001800549d0     njsPool.obj
 0002:0000f9f8       $cppxdata$?GetPoolTimeout@Pool@@CAXV?$Local@VString@v8@@@v8@@AEBV?$PropertyCallbackInfo@VValue@v8@@@Nan@@@Z 00000001800549f8     njsPool.obj
 0002:0000fa20       $cppxdata$?GetPoolIncrement@Pool@@CAXV?$Local@VString@v8@@@v8@@AEBV?$PropertyCallbackInfo@VValue@v8@@@Nan@@@Z 0000000180054a20     njsPool.obj
 0002:0000fa48       $cppxdata$?GetPoolMax@Pool@@CAXV?$Local@VString@v8@@@v8@@AEBV?$PropertyCallbackInfo@VValue@v8@@@Nan@@@Z 0000000180054a48     njsPool.obj
 0002:0000fa70       $cppxdata$?GetPoolMin@Pool@@CAXV?$Local@VString@v8@@@v8@@AEBV?$PropertyCallbackInfo@VValue@v8@@@Nan@@@Z 0000000180054a70     njsPool.obj
 0002:0000fa98       $cppxdata$?getPoolProperty@Pool@@CA?AV?$Local@VPrimitive@v8@@@v8@@PEAV1@I@Z 0000000180054a98     njsPool.obj
 0002:0000fac0       $cppxdata$??1Connection@@EEAA@XZ 0000000180054ac0     njsConnection.obj
 0002:0000fac0       $cppxdata$??1ResultSet@@UEAA@XZ 0000000180054ac0     njsResultSet.obj
 0002:0000fac0       $cppxdata$??1Pool@@EEAA@XZ 0000000180054ac0     njsPool.obj
 0002:0000fae8       $cppxdata$??__F?poolTemplate_s@Pool@@2V?$Persistent@VFunctionTemplate@v8@@V?$NonCopyablePersistentTraits@VFunctionTemplate@v8@@@2@@Nan@@A@@YAXXZ 0000000180054ae8     njsPool.obj
 0002:0000fb10       $cppxdata$??1poolBaton@@QEAA@XZ 0000000180054b10     njsPool.obj
 0002:0000fb38       $cppxdata$??0poolBaton@@QEAA@V?$Local@VFunction@v8@@@v8@@V?$Local@VObject@v8@@@2@@Z 0000000180054b38     njsPool.obj
 0002:0000fb60       $cppxdata$?Init@Pool@@SAXV?$Local@VObject@v8@@@v8@@@Z 0000000180054b60     njsPool.obj
 0002:0000fb88       $cppxdata$?NewLob@Connection@@CA?AV?$Local@VValue@v8@@@v8@@PEAUeBaton@@PEAVProtoILob@@@Z 0000000180054b88     njsConnection.obj
 0002:0000fbb0       $cppxdata$?cbDynBufferAllocate@Connection@@CAXPEAX_NII@Z 0000000180054bb0     njsConnection.obj
 0002:0000fbd8       $cppxdata$?v8Date2OraDate@Connection@@CAXV?$Local@VValue@v8@@@v8@@PEAUBind@@@Z 0000000180054bd8     njsConnection.obj
 0002:0000fc00       $cppxdata$?Async_Break@Connection@@CAXPEAUuv_work_s@@@Z 0000000180054c00     njsConnection.obj
 0002:0000fc28       $cppxdata$?Break@Connection@@CAXAEBV?$FunctionCallbackInfo@VValue@v8@@@Nan@@@Z 0000000180054c28     njsConnection.obj
 0002:0000fc50       $cppxdata$?Async_Rollback@Connection@@CAXPEAUuv_work_s@@@Z 0000000180054c50     njsConnection.obj
 0002:0000fc78       $cppxdata$?Rollback@Connection@@CAXAEBV?$FunctionCallbackInfo@VValue@v8@@@Nan@@@Z 0000000180054c78     njsConnection.obj
 0002:0000fca0       $cppxdata$?Async_AfterBreak@Connection@@CAXPEAUuv_work_s@@@Z 0000000180054ca0     njsConnection.obj
 0002:0000fca0       $cppxdata$?Async_AfterRollback@Connection@@CAXPEAUuv_work_s@@@Z 0000000180054ca0     njsConnection.obj
 0002:0000fca0       $cppxdata$?Async_AfterCommit@Connection@@CAXPEAUuv_work_s@@@Z 0000000180054ca0     njsConnection.obj
 0002:0000fcc8       $cppxdata$?Async_Commit@Connection@@CAXPEAUuv_work_s@@@Z 0000000180054cc8     njsConnection.obj
 0002:0000fcf0       $cppxdata$?Commit@Connection@@CAXAEBV?$FunctionCallbackInfo@VValue@v8@@@Nan@@@Z 0000000180054cf0     njsConnection.obj
 0002:0000fd18       $cppxdata$?Async_AfterRelease@Connection@@CAXPEAUuv_work_s@@@Z 0000000180054d18     njsConnection.obj
 0002:0000fd40       $cppxdata$?Async_Release@Connection@@CAXPEAUuv_work_s@@@Z 0000000180054d40     njsConnection.obj
 0002:0000fd68       $cppxdata$?Release@Connection@@CAXAEBV?$FunctionCallbackInfo@VValue@v8@@@Nan@@@Z 0000000180054d68     njsConnection.obj
 0002:0000fd90       $cppxdata$?GetOutBindObject@Connection@@CA?AV?$Local@VValue@v8@@@v8@@PEAUeBaton@@@Z 0000000180054d90     njsConnection.obj
 0002:0000fdb8       $cppxdata$?GetOutBindArray@Connection@@CA?AV?$Local@VValue@v8@@@v8@@PEAUeBaton@@@Z 0000000180054db8     njsConnection.obj
 0002:0000fde0       $cppxdata$?GetOutBinds@Connection@@CA?AV?$Local@VValue@v8@@@v8@@PEAUeBaton@@@Z 0000000180054de0     njsConnection.obj
 0002:0000fe08       $cppxdata$?GetArrayValue@Connection@@CA?AV?$Local@VValue@v8@@@v8@@PEAUeBaton@@PEAUBind@@K@Z 0000000180054e08     njsConnection.obj
 0002:0000fe30       $cppxdata$?GetValueCommon@Connection@@CA?AV?$Local@VValue@v8@@@v8@@PEAUeBaton@@FGPEAXI@Z 0000000180054e30     njsConnection.obj
 0002:0000fe58       $cppxdata$?GetValueLob@Connection@@CA?AV?$Local@VValue@v8@@@v8@@PEAUeBaton@@PEAUBind@@@Z 0000000180054e58     njsConnection.obj
 0002:0000fe80       $cppxdata$?GetValueRefCursor@Connection@@CA?AV?$Local@VValue@v8@@@v8@@PEAUeBaton@@PEAUBind@@PEAUExtBind@@@Z 0000000180054e80     njsConnection.obj
 0002:0000fea8       $cppxdata$?GetValue@Connection@@CA?AV?$Local@VValue@v8@@@v8@@PEAUeBaton@@_NII@Z 0000000180054ea8     njsConnection.obj
 0002:0000fed0       $cppxdata$?GetRows@Connection@@SA?AV?$Local@VValue@v8@@@v8@@PEAUeBaton@@@Z 0000000180054ed0     njsConnection.obj
 0002:0000fef8       $cppxdata$?GetMetaData@Connection@@SA?AV?$Local@VValue@v8@@@v8@@PEBUMetaInfo@@I_N@Z 0000000180054ef8     njsConnection.obj
 0002:0000ff20       $cppxdata$?Async_AfterExecute@Connection@@CAXPEAUuv_work_s@@@Z 0000000180054f20     njsConnection.obj
 0002:0000ff48       $cppxdata$?Descr2protoILob@Connection@@CAXPEAUeBaton@@II@Z 0000000180054f48     njsConnection.obj
 0002:0000ff70       $cppxdata$?DoFetch@Connection@@SAXPEAUeBaton@@@Z 0000000180054f70     njsConnection.obj
 0002:0000ff98       $cppxdata$?DoDefines@Connection@@SAXPEAUeBaton@@@Z 0000000180054f98     njsConnection.obj
 0002:0000ffc0       $cppxdata$?CopyMetaData@Connection@@SAXPEAUMetaInfo@@PEAUeBaton@@PEBUMetaData@dpi@@I@Z 0000000180054fc0     njsConnection.obj
 0002:0000ffe8       $cppxdata$?PrepareAndBind@Connection@@CAXPEAUeBaton@@@Z 0000000180054fe8     njsConnection.obj
 0002:00010010       $cppxdata$?Async_Execute@Connection@@CAXPEAUuv_work_s@@@Z 0000000180055010     njsConnection.obj
 0002:00010038       $cppxdata$?AllocateBindArray@Connection@@CA_NGPEAUBind@@PEAUeBaton@@PEA_K@Z 0000000180055038     njsConnection.obj
 0002:00010060       $cppxdata$?GetInBindParamsArray@Connection@@CAXV?$Local@VArray@v8@@@v8@@PEAUBind@@PEAUeBaton@@@Z 0000000180055060     njsConnection.obj
 0002:00010088       $cppxdata$?GetInBindParamsScalar@Connection@@CAXV?$Local@VValue@v8@@@v8@@PEAUBind@@PEAUeBaton@@@Z 0000000180055088     njsConnection.obj
 0002:000100b0       $cppxdata$?GetInBindParams@Connection@@CAXV?$Local@VValue@v8@@@v8@@PEAUBind@@PEAUeBaton@@@Z 00000001800550b0     njsConnection.obj
 0002:000100d8       $cppxdata$?GetOutBindParams@Connection@@CAXGPEAUBind@@PEAUeBaton@@@Z 00000001800550d8     njsConnection.obj
 0002:00010100       $cppxdata$?GetBindUnit@Connection@@CAXV?$Local@VValue@v8@@@v8@@PEAUBind@@_NPEAUeBaton@@@Z 0000000180055100     njsConnection.obj
 0002:00010128       $cppxdata$?GetBinds@Connection@@CAXV?$Local@VArray@v8@@@v8@@PEAUeBaton@@@Z 0000000180055128     njsConnection.obj
 0002:00010150       $cppxdata$?GetBinds@Connection@@CAXV?$Local@VObject@v8@@@v8@@PEAUeBaton@@@Z 0000000180055150     njsConnection.obj
 0002:00010178       $cppxdata$?ProcessOptions@Connection@@CAXAEBV?$FunctionCallbackInfo@VValue@v8@@@Nan@@IPEAUeBaton@@@Z 0000000180055178     njsConnection.obj
 0002:000101a0       $cppxdata$?ProcessBinds@Connection@@CAXAEBV?$FunctionCallbackInfo@VValue@v8@@@Nan@@IPEAUeBaton@@@Z 00000001800551a0     njsConnection.obj
 0002:000101c8       $cppxdata$?Execute@Connection@@CAXAEBV?$FunctionCallbackInfo@VValue@v8@@@Nan@@@Z 00000001800551c8     njsConnection.obj
 0002:000101f0       $cppxdata$?SetOracleServerVersion@Connection@@CAXV?$Local@VString@v8@@@v8@@V?$Local@VValue@v8@@@3@AEBV?$PropertyCallbackInfo@X@Nan@@@Z 00000001800551f0     njsConnection.obj
 0002:00010218       $cppxdata$?GetOracleServerVersion@Connection@@CAXV?$Local@VString@v8@@@v8@@AEBV?$PropertyCallbackInfo@VValue@v8@@@Nan@@@Z 0000000180055218     njsConnection.obj
 0002:00010240       $cppxdata$?SetAction@Connection@@CAXV?$Local@VString@v8@@@v8@@V?$Local@VValue@v8@@@3@AEBV?$PropertyCallbackInfo@X@Nan@@@Z 0000000180055240     njsConnection.obj
 0002:00010268       $cppxdata$?SetModule@Connection@@CAXV?$Local@VString@v8@@@v8@@V?$Local@VValue@v8@@@3@AEBV?$PropertyCallbackInfo@X@Nan@@@Z 0000000180055268     njsConnection.obj
 0002:00010290       $cppxdata$?SetClientId@Connection@@CAXV?$Local@VString@v8@@@v8@@V?$Local@VValue@v8@@@3@AEBV?$PropertyCallbackInfo@X@Nan@@@Z 0000000180055290     njsConnection.obj
 0002:000102b8       $cppxdata$?SetStmtCacheSize@Connection@@CAXV?$Local@VString@v8@@@v8@@V?$Local@VValue@v8@@@3@AEBV?$PropertyCallbackInfo@X@Nan@@@Z 00000001800552b8     njsConnection.obj
 0002:000102e0       $cppxdata$?GetStmtCacheSize@Connection@@CAXV?$Local@VString@v8@@@v8@@AEBV?$PropertyCallbackInfo@VValue@v8@@@Nan@@@Z 00000001800552e0     njsConnection.obj
 0002:00010308       $cppxdata$?connectionPropertyException@Connection@@CAXPEAV1@W4NJSErrorType@@V?$basic_string@DU?$char_traits@D@std@@V?$allocator@D@2@@std@@@Z 0000000180055308     njsConnection.obj
 0002:00010330       $cppxdata$??__F?connectionTemplate_s@Connection@@2V?$Persistent@VFunctionTemplate@v8@@V?$NonCopyablePersistentTraits@VFunctionTemplate@v8@@@2@@Nan@@A@@YAXXZ 0000000180055330     njsConnection.obj
 0002:00010358       $cppxdata$??_EfetchInfo@@QEAAPEAXI@Z 0000000180055358     njsConnection.obj
 0002:00010380       $cppxdata$??_EMetaInfo@@QEAAPEAXI@Z 0000000180055380     njsConnection.obj
 0002:000103a8       $cppxdata$??1eBaton@@QEAA@XZ 00000001800553a8     njsConnection.obj
 0002:000103d0       $cppxdata$??0eBaton@@QEAA@AEAIV?$Local@VFunction@v8@@@v8@@V?$Local@VObject@v8@@@2@@Z 00000001800553d0     njsConnection.obj
 0002:000103f8       $cppxdata$?Init@Connection@@SAXV?$Local@VObject@v8@@@v8@@@Z 00000001800553f8     njsConnection.obj
 0002:00010420       $cppxdata$?Async_AfterClose@ResultSet@@CAXPEAUuv_work_s@@@Z 0000000180055420     njsResultSet.obj
 0002:00010448       $cppxdata$?Async_Close@ResultSet@@CAXPEAUuv_work_s@@@Z 0000000180055448     njsResultSet.obj
 0002:00010470       $cppxdata$?Close@ResultSet@@CAXAEBV?$FunctionCallbackInfo@VValue@v8@@@Nan@@@Z 0000000180055470     njsResultSet.obj
 0002:00010498       $cppxdata$?Async_AfterGetRows@ResultSet@@CAXPEAUuv_work_s@@@Z 0000000180055498     njsResultSet.obj
 0002:000104c0       $cppxdata$?Async_GetRows@ResultSet@@CAXPEAUuv_work_s@@@Z 00000001800554c0     njsResultSet.obj
 0002:000104e8       $cppxdata$?GetRowsCommon@ResultSet@@CAXPEAUrsBaton@@@Z 00000001800554e8     njsResultSet.obj
 0002:00010510       $cppxdata$?GetRows@ResultSet@@CAXAEBV?$FunctionCallbackInfo@VValue@v8@@@Nan@@@Z 0000000180055510     njsResultSet.obj
 0002:00010538       $cppxdata$?GetRow@ResultSet@@CAXAEBV?$FunctionCallbackInfo@VValue@v8@@@Nan@@@Z 0000000180055538     njsResultSet.obj
 0002:00010560       $cppxdata$?SetMetaData@ResultSet@@CAXV?$Local@VString@v8@@@v8@@V?$Local@VValue@v8@@@3@AEBV?$PropertyCallbackInfo@X@Nan@@@Z 0000000180055560     njsResultSet.obj
 0002:00010588       $cppxdata$?GetMetaData@ResultSet@@CAXV?$Local@VString@v8@@@v8@@AEBV?$PropertyCallbackInfo@VValue@v8@@@Nan@@@Z 0000000180055588     njsResultSet.obj
 0002:000105b0       $cppxdata$??__F?resultSetTemplate_s@ResultSet@@2V?$Persistent@VFunctionTemplate@v8@@V?$NonCopyablePersistentTraits@VFunctionTemplate@v8@@@2@@Nan@@A@@YAXXZ 00000001800555b0     njsResultSet.obj
 0002:000105d8       $cppxdata$??1rsBaton@@QEAA@XZ 00000001800555d8     njsResultSet.obj
 0002:00010600       $cppxdata$??0rsBaton@@QEAA@AEAIV?$Local@VFunction@v8@@@v8@@V?$Local@VObject@v8@@@2@2@Z 0000000180055600     njsResultSet.obj
 0002:00010628       $cppxdata$?setResultSet@ResultSet@@QEAAXPEAVStmt@dpi@@PEAUeBaton@@IPEBUMetaInfo@@@Z 0000000180055628     njsResultSet.obj
 0002:00010650       $cppxdata$?Init@ResultSet@@SAXV?$Local@VObject@v8@@@v8@@@Z 0000000180055650     njsResultSet.obj
 0002:00010678       $cppxdata$?getErrorMsg@NJSMessages@@SA?AV?$basic_string@DU?$char_traits@D@std@@V?$allocator@D@2@@std@@W4NJSErrorType@@ZZ 0000000180055678     njsMessages.obj
 0002:000106a0       $cppxdata$?Async_AfterWrite@ILob@@CAXPEAUuv_work_s@@@Z 00000001800556a0     njsIntLob.obj
 0002:000106c8       $cppxdata$?Async_Write@ILob@@CAXPEAUuv_work_s@@@Z 00000001800556c8     njsIntLob.obj
 0002:000106f0       $cppxdata$?Write@ILob@@CAXAEBV?$FunctionCallbackInfo@VValue@v8@@@Nan@@@Z 00000001800556f0     njsIntLob.obj
 0002:00010718       $cppxdata$?Async_AfterRead@ILob@@CAXPEAUuv_work_s@@@Z 0000000180055718     njsIntLob.obj
 0002:00010740       $cppxdata$?Async_Read@ILob@@CAXPEAUuv_work_s@@@Z 0000000180055740     njsIntLob.obj
 0002:00010768       $cppxdata$?Read@ILob@@CAXAEBV?$FunctionCallbackInfo@VValue@v8@@@Nan@@@Z 0000000180055768     njsIntLob.obj
 0002:00010790       $cppxdata$?SetType@ILob@@CAXV?$Local@VString@v8@@@v8@@V?$Local@VValue@v8@@@3@AEBV?$PropertyCallbackInfo@X@Nan@@@Z 0000000180055790     njsIntLob.obj
 0002:000107b8       $cppxdata$?GetType@ILob@@CAXV?$Local@VString@v8@@@v8@@AEBV?$PropertyCallbackInfo@VValue@v8@@@Nan@@@Z 00000001800557b8     njsIntLob.obj
 0002:000107e0       $cppxdata$?SetOffset@ILob@@CAXV?$Local@VString@v8@@@v8@@V?$Local@VValue@v8@@@3@AEBV?$PropertyCallbackInfo@X@Nan@@@Z 00000001800557e0     njsIntLob.obj
 0002:00010808       $cppxdata$?GetOffset@ILob@@CAXV?$Local@VString@v8@@@v8@@AEBV?$PropertyCallbackInfo@VValue@v8@@@Nan@@@Z 0000000180055808     njsIntLob.obj
 0002:00010830       $cppxdata$?SetPieceSize@ILob@@CAXV?$Local@VString@v8@@@v8@@V?$Local@VValue@v8@@@3@AEBV?$PropertyCallbackInfo@X@Nan@@@Z 0000000180055830     njsIntLob.obj
 0002:00010858       $cppxdata$?GetPieceSize@ILob@@CAXV?$Local@VString@v8@@@v8@@AEBV?$PropertyCallbackInfo@VValue@v8@@@Nan@@@Z 0000000180055858     njsIntLob.obj
 0002:00010880       $cppxdata$?SetLength@ILob@@CAXV?$Local@VString@v8@@@v8@@V?$Local@VValue@v8@@@3@AEBV?$PropertyCallbackInfo@X@Nan@@@Z 0000000180055880     njsIntLob.obj
 0002:000108a8       $cppxdata$?GetLength@ILob@@CAXV?$Local@VString@v8@@@v8@@AEBV?$PropertyCallbackInfo@VValue@v8@@@Nan@@@Z 00000001800558a8     njsIntLob.obj
 0002:000108d0       $cppxdata$?SetChunkSize@ILob@@CAXV?$Local@VString@v8@@@v8@@V?$Local@VValue@v8@@@3@AEBV?$PropertyCallbackInfo@X@Nan@@@Z 00000001800558d0     njsIntLob.obj
 0002:000108f8       $cppxdata$?GetChunkSize@ILob@@CAXV?$Local@VString@v8@@@v8@@AEBV?$PropertyCallbackInfo@VValue@v8@@@Nan@@@Z 00000001800558f8     njsIntLob.obj
 0002:00010920       $cppxdata$?lobPropertyException@ILob@@CAXPEAV1@W4NJSErrorType@@V?$basic_string@DU?$char_traits@D@std@@V?$allocator@D@2@@std@@@Z 0000000180055920     njsIntLob.obj
 0002:00010948       $cppxdata$?Release@ILob@@CAXAEBV?$FunctionCallbackInfo@VValue@v8@@@Nan@@@Z 0000000180055948     njsIntLob.obj
 0002:00010970       $cppxdata$??1ILob@@EEAA@XZ 0000000180055970     njsIntLob.obj
 0002:00010998       $cppxdata$??__F?iLobTemplate_s@ILob@@2V?$Persistent@VFunctionTemplate@v8@@V?$NonCopyablePersistentTraits@VFunctionTemplate@v8@@@2@@Nan@@A@@YAXXZ 0000000180055998     njsIntLob.obj
 0002:000109c0       $cppxdata$??1LobBaton@@QEAA@XZ 00000001800559c0     njsIntLob.obj
 0002:000109e8       $cppxdata$??0LobBaton@@QEAA@AEAIV?$Local@VObject@v8@@@v8@@V?$Local@VFunction@v8@@@2@1@Z 00000001800559e8     njsIntLob.obj
 0002:00010a10       $cppxdata$??0LobBaton@@QEAA@AEAIV?$Local@VFunction@v8@@@v8@@V?$Local@VObject@v8@@@2@@Z 0000000180055a10     njsIntLob.obj
 0002:00010a38       $cppxdata$??0ProtoILob@@QEAA@PEAUeBaton@@PEAUDescriptor@dpi@@G@Z 0000000180055a38     njsIntLob.obj
 0002:00010a60       $cppxdata$?setILob@ILob@@QEAAXPEAUeBaton@@PEAVProtoILob@@@Z 0000000180055a60     njsIntLob.obj
 0002:00010a88       $cppxdata$?Init@ILob@@SAXV?$Local@VObject@v8@@@v8@@@Z 0000000180055a88     njsIntLob.obj
 0002:00010ab0       $cppxdata$?getConnection@EnvImpl@@UEAAPEAVConn@dpi@@AEBV?$basic_string@DU?$char_traits@D@std@@V?$allocator@D@2@@std@@00H0_NW4DBPrivileges@3@@Z 0000000180055ab0     dpiEnvImpl.obj
 0002:00010ad8       $cppxdata$?createPool@EnvImpl@@UEAAPEAVSPool@dpi@@AEBV?$basic_string@DU?$char_traits@D@std@@V?$allocator@D@2@@std@@00HHHHH_N1@Z 0000000180055ad8     dpiEnvImpl.obj
 0002:00010b00       $cppxdata$??0ExceptionImpl@@QEAA@AEBV0@@Z 0000000180055b00     dpiEnvImpl.obj
 0002:00010b28       $cppxdata$??0EnvImpl@@QEAA@AEBV?$basic_string@DU?$char_traits@D@std@@V?$allocator@D@2@@std@@II@Z 0000000180055b28     dpiEnvImpl.obj
 0002:00010b50       $cppxdata$??$?6DU?$char_traits@D@std@@V?$allocator@D@1@@std@@YAAEAV?$basic_ostream@DU?$char_traits@D@std@@@0@AEAV10@AEBV?$basic_string@DU?$char_traits@D@std@@V?$allocator@D@2@@0@@Z 0000000180055b50     dpiExceptionImpl.obj
 0002:00010b78       $cppxdata$??0ExceptionImpl@@QEAA@W4DpiError@dpi@@@Z 0000000180055b78     dpiExceptionImpl.obj
 0002:00010ba0       $cppxdata$?getStmt@ConnImpl@@UEAAPEAVStmt@dpi@@AEBV?$basic_string@DU?$char_traits@D@std@@V?$allocator@D@2@@std@@@Z 0000000180055ba0     dpiConnImpl.obj
 0002:00010bc8       $cppxdata$??1ConnImpl@@UEAA@XZ 0000000180055bc8     dpiConnImpl.obj
 0002:00010bf0       $cppxdata$??0ConnImpl@@QEAA@PEAVPoolImpl@@PEAUOCIEnv@@_NPEAEIAEBV?$basic_string@DU?$char_traits@D@std@@V?$allocator@D@2@@std@@444HW4DBPrivileges@dpi@@@Z 0000000180055bf0     dpiConnImpl.obj
 0002:00010c18       $cppxdata$??0ConnImpl@@QEAA@PEAVEnvImpl@@PEAUOCIEnv@@_NIAEBV?$basic_string@DU?$char_traits@D@std@@V?$allocator@D@2@@std@@333W4DBPrivileges@dpi@@@Z 0000000180055c18     dpiConnImpl.obj
 0002:00010c40       $cppxdata$??_GDateTimeArrayImpl@dpi@@UEAAPEAXI@Z 0000000180055c40     dpiDateTimeArrayImpl.obj
 0002:00010c68       $cppxdata$?getConnection@PoolImpl@@UEAAPEAVConn@dpi@@AEBV?$basic_string@DU?$char_traits@D@std@@V?$allocator@D@2@@std@@000HW4DBPrivileges@3@@Z 0000000180055c68     dpiPoolImpl.obj
 0002:00010c90       $cppxdata$??0PoolImpl@@QEAA@PEAVEnvImpl@@PEAUOCIEnv@@AEBV?$basic_string@DU?$char_traits@D@std@@V?$allocator@D@2@@std@@22HHHH_NH3@Z 0000000180055c90     dpiPoolImpl.obj
 0002:00010cb8       $cppxdata$??_GStmtImpl@@UEAAPEAXI@Z 0000000180055cb8     dpiStmtImpl.obj
 0002:00010ce0       $cppxdata$??0StmtImpl@@QEAA@PEAVEnvImpl@@PEAUOCIEnv@@PEAVConnImpl@@PEAUOCISvcCtx@@AEBV?$basic_string@DU?$char_traits@D@std@@V?$allocator@D@2@@std@@@Z 0000000180055ce0     dpiStmtImpl.obj
 0002:00010d08       $cppxdata$?ociCallCommon@@YAXHPEAXI@Z 0000000180055d08     dpiUtils.obj
 0002:00011648       ?_TlgEvent@?3??__telemetry_main_invoke_trigger@@9@4U<unnamed-type-_TlgEvent>@?3??1@YAXQEAUHINSTANCE__@@@Z@B 0000000180056648     libvcruntime:telemetry.obj
 0002:00011684       ?_TlgEvent@?3??__telemetry_main_return_trigger@@9@4U<unnamed-type-_TlgEvent>@?3??1@YAXQEAUHINSTANCE__@@@Z@B 0000000180056684     libvcruntime:telemetry.obj
 0002:000116bf       ?_Tlg_Microsoft_CRTProviderProv_Meta@@3U<unnamed-type-_Tlg_Microsoft_CRTProviderProv_Meta>@@B 00000001800566bf     libvcruntime:telemetry.obj
 0002:00011c20       $unwind$swprintf           0000000180056c20     libucrt:assert.obj
 0002:00011c20       $unwind$sprintf_s          0000000180056c20     njsOracle.obj
 0002:00011c30       $unwind$??$?HDU?$char_traits@D@std@@V?$allocator@D@1@@std@@YA?AV?$basic_string@DU?$char_traits@D@std@@V?$allocator@D@2@@0@PEBD$$QEAV10@@Z 0000000180056c30     njsConnection.obj
 0002:00011c30       $unwind$??0length_error@std@@QEAA@PEBD@Z 0000000180056c30     libcpmt:xthrow.obj
 0002:00011c30       $unwind$?do_grouping@?$numpunct@D@std@@MEBA?AV?$basic_string@DU?$char_traits@D@std@@V?$allocator@D@2@@2@XZ 0000000180056c30     njsOracle.obj
 0002:00011c30       $unwind$?module@ConnImpl@@UEAAXAEBV?$basic_string@DU?$char_traits@D@std@@V?$allocator@D@2@@std@@@Z 0000000180056c30     dpiConnImpl.obj
 0002:00011c30       $unwind$?allocDescriptor@EnvImpl@@UEAAPEAUDescriptor@dpi@@W4DescriptorType@3@@Z 0000000180056c30     dpiEnvImpl.obj
 0002:00011c30       $unwind$?clientId@ConnImpl@@UEAAXAEBV?$basic_string@DU?$char_traits@D@std@@V?$allocator@D@2@@std@@@Z 0000000180056c30     dpiConnImpl.obj
 0002:00011c30       $unwind$?connectionsInUse@PoolImpl@@UEBAIXZ 0000000180056c30     dpiPoolImpl.obj
 0002:00011c30       $unwind$?allocHandle@EnvImpl@@UEAAPEAUDpiHandle@dpi@@W4HandleType@3@@Z 0000000180056c30     dpiEnvImpl.obj
 0002:00011c30       $unwind$wcstol             0000000180056c30     libucrt:strtox.obj
 0002:00011c30       $unwind$??$common_xtox_s@K_W@@YAHKQEA_W_KI_N@Z 0000000180056c30     libucrt:xtoa.obj
 0002:00011c30       $unwind$?str@?$basic_stringstream@DU?$char_traits@D@std@@V?$allocator@D@2@@std@@QEBA?AV?$basic_string@DU?$char_traits@D@std@@V?$allocator@D@2@@2@XZ 0000000180056c30     njsOracle.obj
 0002:00011c30       $unwind$?message@error_code@std@@QEBA?AV?$basic_string@DU?$char_traits@D@std@@V?$allocator@D@2@@2@XZ 0000000180056c30     njsOracle.obj
 0002:00011c30       $unwind$??0out_of_range@std@@QEAA@PEBD@Z 0000000180056c30     libcpmt:xthrow.obj
 0002:00011c30       $unwind$?rowsAffected@StmtImpl@@UEBA_JXZ 0000000180056c30     dpiStmtImpl.obj
 0002:00011c30       $unwind$?falsename@?$numpunct@D@std@@QEBA?AV?$basic_string@DU?$char_traits@D@std@@V?$allocator@D@2@@2@XZ 0000000180056c30     njsOracle.obj
 0002:00011c30       $unwind$?stmtCacheSize@ConnImpl@@UEBAIXZ 0000000180056c30     dpiConnImpl.obj
 0002:00011c30       $unwind$?rowsFetched@StmtImpl@@UEBAIXZ 0000000180056c30     dpiStmtImpl.obj
 0002:00011c30       $unwind$?do_falsename@?$numpunct@D@std@@MEBA?AV?$basic_string@DU?$char_traits@D@std@@V?$allocator@D@2@@2@XZ 0000000180056c30     njsOracle.obj
 0002:00011c30       $unwind$strtol             0000000180056c30     libucrt:strtox.obj
 0002:00011c30       $unwind$?connectionsOpen@PoolImpl@@UEBAIXZ 0000000180056c30     dpiPoolImpl.obj
 0002:00011c30       $unwind$?fetch@StmtImpl@@UEAAXI@Z 0000000180056c30     dpiStmtImpl.obj
 0002:00011c30       $unwind$?message@_Iostream_error_category@std@@UEBA?AV?$basic_string@DU?$char_traits@D@std@@V?$allocator@D@2@@2@H@Z 0000000180056c30     njsOracle.obj
 0002:00011c30       $unwind$?lobPrefetchSize@ConnImpl@@UEBAIXZ 0000000180056c30     dpiConnImpl.obj
 0002:00011c30       $unwind$?allocDescriptorArray@EnvImpl@@UEAAXW4DescriptorType@dpi@@IQEAPEAUDescriptor@3@@Z 0000000180056c30     dpiEnvImpl.obj
 0002:00011c30       $unwind$?truename@?$numpunct@D@std@@QEBA?AV?$basic_string@DU?$char_traits@D@std@@V?$allocator@D@2@@2@XZ 0000000180056c30     njsOracle.obj
 0002:00011c30       $unwind$?getloc@ios_base@std@@QEBA?AVlocale@2@XZ 0000000180056c30     njsOracle.obj
 0002:00011c30       $unwind$?grouping@?$numpunct@D@std@@QEBA?AV?$basic_string@DU?$char_traits@D@std@@V?$allocator@D@2@@2@XZ 0000000180056c30     njsOracle.obj
 0002:00011c30       $unwind$__stdio_common_vsprintf_s 0000000180056c30     libucrt:output.obj
 0002:00011c30       $unwind$?_Raise@exception@stdext@@QEBAXXZ 0000000180056c30     njsOracle.obj
 0002:00011c30       $unwind$?do_truename@?$numpunct@D@std@@MEBA?AV?$basic_string@DU?$char_traits@D@std@@V?$allocator@D@2@@2@XZ 0000000180056c30     njsOracle.obj
 0002:00011c30       $unwind$?action@ConnImpl@@UEAAXAEBV?$basic_string@DU?$char_traits@D@std@@V?$allocator@D@2@@std@@@Z 0000000180056c30     dpiConnImpl.obj
 0002:00011c38       $unwind$??0?$output_processor@_WV?$string_output_adapter@_W@__crt_stdio_output@@V?$standard_base@_WV?$string_output_adapter@_W@__crt_stdio_output@@@2@@__crt_stdio_output@@QEAA@AEBV?$string_output_adapter@_W@1@_KQEB_WQEAU__crt_locale_pointers@@QEAD@Z 0000000180056c38     libucrt:output.obj
 0002:00011c38       $unwind$__acrt_initialize_locks 0000000180056c38     libucrt:locks.obj
 0002:00011c38       $unwind$?New@ResultSet@@CAXAEBV?$FunctionCallbackInfo@VValue@v8@@@Nan@@@Z 0000000180056c38     njsResultSet.obj
 0002:00011c38       $unwind$__acrt_uninitialize_locks 0000000180056c38     libucrt:locks.obj
 0002:00011c38       $unwind$?WeakCallback@ObjectWrap@Nan@@CAXAEBV?$WeakCallbackInfo@VObjectWrap@Nan@@@v8@@@Z 0000000180056c38     njsOracle.obj
 0002:00011c38       $unwind$?state_case_normal@?$output_processor@DV?$string_output_adapter@D@__crt_stdio_output@@V?$standard_base@DV?$string_output_adapter@D@__crt_stdio_output@@@2@@__crt_stdio_output@@AEAA_NXZ 0000000180056c38     libucrt:output.obj
 0002:00011c38       $unwind$?initialize_pointers@@YAHXZ 0000000180056c38     libcpmt:winapisupp.obj
 0002:00011c38       $unwind$??_Gexception@stdext@@UEAAPEAXI@Z 0000000180056c38     njsOracle.obj
 0002:00011c38       $unwind$?__GetUnwindTryBlock@@YAHPEA_KPEAU_xDISPATCHER_CONTEXT@@PEBU_s_FuncInfo@@@Z 0000000180056c38     libvcruntime:ehstate.obj
 0002:00011c38       $unwind$__acrt_uninitialize_winapi_thunks 0000000180056c38     libucrt:winapi_thunks.obj
 0002:00011c38       $unwind$__acrt_fp_strflt_to_string 0000000180056c38     libucrt:_fptostr.obj
 0002:00011c38       $unwind$??0bad_alloc@std@@QEAA@AEBV01@@Z 0000000180056c38     libcpmt:xthrow.obj
 0002:00011c38       $unwind$??_Gfailure@ios_base@std@@UEAAPEAXI@Z 0000000180056c38     njsOracle.obj
 0002:00011c38       $unwind$__scrt_initialize_crt 0000000180056c38     LIBCMT:utility.obj
 0002:00011c38       $unwind$_Getctype          0000000180056c38     libcpmt:_tolower.obj
 0002:00011c38       $unwind$??_Gruntime_error@std@@UEAAPEAXI@Z 0000000180056c38     njsOracle.obj
 0002:00011c38       $unwind$?_Tidy@?$basic_stringbuf@DU?$char_traits@D@std@@V?$allocator@D@2@@std@@IEAAXXZ 0000000180056c38     njsOracle.obj
 0002:00011c38       $unwind$__raise_securityfailure 0000000180056c38     LIBCMT:gs_report.obj
 0002:00011c38       $unwind$?uflow@?$basic_streambuf@DU?$char_traits@D@std@@@std@@MEAAHXZ 0000000180056c38     njsOracle.obj
 0002:00011c38       $unwind$??1?$basic_streambuf@DU?$char_traits@D@std@@@std@@UEAA@XZ 0000000180056c38     njsOracle.obj
 0002:00011c38       $unwind$__scrt_uninitialize_crt 0000000180056c38     LIBCMT:utility.obj
 0002:00011c38       $unwind$__vcrt_uninitialize_locks 0000000180056c38     libvcruntime:locks.obj
 0002:00011c38       $unwind$??_Gsystem_error@std@@UEAAPEAXI@Z 0000000180056c38     njsOracle.obj
 0002:00011c38       $unwind$??_D?$basic_stringstream@DU?$char_traits@D@std@@V?$allocator@D@2@@std@@QEAAXXZ 0000000180056c38     njsOracle.obj
 0002:00011c38       $unwind$??_G_Facet_base@std@@UEAAPEAXI@Z 0000000180056c38     njsOracle.obj
 0002:00011c38       $unwind$__acrt_uninitialize_stdio 0000000180056c38     libucrt:_file.obj
 0002:00011c38       $unwind$?type_case_integer@?$output_processor@DV?$string_output_adapter@D@__crt_stdio_output@@V?$standard_base@DV?$string_output_adapter@D@__crt_stdio_output@@@2@@__crt_stdio_output@@AEAA_NI_N@Z 0000000180056c38     libucrt:output.obj
 0002:00011c38       $unwind$_Init_thread_header 0000000180056c38     LIBCMT:thread_safe_statics.obj
 0002:00011c38       $unwind$__scrt_release_startup_lock 0000000180056c38     LIBCMT:utility.obj
 0002:00011c38       $unwind$?rollback@ConnImpl@@UEAAXXZ 0000000180056c38     dpiConnImpl.obj
 0002:00011c38       $unwind$??0fetchInfo@@QEAA@XZ 0000000180056c38     njsConnection.obj
 0002:00011c38       $unwind$_purecall          0000000180056c38     libvcruntime:purevirt.obj
 0002:00011c38       $unwind$?_Facet_Register@std@@YAXPEAV_Facet_base@1@@Z 0000000180056c38     libcpmt:locale0.obj
 0002:00011c38       $unwind$_clearfp           0000000180056c38     libucrt:ieee.obj
 0002:00011c38       $unwind$__acrt_update_locale_info 0000000180056c38     libucrt:locale_update.obj
 0002:00011c38       $unwind$?New@ILob@@CAXAEBV?$FunctionCallbackInfo@VValue@v8@@@Nan@@@Z 0000000180056c38     njsIntLob.obj
 0002:00011c38       $unwind$?type_case_integer@?$output_processor@DV?$string_output_adapter@D@__crt_stdio_output@@V?$format_validation_base@DV?$string_output_adapter@D@__crt_stdio_output@@@2@@__crt_stdio_output@@AEAA_NI_N@Z 0000000180056c38     libucrt:output.obj
 0002:00011c38       $unwind$??_GException@dpi@@UEAAPEAXI@Z 0000000180056c38     dpiEnvImpl.obj
 0002:00011c38       $unwind$?do_widen@?$ctype@D@std@@MEBAPEBDPEBD0PEAD@Z 0000000180056c38     njsOracle.obj
 0002:00011c38       $unwind$?do_narrow@?$ctype@D@std@@MEBAPEBDPEBD0DPEAD@Z 0000000180056c38     njsOracle.obj
 0002:00011c38       $unwind$??1?$vector@PEAUExtBind@@V?$allocator@PEAUExtBind@@@std@@@std@@QEAA@XZ 0000000180056c38     njsConnection.obj
 0002:00011c38       $unwind$??_Gerror_category@std@@UEAAPEAXI@Z 0000000180056c38     njsOracle.obj
 0002:00011c38       $unwind$?release@DateTimeArrayImpl@dpi@@UEAAXXZ 0000000180056c38     dpiDateTimeArrayImpl.obj
 0002:00011c38       $unwind$?commit@ConnImpl@@UEAAXXZ 0000000180056c38     dpiConnImpl.obj
 0002:00011c38       $unwind$??0bad_array_new_length@std@@QEAA@AEBV01@@Z 0000000180056c38     LIBCMT:throw_bad_alloc.obj
 0002:00011c38       $unwind$?DloadReleaseSectionWriteAccess@@YAXXZ 0000000180056c38     DelayImp:delayhlp.obj
 0002:00011c38       $unwind$?cleanup@ProtoILob@@AEAAXXZ 0000000180056c38     njsIntLob.obj
 0002:00011c38       $unwind$_calloc_base       0000000180056c38     libucrt:calloc_base.obj
 0002:00011c38       $unwind$fesetenv           0000000180056c38     libucrt:fesetenv.obj
 0002:00011c38       $unwind$__std_exception_destroy 0000000180056c38     libvcruntime:std_exception.obj
 0002:00011c38       $unwind$?state_case_normal@?$output_processor@DV?$string_output_adapter@D@__crt_stdio_output@@V?$format_validation_base@DV?$string_output_adapter@D@__crt_stdio_output@@@2@@__crt_stdio_output@@AEAA_NXZ 0000000180056c38     libucrt:output.obj
 0002:00011c38       $unwind$??1?$vector@PEAUBind@@V?$allocator@PEAUBind@@@std@@@std@@QEAA@XZ 0000000180056c38     njsConnection.obj
 0002:00011c38       $unwind$feholdexcept       0000000180056c38     libucrt:feholdexcept.obj
 0002:00011c38       $unwind$_fflush_nolock     0000000180056c38     libucrt:fflush.obj
 0002:00011c38       $unwind$__std_type_info_destroy_list 0000000180056c38     libvcruntime:std_type_info.obj
 0002:00011c38       $unwind$?terminate@EnvImpl@@UEAAXXZ 0000000180056c38     dpiEnvImpl.obj
 0002:00011c38       $unwind$fegetenv           0000000180056c38     libucrt:fegetenv.obj
 0002:00011c38       $unwind$??_GconnectionBaton@@QEAAPEAXI@Z 0000000180056c38     njsOracle.obj
 0002:00011c38       $unwind$?New@Connection@@CAXAEBV?$FunctionCallbackInfo@VValue@v8@@@Nan@@@Z 0000000180056c38     njsConnection.obj
 0002:00011c38       $unwind$_SetImageBase      0000000180056c38     libvcruntime:trnsctrl.obj
 0002:00011c38       $unwind$?__StateFromIp@@YAHPEBU_s_FuncInfo@@PEAU_xDISPATCHER_CONTEXT@@_J@Z 0000000180056c38     libvcruntime:ehstate.obj
 0002:00011c38       $unwind$??_GDateTimeArray@dpi@@UEAAPEAXI@Z 0000000180056c38     dpiDateTimeArrayImpl.obj
 0002:00011c38       $unwind$??0logic_error@std@@QEAA@AEBV01@@Z 0000000180056c38     libcpmt:xthrow.obj
 0002:00011c38       $unwind$_clrfp             0000000180056c38     libucrt:fpctrl.obj
 0002:00011c38       $unwind$??0?$basic_string@DU?$char_traits@D@std@@V?$allocator@D@2@@std@@QEAA@AEBV01@@Z 0000000180056c38     njsOracle.obj
 0002:00011c38       $unwind$??_GStmt@dpi@@UEAAPEAXI@Z 0000000180056c38     dpiStmtImpl.obj
 0002:00011c38       $unwind$??2@YAPEAX_K@Z     0000000180056c38     LIBCMT:new_scalar.obj
 0002:00011c38       $unwind$__acrt_stdio_free_buffer_nolock 0000000180056c38     libucrt:_freebuf.obj
 0002:00011c38       $unwind$??_G?$num_put@DV?$ostreambuf_iterator@DU?$char_traits@D@std@@@std@@@std@@MEAAPEAXI@Z 0000000180056c38     njsOracle.obj
 0002:00011c38       $unwind$__acrt_stdio_allocate_buffer_nolock 0000000180056c38     libucrt:_getbuf.obj
 0002:00011c38       $unwind$__acrt_freeptd     0000000180056c38     libucrt:per_thread_data.obj
 0002:00011c38       $unwind$??_Gtype_info@@UEAAPEAXI@Z 0000000180056c38     LIBCMT:std_type_info_static.obj
 0002:00011c38       $unwind$??0_Lockit@std@@QEAA@H@Z 0000000180056c38     libcpmt:xlock.obj
 0002:00011c38       $unwind$?Unref@ObjectWrap@Nan@@MEAAXXZ 0000000180056c38     njsOracle.obj
 0002:00011c38       $unwind$?exit_or_terminate_process@@YAXI@Z 0000000180056c38     libucrt:exit.obj
 0002:00011c38       $unwind$??0out_of_range@std@@QEAA@AEBV01@@Z 0000000180056c38     libcpmt:xthrow.obj
 0002:00011c38       $unwind$??_G_Iostream_error_category@std@@UEAAPEAXI@Z 0000000180056c38     njsOracle.obj
 0002:00011c38       $unwind$?Ref@ObjectWrap@Nan@@MEAAXXZ 0000000180056c38     njsOracle.obj
 0002:00011c38       $unwind$_SetThrowImageBase 0000000180056c38     libvcruntime:trnsctrl.obj
 0002:00011c38       $unwind$??0?$output_processor@DV?$string_output_adapter@D@__crt_stdio_output@@V?$format_validation_base@DV?$string_output_adapter@D@__crt_stdio_output@@@2@@__crt_stdio_output@@QEAA@AEBV?$string_output_adapter@D@1@_KQEBDQEAU__crt_locale_pointers@@QEAD@Z 0000000180056c38     libucrt:output.obj
 0002:00011c38       $unwind$??0bad_exception@std@@QEAA@AEBV01@@Z 0000000180056c38     libvcruntime:frame.obj
 0002:00011c38       $unwind$__vcrt_freeptd     0000000180056c38     libvcruntime:per_thread_data.obj
 0002:00011c38       $unwind$??1fetchInfo@@QEAA@XZ 0000000180056c38     njsConnection.obj
 0002:00011c38       $unwind$_Init_thread_notify 0000000180056c38     LIBCMT:thread_safe_statics.obj
 0002:00011c38       $unwind$?_Setgloballocale@locale@std@@CAXPEAX@Z 0000000180056c38     libcpmt:locale0.obj
 0002:00011c38       $unwind$?New@Pool@@CAXAEBV?$FunctionCallbackInfo@VValue@v8@@@Nan@@@Z 0000000180056c38     njsPool.obj
 0002:00011c38       $unwind$__vcrt_uninitialize 0000000180056c38     libvcruntime:initialization.obj
 0002:00011c38       $unwind$strcpy_s           0000000180056c38     libucrt:strcpy_s.obj
 0002:00011c38       $unwind$??0?$output_processor@DV?$string_output_adapter@D@__crt_stdio_output@@V?$standard_base@DV?$string_output_adapter@D@__crt_stdio_output@@@2@@__crt_stdio_output@@QEAA@AEBV?$string_output_adapter@D@1@_KQEBDQEAU__crt_locale_pointers@@QEAD@Z 0000000180056c38     libucrt:output.obj
 0002:00011c38       $unwind$??1MetaInfo@@QEAA@XZ 0000000180056c38     njsConnection.obj
 0002:00011c38       $unwind$??$message_box_wait_thread@_W@@YAKQEAX@Z 0000000180056c38     libucrt:crtmbox.obj
 0002:00011c38       $unwind$_malloc_base       0000000180056c38     libucrt:malloc_base.obj
 0002:00011c38       $unwind$??0length_error@std@@QEAA@AEBV01@@Z 0000000180056c38     libcpmt:xthrow.obj
 0002:00011c38       $unwind$??_G_System_error@std@@UEAAPEAXI@Z 0000000180056c38     njsOracle.obj
 0002:00011c38       $unwind$??_GSPool@dpi@@MEAAPEAXI@Z 0000000180056c38     dpiPoolImpl.obj
 0002:00011c38       $unwind$initialize_pointers 0000000180056c38     libucrt:initialization.obj
 0002:00011c38       $unwind$??1?$basic_string@DU?$char_traits@D@std@@V?$allocator@D@2@@std@@QEAA@XZ 0000000180056c38     njsOracle.obj
 0002:00011c38       $unwind$?type_case_integer@?$output_processor@_WV?$string_output_adapter@_W@__crt_stdio_output@@V?$standard_base@_WV?$string_output_adapter@_W@__crt_stdio_output@@@2@@__crt_stdio_output@@AEAA_NI_N@Z 0000000180056c38     libucrt:output.obj
 0002:00011c38       $unwind$_IsExceptionObjectToBeDestroyed 0000000180056c38     libvcruntime:trnsctrl.obj
 0002:00011c38       $unwind$?type_case_integer@?$output_processor@_WV?$stream_output_adapter@_W@__crt_stdio_output@@V?$standard_base@_WV?$stream_output_adapter@_W@__crt_stdio_output@@@2@@__crt_stdio_output@@AEAA_NI_N@Z 0000000180056c38     libucrt:output.obj
 0002:00011c38       $unwind$?_Ios_base_dtor@ios_base@std@@CAXPEAV12@@Z 0000000180056c38     libcpmt:ios.obj
 0002:00011c38       $unwind$??4?$basic_string@DU?$char_traits@D@std@@V?$allocator@D@2@@std@@QEAAAEAV01@AEBV01@@Z 0000000180056c38     njsOracle.obj
 0002:00011c38       $unwind$??0?$output_processor@_WV?$stream_output_adapter@_W@__crt_stdio_output@@V?$standard_base@_WV?$stream_output_adapter@_W@__crt_stdio_output@@@2@@__crt_stdio_output@@QEAA@AEBV?$stream_output_adapter@_W@1@_KQEB_WQEAU__crt_locale_pointers@@QEAD@Z 0000000180056c38     libucrt:output.obj
 0002:00011c38       $unwind$wcscpy_s           0000000180056c38     libucrt:wcscpy_s.obj
 0002:00011c38       $unwind$??_GEnv@dpi@@MEAAPEAXI@Z 0000000180056c38     dpiEnv.obj
 0002:00011c38       $unwind$uninitialize_allocated_memory 0000000180056c38     libucrt:initialization.obj
 0002:00011c38       $unwind$wcscat_s           0000000180056c38     libucrt:wcscat_s.obj
 0002:00011c38       $unwind$_CreateFrameInfo   0000000180056c38     libvcruntime:trnsctrl.obj
 0002:00011c38       $unwind$__acrt_update_multibyte_info 0000000180056c38     libucrt:locale_update.obj
 0002:00011c38       $unwind$??1?$_Yarn@_W@std@@QEAA@XZ 0000000180056c38     njsOracle.obj
 0002:00011c38       $unwind$_Init_thread_footer 0000000180056c38     LIBCMT:thread_safe_statics.obj
 0002:00011c38       $unwind$load_exe_hook      0000000180056c38     win_delay_load_hook.obj
 0002:00011c38       $unwind$??_GConn@dpi@@MEAAPEAXI@Z 0000000180056c38     dpiConnImpl.obj
 0002:00011c38       $unwind$_set_statfp        0000000180056c38     libucrt:fpctrl.obj
 0002:00011c38       $unwind$_onexit            0000000180056c38     LIBCMT:utility.obj
 0002:00011c38       $unwind$??1?$_Yarn@D@std@@QEAA@XZ 0000000180056c38     njsOracle.obj
 0002:00011c38       $unwind$_setfpstatusword   0000000180056c38     libucrt:_fenvutils.obj
 0002:00011c38       $unwind$??0exception@std@@QEAA@AEBV01@@Z 0000000180056c38     libcpmt:xthrow.obj
 0002:00011c38       $unwind$__vcrt_initialize_locks 0000000180056c38     libvcruntime:locks.obj
 0002:00011c38       $unwind$__acrt_can_show_message_box 0000000180056c38     libucrt:winapi_thunks.obj
 0002:00011c40       $unwind$_wtol              0000000180056c40     libucrt:atox.obj
 0002:00011c40       $unwind$?_Doraise@runtime_error@std@@MEBAXXZ 0000000180056c40     njsOracle.obj
 0002:00011c40       $unwind$_log10_special     0000000180056c40     libucrt:log_special.obj
 0002:00011c40       $unwind$wctomb_s           0000000180056c40     libucrt:wctomb.obj
 0002:00011c40       $unwind$?_Doraise@system_error@std@@MEBAXXZ 0000000180056c40     njsOracle.obj
 0002:00011c40       $unwind$_invalid_parameter_noinfo 0000000180056c40     libucrt:invalid_parameter.obj
 0002:00011c40       $unwind$_invalid_parameter_noinfo_noreturn 0000000180056c40     libucrt:invalid_parameter.obj
 0002:00011c40       $unwind$?_Doraise@failure@ios_base@std@@MEBAXXZ 0000000180056c40     njsOracle.obj
 0002:00011c40       $unwind$_itow_s            0000000180056c40     libucrt:xtoa.obj
 0002:00011c40       $unwind$mbstowcs_s         0000000180056c40     libucrt:mbstowcs.obj
 0002:00011c48       $unwind$??_Glogic_error@std@@UEAAPEAXI@Z 0000000180056c48     libcpmt:xthrow.obj
 0002:00011c48       $unwind$??4?$basic_string@DU?$char_traits@D@std@@V?$allocator@D@2@@std@@QEAAAEAV01@$$QEAV01@@Z 0000000180056c48     njsOracle.obj
 0002:00011c48       $unwind$__acrt_stdio_begin_temporary_buffering_nolock 0000000180056c48     libucrt:_sftbuf.obj
 0002:00011c48       $unwind$?<helper_func_cdecl>@<lambda_e2bb8337c48846e80c921ea5ddadc92d>@@CAHPEA_W@Z 0000000180056c48     libucrt:winapi_thunks.obj
 0002:00011c48       $unwind$?erase@?$basic_string@DU?$char_traits@D@std@@V?$allocator@D@2@@std@@QEAAAEAV12@_K0@Z 0000000180056c48     njsOracle.obj
 0002:00011c48       $unwind$wcsncpy_s          0000000180056c48     libucrt:wcsncpy_s.obj
 0002:00011c48       $unwind$?cleanup@PoolImpl@@AEAAXXZ 0000000180056c48     dpiPoolImpl.obj
 0002:00011c48       $unwind$??_GConnImpl@@UEAAPEAXI@Z 0000000180056c48     dpiConnImpl.obj
 0002:00011c48       $unwind$GetLocaleNameFromLanguage 0000000180056c48     libucrt:get_qualified_locale.obj
 0002:00011c48       $unwind$??0?$basic_string@DU?$char_traits@D@std@@V?$allocator@D@2@@std@@QEAA@$$QEAV01@@Z 0000000180056c48     njsOracle.obj
 0002:00011c48       $unwind$GetLocaleNameFromLangCountry 0000000180056c48     libucrt:get_qualified_locale.obj
 0002:00011c48       $unwind$_Deletegloballocale 0000000180056c48     libcpmt:locale0.obj
 0002:00011c48       $unwind$wcsncat_s          0000000180056c48     libucrt:wcsncat_s.obj
 0002:00011c48       $unwind$?internal_isupper_l@@YA_NHQEAU__crt_locale_pointers@@@Z 0000000180056c48     libucrt:tolower_toupper.obj
 0002:00011c48       $unwind$??_GOracledb@@EEAAPEAXI@Z 0000000180056c48     njsOracle.obj
 0002:00011c48       $unwind$__acrt_getptd      0000000180056c48     libucrt:per_thread_data.obj
 0002:00011c48       $unwind$?try_cor_exit_process@@YAXI@Z 0000000180056c48     libucrt:exit.obj
 0002:00011c48       $unwind$??_Gbad_exception@std@@UEAAPEAXI@Z 0000000180056c48     libvcruntime:frame.obj
 0002:00011c48       $unwind$?DloadGetSRWLockFunctionPointers@@YAEXZ 0000000180056c48     DelayImp:delayhlp.obj
 0002:00011c48       $unwind$GetLcidFromLangCountry 0000000180056c48     libucrt:getqloc_downlevel.obj
 0002:00011c48       $unwind$?_New_Locimp@_Locimp@locale@std@@CAPEAV123@_N@Z 0000000180056c48     libcpmt:locale0.obj
 0002:00011c48       $unwind$??0_LocaleUpdate@@QEAA@QEAU__crt_locale_pointers@@@Z 0000000180056c48     libucrt:output.obj
 0002:00011c48       $unwind$?__SetUnwindTryBlock@@YAXPEA_KPEAU_xDISPATCHER_CONTEXT@@PEBU_s_FuncInfo@@H@Z 0000000180056c48     libvcruntime:ehstate.obj
 0002:00011c48       $unwind$__acrt_FlsAlloc    0000000180056c48     libucrt:winapi_thunks.obj
 0002:00011c48       $unwind$_callnewh          0000000180056c48     libucrt:new_handler.obj
 0002:00011c48       $unwind$??_Glength_error@std@@UEAAPEAXI@Z 0000000180056c48     libcpmt:xthrow.obj
 0002:00011c48       $unwind$??_GPoolImpl@@UEAAPEAXI@Z 0000000180056c48     dpiPoolImpl.obj
 0002:00011c48       $unwind$?replace_current_thread_locale_nolock@@YAXQEAU__acrt_ptd@@QEAU__crt_locale_data@@@Z 0000000180056c48     libucrt:per_thread_data.obj
 0002:00011c48       $unwind$??1_Init_locks@std@@QEAA@XZ 0000000180056c48     libcpmt:xlock.obj
 0002:00011c48       $unwind$??1?$basic_stringstream@DU?$char_traits@D@std@@V?$allocator@D@2@@std@@UEAA@XZ 0000000180056c48     njsOracle.obj
 0002:00011c48       $unwind$?_Locinfo_ctor@_Locinfo@std@@SAXPEAV12@PEBD@Z 0000000180056c48     libcpmt:locale0.obj
 0002:00011c48       $unwind$??$common_initialize_environment_nolock@D@@YAHXZ 0000000180056c48     libucrt:environment_initialization.obj
 0002:00011c48       $unwind$??_GPool@@EEAAPEAXI@Z 0000000180056c48     njsPool.obj
 0002:00011c48       $unwind$?push_back@?$vector@PEAUBind@@V?$allocator@PEAUBind@@@std@@@std@@QEAAXAEBQEAUBind@@@Z 0000000180056c48     njsConnection.obj
 0002:00011c48       $unwind$_close_nolock      0000000180056c48     libucrt:close.obj
 0002:00011c48       $unwind$??_G?$ctype@D@std@@MEAAPEAXI@Z 0000000180056c48     njsOracle.obj
 0002:00011c48       $unwind$_updatetlocinfoEx_nolock 0000000180056c48     libucrt:locale_refcounting.obj
 0002:00011c48       $unwind$??1EnvImpl@@UEAA@XZ 0000000180056c48     dpiEnvImpl.obj
 0002:00011c48       $unwind$??_GEnvImpl@@UEAAPEAXI@Z 0000000180056c48     dpiEnvImpl.obj
 0002:00011c48       $unwind$_FindAndUnlinkFrame 0000000180056c48     libvcruntime:trnsctrl.obj
 0002:00011c48       $unwind$?cleanup@ILob@@AEAAXXZ 0000000180056c48     njsIntLob.obj
 0002:00011c48       $unwind$??_Gbad_array_new_length@std@@UEAAPEAXI@Z 0000000180056c48     LIBCMT:throw_bad_alloc.obj
 0002:00011c48       $unwind$??_Gexception@std@@UEAAPEAXI@Z 0000000180056c48     libcpmt:xthrow.obj
 0002:00011c48       $unwind$??1_Locinfo@std@@QEAA@XZ 0000000180056c48     njsOracle.obj
 0002:00011c48       $unwind$??1ExceptionImpl@@UEAA@XZ 0000000180056c48     dpiExceptionImpl.obj
 0002:00011c48       $unwind$__acrt_uninitialize_lowio 0000000180056c48     libucrt:ioinit.obj
 0002:00011c48       $unwind$??_GILob@@EEAAPEAXI@Z 0000000180056c48     njsIntLob.obj
 0002:00011c48       $unwind$__acrt_errno_map_os_error 0000000180056c48     libucrt:errno.obj
 0002:00011c48       $unwind$GetLcidFromLanguage 0000000180056c48     libucrt:getqloc_downlevel.obj
 0002:00011c48       $unwind$__vcrt_FlsGetValue 0000000180056c48     libvcruntime:winapi_downlevel.obj
 0002:00011c48       $unwind$__vcrt_FlsFree     0000000180056c48     libvcruntime:winapi_downlevel.obj
 0002:00011c48       $unwind$__acrt_IsValidLocaleName 0000000180056c48     libucrt:winapi_thunks.obj
 0002:00011c48       $unwind$??_Gbad_alloc@std@@UEAAPEAXI@Z 0000000180056c48     libcpmt:xthrow.obj
 0002:00011c48       $unwind$_realloc_base      0000000180056c48     libucrt:realloc_base.obj
 0002:00011c48       $unwind$__vcrt_FlsAlloc    0000000180056c48     libvcruntime:winapi_downlevel.obj
 0002:00011c48       $unwind$??_Gios_base@std@@UEAAPEAXI@Z 0000000180056c48     njsOracle.obj
 0002:00011c48       $unwind$__acrt_locale_initialize_time 0000000180056c48     libucrt:inittime.obj
 0002:00011c48       $unwind$??0MetaInfo@@QEAA@XZ 0000000180056c48     njsConnection.obj
 0002:00011c48       $unwind$??_G?$basic_iostream@DU?$char_traits@D@std@@@std@@UEAAPEAXI@Z 0000000180056c48     njsOracle.obj
 0002:00011c48       $unwind$__acrt_FlsFree     0000000180056c48     libucrt:winapi_thunks.obj
 0002:00011c48       $unwind$??_G?$basic_ostream@DU?$char_traits@D@std@@@std@@UEAAPEAXI@Z 0000000180056c48     njsOracle.obj
 0002:00011c48       $unwind$??_G?$basic_istream@DU?$char_traits@D@std@@@std@@UEAAPEAXI@Z 0000000180056c48     njsOracle.obj
 0002:00011c48       $unwind$??_Glocale@std@@QEAAPEAXI@Z 0000000180056c48     njsOracle.obj
 0002:00011c48       $unwind$??$common_xtox@K_W@@YAHKQEA_W_KI_N@Z 0000000180056c48     libucrt:xtoa.obj
 0002:00011c48       $unwind$?cbDynBufferGet@Connection@@CAHPEAX_JIKKPEAPEAX22PEAPEAGPEAE@Z 0000000180056c48     njsConnection.obj
 0002:00011c48       $unwind$??_G?$numpunct@D@std@@MEAAPEAXI@Z 0000000180056c48     njsOracle.obj
 0002:00011c48       $unwind$??_G?$basic_ios@DU?$char_traits@D@std@@@std@@UEAAPEAXI@Z 0000000180056c48     njsOracle.obj
 0002:00011c48       $unwind$?force_decimal_point@__crt_stdio_output@@YAXPEADQEAU__crt_locale_pointers@@@Z 0000000180056c48     libucrt:output.obj
 0002:00011c48       $unwind$??_GExceptionImpl@@UEAAPEAXI@Z 0000000180056c48     dpiEnvImpl.obj
 0002:00011c48       $unwind$??_GConnection@@EEAAPEAXI@Z 0000000180056c48     njsConnection.obj
 0002:00011c48       $unwind$??1sentry@?$basic_ostream@DU?$char_traits@D@std@@@std@@QEAA@XZ 0000000180056c48     njsOracle.obj
 0002:00011c48       $unwind$__acrt_FlsGetValue 0000000180056c48     libucrt:winapi_thunks.obj
 0002:00011c48       $unwind$?ExFilterRethrow@@YAHPEAU_EXCEPTION_POINTERS@@PEAUEHExceptionRecord@@PEAH@Z 0000000180056c48     libvcruntime:frame.obj
 0002:00011c48       $unwind$??_GResultSet@@UEAAPEAXI@Z 0000000180056c48     njsResultSet.obj
 0002:00011c48       $unwind$__vcrt_EventUnregister 0000000180056c48     libvcruntime:winapi_downlevel.obj
 0002:00011c48       $unwind$__acrt_invoke_user_matherr 0000000180056c48     libucrt:matherr.obj
 0002:00011c48       $unwind$?type_case_c_tchar@?$output_processor@DV?$string_output_adapter@D@__crt_stdio_output@@V?$format_validation_base@DV?$string_output_adapter@D@__crt_stdio_output@@@2@@__crt_stdio_output@@AEAA_ND@Z 0000000180056c48     libucrt:output.obj
 0002:00011c48       $unwind$__acrt_get_parent_window 0000000180056c48     libucrt:winapi_thunks.obj
 0002:00011c48       $unwind$??_GObjectWrap@Nan@@UEAAPEAXI@Z 0000000180056c48     njsOracle.obj
 0002:00011c48       $unwind$?type_case_c_tchar@?$output_processor@DV?$string_output_adapter@D@__crt_stdio_output@@V?$standard_base@DV?$string_output_adapter@D@__crt_stdio_output@@@2@@__crt_stdio_output@@AEAA_ND@Z 0000000180056c48     libucrt:output.obj
 0002:00011c48       $unwind$?_Assign_rv@?$basic_string@DU?$char_traits@D@std@@V?$allocator@D@2@@std@@QEAAX$$QEAV12@@Z 0000000180056c48     njsOracle.obj
 0002:00011c48       $unwind$?DloadAcquireSectionWriteAccess@@YAXXZ 0000000180056c48     DelayImp:delayhlp.obj
 0002:00011c48       $unwind$??_Gout_of_range@std@@UEAAPEAXI@Z 0000000180056c48     libcpmt:xthrow.obj
 0002:00011c48       $unwind$_fclose_nolock     0000000180056c48     libucrt:fclose.obj
 0002:00011c48       $unwind$strncpy_s          0000000180056c48     libucrt:strncpy_s.obj
 0002:00011c54       $unwind$__dcrt_terminate_console_output 0000000180056c54     libucrt:initcon.obj
 0002:00011c54       $unwind$__pctype_func      0000000180056c54     libucrt:ctype.obj
 0002:00011c54       $unwind$__acrt_DownlevelLocaleNameToLCID 0000000180056c54     libucrt:lcidtoname_downlevel.obj
 0002:00011c54       $unwind$atexit             0000000180056c54     LIBCMT:utility.obj
 0002:00011c54       $unwind$_get_osfhandle     0000000180056c54     libucrt:osfinfo.obj
 0002:00011c54       $unwind$__acrt_can_use_vista_locale_apis 0000000180056c54     libucrt:winapi_thunks.obj
 0002:00011c54       $unwind$?breakExecution@ConnImpl@@UEAAXXZ 0000000180056c54     dpiConnImpl.obj
 0002:00011c54       $unwind$__vcrt_freefls     0000000180056c54     libvcruntime:per_thread_data.obj
 0002:00011c54       $unwind$uninitialize_environment 0000000180056c54     libucrt:initialization.obj
 0002:00011c54       $unwind$__scrt_acquire_startup_lock 0000000180056c54     LIBCMT:utility.obj
 0002:00011c54       $unwind$__acrt_initialize_command_line 0000000180056c54     libucrt:argv_data.obj
 0002:00011c54       $unwind$?state_case_size@?$output_processor@DV?$string_output_adapter@D@__crt_stdio_output@@V?$format_validation_base@DV?$string_output_adapter@D@__crt_stdio_output@@@2@@__crt_stdio_output@@AEAA_NXZ 0000000180056c54     libucrt:output.obj
 0002:00011c54       $unwind$??$_Immortalize@V_Iostream_error_category@std@@@std@@YAAEAV_Iostream_error_category@0@XZ 0000000180056c54     njsOracle.obj
 0002:00011c54       $unwind$abort              0000000180056c54     libucrt:abort.obj
 0002:00011c54       $unwind$initialize_c       0000000180056c54     libucrt:initialization.obj
 0002:00011c54       $unwind$?state_case_size@?$output_processor@_WV?$string_output_adapter@_W@__crt_stdio_output@@V?$standard_base@_WV?$string_output_adapter@_W@__crt_stdio_output@@@2@@__crt_stdio_output@@AEAA_NXZ 0000000180056c54     libucrt:output.obj
 0002:00011c54       $unwind$__FrameUnwindFilter 0000000180056c54     libvcruntime:frame.obj
 0002:00011c54       $unwind$_getfpstatusword   0000000180056c54     libucrt:_fenvutils.obj
 0002:00011c54       $unwind$__acrt_thread_detach 0000000180056c54     libucrt:initialization.obj
 0002:00011c54       $unwind$?state_case_normal_tchar@?$output_processor@DV?$string_output_adapter@D@__crt_stdio_output@@V?$format_validation_base@DV?$string_output_adapter@D@__crt_stdio_output@@@2@@__crt_stdio_output@@AEAA_ND@Z 0000000180056c54     libucrt:output.obj
 0002:00011c54       $unwind$__acrt_thread_attach 0000000180056c54     libucrt:initialization.obj
 0002:00011c54       $unwind$?release@StmtImpl@@UEAAXXZ 0000000180056c54     dpiStmtImpl.obj
 0002:00011c54       $unwind$?state_case_normal_tchar@?$output_processor@DV?$string_output_adapter@D@__crt_stdio_output@@V?$standard_base@DV?$string_output_adapter@D@__crt_stdio_output@@@2@@__crt_stdio_output@@AEAA_ND@Z 0000000180056c54     libucrt:output.obj
 0002:00011c54       $unwind$?allocate@?$allocator@D@std@@QEAAPEAD_K@Z 0000000180056c54     njsOracle.obj
 0002:00011c54       $unwind$__scrt_initialize_default_local_stdio_options 0000000180056c54     LIBCMT:default_local_stdio_options.obj
 0002:00011c54       $unwind$__acrt_uninitialize_critical 0000000180056c54     libucrt:initialization.obj
 0002:00011c54       $unwind$??1_Sentry_base@?$basic_ostream@DU?$char_traits@D@std@@@std@@QEAA@XZ 0000000180056c54     njsOracle.obj
 0002:00011c54       $unwind$__vcrt_getptd      0000000180056c54     libvcruntime:per_thread_data.obj
 0002:00011c54       $unwind$??__Einitlocks@std@@YAXXZ 0000000180056c54     libcpmt:xlock.obj
 0002:00011c54       $unwind$__scrt_dllmain_before_initialize_c 0000000180056c54     LIBCMT:utility.obj
 0002:00011c54       $unwind$localeconv         0000000180056c54     libucrt:localeconv.obj
 0002:00011c54       $unwind$__report_rangecheckfailure 0000000180056c54     LIBCMT:gs_report.obj
 0002:00011c54       $unwind$__crtDownlevelLocaleNameToLCID 0000000180056c54     libcpmt:winapinls.obj
 0002:00011c54       $unwind$__vcrt_uninitialize_ptd 0000000180056c54     libvcruntime:per_thread_data.obj
 0002:00011c54       $unwind$?_Reserve@?$vector@PEAUBind@@V?$allocator@PEAUBind@@@std@@@std@@IEAAX_K@Z 0000000180056c54     njsConnection.obj
 0002:00011c54       $unwind$?deallocate@?$_Wrap_alloc@V?$allocator@PEAUExtBind@@@std@@@std@@QEAAXPEAPEAUExtBind@@_K@Z 0000000180056c54     njsConnection.obj
 0002:00011c54       $unwind$__acrt_release_locale_ref 0000000180056c54     libucrt:locale_refcounting.obj
 0002:00011c54       $unwind$_set_error_mode    0000000180056c54     libucrt:set_error_mode.obj
 0002:00011c54       $unwind$?deallocate@?$_Wrap_alloc@V?$allocator@PEAUBind@@@std@@@std@@QEAAXPEAPEAUBind@@_K@Z 0000000180056c54     njsConnection.obj
 0002:00011c54       $unwind$__GSHandlerCheck   0000000180056c54     LIBCMT:_gshandler_.obj
 0002:00011c54       $unwind$?allocate@?$allocator@PEAUBind@@@std@@QEAAPEAPEAUBind@@_K@Z 0000000180056c54     njsConnection.obj
 0002:00011c54       $unwind$?allocate@?$allocator@PEAUExtBind@@@std@@QEAAPEAPEAUExtBind@@_K@Z 0000000180056c54     njsConnection.obj
 0002:00011c54       $unwind$??1_Lockit@std@@QEAA@XZ 0000000180056c54     libcpmt:xlock.obj
 0002:00011c54       $unwind$?__scrt_uninitialize_thread_safe_statics@@YAXXZ 0000000180056c54     LIBCMT:thread_safe_statics.obj
 0002:00011c54       $unwind$__vcrt_initialize_ptd 0000000180056c54     libvcruntime:per_thread_data.obj
 0002:00011c54       $unwind$_invoke_watson     0000000180056c54     libucrt:invalid_parameter.obj
 0002:00011c54       $unwind$?__GetCurrentState@@YAHPEA_KPEAU_xDISPATCHER_CONTEXT@@PEBU_s_FuncInfo@@@Z 0000000180056c54     libvcruntime:ehstate.obj
 0002:00011c54       $unwind$__vcrt_uninitialize_telemetry_provider 0000000180056c54     libvcruntime:telemetry.obj
 0002:00011c54       $unwind$__vcrt_initialize  0000000180056c54     libvcruntime:initialization.obj
 0002:00011c54       $unwind$??1locale@std@@QEAA@XZ 0000000180056c54     njsOracle.obj
 0002:00011c54       $unwind$?dllmain_crt_dispatch@@YAHQEAUHINSTANCE__@@KQEAX@Z 0000000180056c54     LIBCMT:dll_dllmain.obj
 0002:00011c54       $unwind$_fileno            0000000180056c54     libucrt:fileno.obj
 0002:00011c54       $unwind$__scrt_dllmain_after_initialize_c 0000000180056c54     LIBCMT:utility.obj
 0002:00011c54       $unwind$__acrt_initialize_heap 0000000180056c54     libucrt:heap_handle.obj
 0002:00011c54       $unwind$___mb_cur_max_func 0000000180056c54     libucrt:initctype.obj
 0002:00011c54       $unwind$?allocate@?$_Wrap_alloc@V?$allocator@D@std@@@std@@QEAAPEAD_K@Z 0000000180056c54     njsOracle.obj
 0002:00011c54       $unwind$__vcrt_uninitialize_critical 0000000180056c54     libvcruntime:initialization.obj
 0002:00011c54       $unwind$___lc_locale_name_func 0000000180056c54     libucrt:initctype.obj
 0002:00011c54       $unwind$__vcrt_thread_attach 0000000180056c54     libvcruntime:initialization.obj
 0002:00011c54       $unwind$_msize             0000000180056c54     libucrt:msize.obj
 0002:00011c54       $unwind$___lc_codepage_func 0000000180056c54     libucrt:initctype.obj
 0002:00011c54       $unwind$_set_errno_from_matherr 0000000180056c54     libucrt:fpexcept.obj
 0002:00011c54       $unwind$__vcrt_thread_detach 0000000180056c54     libvcruntime:initialization.obj
 0002:00011c54       $unwind$?_Atexit@@YAXP6AXXZ@Z 0000000180056c54     libcpmt:iosptrs.obj
 0002:00011c54       $unwind$__std_terminate    0000000180056c54     libvcruntime:frame.obj
 0002:00011c54       $unwind$_GetThrowImageBase 0000000180056c54     libvcruntime:trnsctrl.obj
 0002:00011c54       $unwind$_copytlocinfo_nolock 0000000180056c54     libucrt:wsetlocale.obj
 0002:00011c54       $unwind$_statfp            0000000180056c54     libucrt:fpctrl.obj
 0002:00011c54       $unwind$_stricmp           0000000180056c54     libucrt:stricmp.obj
 0002:00011c54       $unwind$__scrt_dllmain_uninitialize_c 0000000180056c54     LIBCMT:utility.obj
 0002:00011c54       $unwind$?state_case_size@?$output_processor@DV?$string_output_adapter@D@__crt_stdio_output@@V?$standard_base@DV?$string_output_adapter@D@__crt_stdio_output@@@2@@__crt_stdio_output@@AEAA_NXZ 0000000180056c54     libucrt:output.obj
 0002:00011c54       $unwind$__scrt_dllmain_uninitialize_critical 0000000180056c54     LIBCMT:utility.obj
 0002:00011c54       $unwind$_errno             0000000180056c54     libucrt:errno.obj
 0002:00011c54       $unwind$??$uninitialize_environment_internal@_W@@YAXAEAPEAPEA_W@Z 0000000180056c54     libucrt:environment_initialization.obj
 0002:00011c54       $unwind$__acrt_initialize_multibyte 0000000180056c54     libucrt:mbctype.obj
 0002:00011c54       $unwind$?state_case_size@?$output_processor@_WV?$stream_output_adapter@_W@__crt_stdio_output@@V?$standard_base@_WV?$stream_output_adapter@_W@__crt_stdio_output@@@2@@__crt_stdio_output@@AEAA_NXZ 0000000180056c54     libucrt:output.obj
 0002:00011c54       $unwind$_getfpcontrolword  0000000180056c54     libucrt:_fenvutils.obj
 0002:00011c54       $unwind$__acrt_initialize_ptd 0000000180056c54     libucrt:per_thread_data.obj
 0002:00011c54       $unwind$__doserrno         0000000180056c54     libucrt:errno.obj
 0002:00011c54       $unwind$??$uninitialize_environment_internal@D@@YAXAEAPEAPEAD@Z 0000000180056c54     libucrt:environment_initialization.obj
 0002:00011c54       $unwind$?deallocate@?$allocator@D@std@@QEAAXPEAD_K@Z 0000000180056c54     njsOracle.obj
 0002:00011c54       $unwind$__acrt_uninitialize_ptd 0000000180056c54     libucrt:per_thread_data.obj
 0002:00011c54       $unwind$__scrt_dllmain_crt_thread_detach 0000000180056c54     LIBCMT:utility.obj
 0002:00011c54       $unwind$_wcsicmp           0000000180056c54     libucrt:wcsicmp.obj
 0002:00011c54       $unwind$??__F_Fac_tidy_reg@std@@YAXXZ 0000000180056c54     libcpmt:locale0.obj
 0002:00011c54       $unwind$tidy_global        0000000180056c54     libcpmt:locale0.obj
 0002:00011c54       $unwind$__dcrt_uninitialize_environments_nolock 0000000180056c54     libucrt:environment_initialization.obj
 0002:00011c54       $unwind$__scrt_dllmain_crt_thread_attach 0000000180056c54     LIBCMT:utility.obj
 0002:00011c54       $unwind$?initialize_multibyte@@YAHXZ 0000000180056c54     libucrt:multibyte_initializer.obj
 0002:00011c54       $unwind$_GetImageBase      0000000180056c54     libvcruntime:trnsctrl.obj
 0002:00011c54       $unwind$??__Einitlocks@std@@YAXXZ 0000000180056c54     libcpmt:iosptrs.obj
 0002:00011c54       $unwind$?_Locinfo_dtor@_Locinfo@std@@SAXPEAV12@@Z 0000000180056c54     libcpmt:locale0.obj
 0002:00011c54       $unwind$_isatty            0000000180056c54     libucrt:isatty.obj
 0002:00011c54       $unwind$?deallocate@?$_Wrap_alloc@V?$allocator@D@std@@@std@@QEAAXPEAD_K@Z 0000000180056c54     njsOracle.obj
 0002:00011c54       $unwind$_wcsnicmp          0000000180056c54     libucrt:wcsnicmp.obj
 0002:00011c54       $unwind$tolower            0000000180056c54     libucrt:tolower_toupper.obj
 0002:00011c5c       $unwind$?_Getcat@?$ctype@D@std@@SA_KPEAPEBVfacet@locale@2@PEBV42@@Z 0000000180056c5c     njsOracle.obj
 0002:00011c7c       $stateUnwindMap$?_Getcat@?$ctype@D@std@@SA_KPEAPEBVfacet@locale@2@PEBV42@@Z 0000000180056c7c     njsOracle.obj
 0002:00011cd0       $ip2state$?_Getcat@?$ctype@D@std@@SA_KPEAPEBVfacet@locale@2@PEBV42@@Z 0000000180056cd0     njsOracle.obj
 0002:00011d38       $unwind$?dtor$8@?0??Async_Execute@Connection@@CAXPEAUuv_work_s@@@Z@4HA 0000000180056d38     njsConnection.obj
 0002:00011d38       $unwind$__acrt_update_thread_locale_data$fin$0 0000000180056d38     libucrt:locale_refcounting.obj
 0002:00011d38       $unwind$?fin$0@?0???$common_lseek@_J@@YA_JH_JH@Z@4HA 0000000180056d38     libucrt:lseek.obj
 0002:00011d38       $unwind$?dtor$1@?0??PrepareAndBind@Connection@@CAXPEAUeBaton@@@Z@4HA 0000000180056d38     njsConnection.obj
 0002:00011d38       $unwind$common_flush_all$fin$1 0000000180056d38     libucrt:fflush.obj
 0002:00011d38       $unwind$?dtor$3@?0??Break@Connection@@CAXAEBV?$FunctionCallbackInfo@VValue@v8@@@Nan@@@Z@4HA 0000000180056d38     njsConnection.obj
 0002:00011d38       $unwind$?dtor$0@?0??getStmt@ConnImpl@@UEAAPEAVStmt@dpi@@AEBV?$basic_string@DU?$char_traits@D@std@@V?$allocator@D@2@@std@@@Z@4HA 0000000180056d38     dpiConnImpl.obj
 0002:00011d38       $unwind$?fin$0@?0???$?RV<lambda_5df02c53a8f32f81fd64e5bbb78039f1>@@AEAV<lambda_2af78c5f5901b1372d98f9ab3177dfa6>@@AEAV<lambda_f51fe5fd7c79a33db34fc9310f277369>@@@?$__crt_seh_guarded_call@X@@QEAAX$$QEAV<lambda_5df02c53a8f32f81fd64e5bbb78039f1>@@AEAV<lambda_2af78c5f5901b1372d98f9ab3177dfa6>@@AEAV<lambda_f51fe5fd7c79a33db34fc9310f277369>@@@Z@4HA 0000000180056d38     libucrt:wsetlocale.obj
 0002:00011d38       $unwind$?dtor$2@?0??GetConnection@Oracledb@@CAXAEBV?$FunctionCallbackInfo@VValue@v8@@@Nan@@@Z@4HA 0000000180056d38     njsOracle.obj
 0002:00011d38       $unwind$?dtor$0@?0??setResultSet@ResultSet@@QEAAXPEAVStmt@dpi@@PEAUeBaton@@IPEBUMetaInfo@@@Z@4HA 0000000180056d38     njsResultSet.obj
 0002:00011d38       $unwind$?fin$0@?0???$?RV<lambda_7b91131dde12e1c3dfc74ff76b3f2eac>@@AEAV<lambda_dd75445284c072d0bd3768540cc698fa>@@V<lambda_16bc4ecb55b4718497c16bceaea2ceaf>@@@?$__crt_seh_guarded_call@H@@QEAAH$$QEAV<lambda_7b91131dde12e1c3dfc74ff76b3f2eac>@@AEAV<lambda_dd75445284c072d0bd3768540cc698fa>@@$$QEAV<lambda_16bc4ecb55b4718497c16bceaea2ceaf>@@@Z@4HA 0000000180056d38     libucrt:output.obj
 0002:00011d38       $unwind$?dtor$1@?0??GetBinds@Connection@@CAXV?$Local@VArray@v8@@@v8@@PEAUeBaton@@@Z@4HA 0000000180056d38     njsConnection.obj
 0002:00011d38       $unwind$?dtor$2@?0??GetBinds@Connection@@CAXV?$Local@VObject@v8@@@v8@@PEAUeBaton@@@Z@4HA 0000000180056d38     njsConnection.obj
 0002:00011d38       $unwind$__acrt_update_thread_multibyte_data$fin$0 0000000180056d38     libucrt:mbctype.obj
 0002:00011d38       $unwind$?dtor$4@?0???0Oracledb@@AEAA@XZ@4HA 0000000180056d38     njsOracle.obj
 0002:00011d38       $unwind$__acrt_uninitialize_locale$fin$0 0000000180056d38     libucrt:wsetlocale.obj
 0002:00011d38       $unwind$?fin$0@?0???$?RV<lambda_d67e8342c384adda8f857579ab50b2ae>@@AEAV<lambda_30712929f77e709619002f448b6a9510>@@V<lambda_4525336fd7e478d965fb7ca7a337cad8>@@@?$__crt_seh_guarded_call@X@@QEAAX$$QEAV<lambda_d67e8342c384adda8f857579ab50b2ae>@@AEAV<lambda_30712929f77e709619002f448b6a9510>@@$$QEAV<lambda_4525336fd7e478d965fb7ca7a337cad8>@@@Z@4HA 0000000180056d38     libucrt:wsetlocale.obj
 0002:00011d38       $unwind$?fin$0@?0???$?RV<lambda_630b2aca97f6d20d5b5ea6529ea6b6af>@@AEAV<lambda_af91936f1d075d609f72d9d8cba980af>@@V<lambda_e82fa975f615b5c7c7b0e4d178fdae67>@@@?$__crt_seh_guarded_call@H@@QEAAH$$QEAV<lambda_630b2aca97f6d20d5b5ea6529ea6b6af>@@AEAV<lambda_af91936f1d075d609f72d9d8cba980af>@@$$QEAV<lambda_e82fa975f615b5c7c7b0e4d178fdae67>@@@Z@4HA 0000000180056d38     libucrt:winapi_thunks.obj
 0002:00011d38       $unwind$_IsNonwritableInCurrentImage$filt$0 0000000180056d38     LIBCMT:pesect.obj
 0002:00011d38       $unwind$?dtor$8@?0??ProcessOptions@Connection@@CAXAEBV?$FunctionCallbackInfo@VValue@v8@@@Nan@@IPEAUeBaton@@@Z@4HA 0000000180056d38     njsConnection.obj
 0002:00011d38       $unwind$?dtor$0@?0???0?$basic_stringstream@DU?$char_traits@D@std@@V?$allocator@D@2@@std@@QEAA@H@Z@4HA 0000000180056d38     njsOracle.obj
 0002:00011d38       $unwind$?dtor$0@?0??getConnection@PoolImpl@@UEAAPEAVConn@dpi@@AEBV?$basic_string@DU?$char_traits@D@std@@V?$allocator@D@2@@std@@000HW4DBPrivileges@3@@Z@4HA 0000000180056d38     dpiPoolImpl.obj
 0002:00011d38       $unwind$__CxxCallCatchBlock$filt$0 0000000180056d38     libvcruntime:frame.obj
 0002:00011d38       $unwind$_ctrlfp$filt$0     0000000180056d38     libucrt:fpctrl.obj
 0002:00011d38       $unwind$__FrameUnwindToState$filt$0 0000000180056d38     libvcruntime:frame.obj
 0002:00011d38       $unwind$?dtor$1@?0??_Getcat@?$numpunct@D@std@@SA_KPEAPEBVfacet@locale@2@PEBV42@@Z@4HA 0000000180056d38     njsOracle.obj
 0002:00011d38       $unwind$fclose$fin$0       0000000180056d38     libucrt:fclose.obj
 0002:00011d38       $unwind$?dtor$2@?0???0rsBaton@@QEAA@AEAIV?$Local@VFunction@v8@@@v8@@V?$Local@VObject@v8@@@2@2@Z@4HA 0000000180056d38     njsResultSet.obj
 0002:00011d38       $unwind$?fin$0@?0??dllmain_crt_process_attach@@YAHQEAUHINSTANCE__@@QEAX@Z@4HA 0000000180056d38     LIBCMT:dll_dllmain.obj
 0002:00011d38       $unwind$?dtor$2@?0??Terminate@Pool@@CAXAEBV?$FunctionCallbackInfo@VValue@v8@@@Nan@@@Z@4HA 0000000180056d38     njsPool.obj
 0002:00011d38       $unwind$?dtor$3@?0??Execute@Connection@@CAXAEBV?$FunctionCallbackInfo@VValue@v8@@@Nan@@@Z@4HA 0000000180056d38     njsConnection.obj
 0002:00011d38       $unwind$?fin$0@?0???$?RV<lambda_e24bbb7b643b32fcea6fa61b31d4c984>@@AEAV<lambda_275893d493268fdec8709772e3fcec0e>@@V<lambda_9d71df4d7cf3f480f8d633942495c3b0>@@@?$__crt_seh_guarded_call@H@@QEAAH$$QEAV<lambda_e24bbb7b643b32fcea6fa61b31d4c984>@@AEAV<lambda_275893d493268fdec8709772e3fcec0e>@@$$QEAV<lambda_9d71df4d7cf3f480f8d633942495c3b0>@@@Z@4HA 0000000180056d38     libucrt:onexit.obj
 0002:00011d38       $unwind$?dtor$1@?0??Async_Execute@Connection@@CAXPEAUuv_work_s@@@Z@4HA 0000000180056d38     njsConnection.obj
 0002:00011d38       $unwind$?dtor$3@?0??CreatePool@Oracledb@@CAXAEBV?$FunctionCallbackInfo@VValue@v8@@@Nan@@@Z@4HA 0000000180056d38     njsOracle.obj
 0002:00011d38       $unwind$?dtor$0@?0??createPool@EnvImpl@@UEAAPEAVSPool@dpi@@AEBV?$basic_string@DU?$char_traits@D@std@@V?$allocator@D@2@@std@@00HHHHH_N1@Z@4HA 0000000180056d38     dpiEnvImpl.obj
 0002:00011d38       $unwind$?dtor$3@?0??Close@ResultSet@@CAXAEBV?$FunctionCallbackInfo@VValue@v8@@@Nan@@@Z@4HA 0000000180056d38     njsResultSet.obj
 0002:00011d38       $unwind$fflush$fin$0       0000000180056d38     libucrt:fflush.obj
 0002:00011d38       $unwind$?dtor$0@?0??_Getcat@?$ctype@D@std@@SA_KPEAPEBVfacet@locale@2@PEBV42@@Z@4HA 0000000180056d38     njsOracle.obj
 0002:00011d38       $unwind$?fin$0@?0???$?RV<lambda_b8c45f8f788dd370798f47cfe8ac3a86>@@AEAV<lambda_4e60a939b0d047cfe11ddc22648dfba9>@@V<lambda_332c3edc96d0294ec56c57d38c1cdfd5>@@@?$__crt_seh_guarded_call@H@@QEAAH$$QEAV<lambda_b8c45f8f788dd370798f47cfe8ac3a86>@@AEAV<lambda_4e60a939b0d047cfe11ddc22648dfba9>@@$$QEAV<lambda_332c3edc96d0294ec56c57d38c1cdfd5>@@@Z@4HA 0000000180056d38     libucrt:onexit.obj
 0002:00011d38       $unwind$?fin$0@?0??dllmain_crt_process_detach@@YAH_N@Z@4HA 0000000180056d38     LIBCMT:dll_dllmain.obj
 0002:00011d38       $unwind$__FrameUnwindToState$fin$1 0000000180056d38     libvcruntime:frame.obj
 0002:00011d38       $unwind$?dtor$0@?0??_Getcat@?$numpunct@D@std@@SA_KPEAPEBVfacet@locale@2@PEBV42@@Z@4HA 0000000180056d38     njsOracle.obj
 0002:00011d38       $unwind$?dtor$3@?0??GetRows@ResultSet@@CAXAEBV?$FunctionCallbackInfo@VValue@v8@@@Nan@@@Z@4HA 0000000180056d38     njsResultSet.obj
 0002:00011d38       $unwind$?dtor$1@?0??Descr2protoILob@Connection@@CAXPEAUeBaton@@II@Z@4HA 0000000180056d38     njsConnection.obj
 0002:00011d38       $unwind$?dtor$0@?0??Descr2protoILob@Connection@@CAXPEAUeBaton@@II@Z@4HA 0000000180056d38     njsConnection.obj
 0002:00011d38       $unwind$?fin$0@?0???$?RV<lambda_72d1df2b273a38828b1ce30cbf4cdab5>@@AEAV<lambda_876a65b173b8412d3a47c70a915b0cf4>@@V<lambda_41932305e351933ebe8f8be3ed8bb5dc>@@@?$__crt_seh_guarded_call@X@@QEAAX$$QEAV<lambda_72d1df2b273a38828b1ce30cbf4cdab5>@@AEAV<lambda_876a65b173b8412d3a47c70a915b0cf4>@@$$QEAV<lambda_41932305e351933ebe8f8be3ed8bb5dc>@@@Z@4HA 0000000180056d38     libucrt:per_thread_data.obj
 0002:00011d38       $unwind$?fin$0@?0???$?RV<lambda_5e887d1dcbef67a5eb4283622ba103bf>@@AEAV<lambda_4466841279450cc726390878d4a41900>@@V<lambda_341c25c0346d94847f1f3c463c57e077>@@@?$__crt_seh_guarded_call@X@@QEAAX$$QEAV<lambda_5e887d1dcbef67a5eb4283622ba103bf>@@AEAV<lambda_4466841279450cc726390878d4a41900>@@$$QEAV<lambda_341c25c0346d94847f1f3c463c57e077>@@@Z@4HA 0000000180056d38     libucrt:per_thread_data.obj
 0002:00011d38       $unwind$?filt$0@?0??__ArrayUnwind@@YAXPEAX_K1P6AX0@Z@Z@4HA 0000000180056d38     LIBCMT:ehvecdtr.obj
 0002:00011d38       $unwind$?fin$0@?0???$?RV<lambda_99476a1ad63dd22509b5d3e65b0ffc95>@@AEAV<lambda_ad1ced32f4ac17aa236e5ef05d6b3b7c>@@V<lambda_f7424dd8d45958661754dc4f2697e9c3>@@@?$__crt_seh_guarded_call@X@@QEAAX$$QEAV<lambda_99476a1ad63dd22509b5d3e65b0ffc95>@@AEAV<lambda_ad1ced32f4ac17aa236e5ef05d6b3b7c>@@$$QEAV<lambda_f7424dd8d45958661754dc4f2697e9c3>@@@Z@4HA 0000000180056d38     libucrt:mbctype.obj
 0002:00011d38       $unwind$?dtor$3@?0??GetRow@ResultSet@@CAXAEBV?$FunctionCallbackInfo@VValue@v8@@@Nan@@@Z@4HA 0000000180056d38     njsResultSet.obj
 0002:00011d38       $unwind$?dtor$3@?0??Read@ILob@@CAXAEBV?$FunctionCallbackInfo@VValue@v8@@@Nan@@@Z@4HA 0000000180056d38     njsIntLob.obj
 0002:00011d38       $unwind$?fin$0@?0???$?RV<lambda_46352004c1216016012b18bd6f87e700>@@AEAV<lambda_3bd07e1a1191394380780325891bf33f>@@V<lambda_334532d3f185bcaa59b5be82d7d22bff>@@@?$__crt_seh_guarded_call@X@@QEAAX$$QEAV<lambda_46352004c1216016012b18bd6f87e700>@@AEAV<lambda_3bd07e1a1191394380780325891bf33f>@@$$QEAV<lambda_334532d3f185bcaa59b5be82d7d22bff>@@@Z@4HA 0000000180056d38     libucrt:per_thread_data.obj
 0002:00011d38       $unwind$?fin$0@?0???$?RV<lambda_c36588078e9f5dfd39652860aa6b3aaf>@@AEAV<lambda_ec61778202f4f5fc7e7711acc23c3bca>@@V<lambda_dc9d2797ccde5d239b4a0efae8ebd7db>@@@?$__crt_seh_guarded_call@P6AXH@Z@@QEAAP6AXH@Z$$QEAV<lambda_c36588078e9f5dfd39652860aa6b3aaf>@@AEAV<lambda_ec61778202f4f5fc7e7711acc23c3bca>@@$$QEAV<lambda_dc9d2797ccde5d239b4a0efae8ebd7db>@@@Z@4HA 0000000180056d38     libucrt:signal.obj
 0002:00011d38       $unwind$?dtor$3@?0??Rollback@Connection@@CAXAEBV?$FunctionCallbackInfo@VValue@v8@@@Nan@@@Z@4HA 0000000180056d38     njsConnection.obj
 0002:00011d38       $unwind$?fin$0@?0???$?RV<lambda_bfedae4ebbf01fab1bb6dcc6a9e276e0>@@AEAV<lambda_2fe9b910cf3cbf4a0ab98a02ba45b3ec>@@V<lambda_237c231691f317818eb88cc1d5d642d6>@@@?$__crt_seh_guarded_call@H@@QEAAH$$QEAV<lambda_bfedae4ebbf01fab1bb6dcc6a9e276e0>@@AEAV<lambda_2fe9b910cf3cbf4a0ab98a02ba45b3ec>@@$$QEAV<lambda_237c231691f317818eb88cc1d5d642d6>@@@Z@4HA 0000000180056d38     libucrt:close.obj
 0002:00011d38       $unwind$__acrt_initialize_lowio$fin$0 0000000180056d38     libucrt:ioinit.obj
 0002:00011d38       $unwind$?fin$0@?0???$?RV<lambda_fb3a7dec4e47f37f22dae91bb15c9095>@@AEAV<lambda_698284760c8add0bfb0756c19673e34b>@@V<lambda_dfb8eca1e75fef3034a8fb18dd509707>@@@?$__crt_seh_guarded_call@X@@QEAAX$$QEAV<lambda_fb3a7dec4e47f37f22dae91bb15c9095>@@AEAV<lambda_698284760c8add0bfb0756c19673e34b>@@$$QEAV<lambda_dfb8eca1e75fef3034a8fb18dd509707>@@@Z@4HA 0000000180056d38     libucrt:per_thread_data.obj
 0002:00011d38       $unwind$common_control87$filt$0 0000000180056d38     libucrt:ieee.obj
 0002:00011d38       $unwind$raise$fin$0        0000000180056d38     libucrt:signal.obj
 0002:00011d38       $unwind$_query_new_handler$fin$0 0000000180056d38     libucrt:new_handler.obj
 0002:00011d38       $unwind$?dtor$0@?0??New@Oracledb@@CAXAEBV?$FunctionCallbackInfo@VValue@v8@@@Nan@@@Z@4HA 0000000180056d38     njsOracle.obj
 0002:00011d38       $unwind$__acrt_lowio_ensure_fh_exists$fin$0 0000000180056d38     libucrt:osfinfo.obj
 0002:00011d38       $unwind$?dtor$0@?0??getConnection@EnvImpl@@UEAAPEAVConn@dpi@@AEBV?$basic_string@DU?$char_traits@D@std@@V?$allocator@D@2@@std@@00H0_NW4DBPrivileges@3@@Z@4HA 0000000180056d38     dpiEnvImpl.obj
 0002:00011d38       $unwind$?fin$0@?0???_M@YAXPEAX_K1P6AX0@Z@Z@4HA 0000000180056d38     LIBCMT:ehvecdtr.obj
 0002:00011d38       $unwind$?fin$0@?0???$?RV<lambda_b521505b218e5242e90febf6bfebc422>@@AEAV<lambda_6978c1fb23f02e42e1d9e99668cc68aa>@@V<lambda_314360699dd331753a4119843814e9a7>@@@?$__crt_seh_guarded_call@H@@QEAAH$$QEAV<lambda_b521505b218e5242e90febf6bfebc422>@@AEAV<lambda_6978c1fb23f02e42e1d9e99668cc68aa>@@$$QEAV<lambda_314360699dd331753a4119843814e9a7>@@@Z@4HA 0000000180056d38     libucrt:commit.obj
 0002:00011d38       $unwind$_write$fin$0       0000000180056d38     libucrt:write.obj
 0002:00011d38       $unwind$?filt$0@?0??common_exit@@YAXHW4_crt_exit_cleanup_mode@@W4_crt_exit_return_mode@@@Z@4HA 0000000180056d38     libucrt:exit.obj
 0002:00011d38       $unwind$?fin$1@?0??common_exit@@YAXHW4_crt_exit_cleanup_mode@@W4_crt_exit_return_mode@@@Z@4HA 0000000180056d38     libucrt:exit.obj
 0002:00011d38       $unwind$?dtor$0@?0??_Getcat@?$num_put@DV?$ostreambuf_iterator@DU?$char_traits@D@std@@@std@@@std@@SA_KPEAPEBVfacet@locale@2@PEBV42@@Z@4HA 0000000180056d38     njsOracle.obj
 0002:00011d38       $unwind$_fcloseall$fin$0   0000000180056d38     libucrt:closeall.obj
 0002:00011d38       $unwind$common_flush_all$fin$0 0000000180056d38     libucrt:fflush.obj
 0002:00011d38       $unwind$?fin$0@?0???_L@YAXPEAX_K1P6AX0@Z2@Z@4HA 0000000180056d38     LIBCMT:ehvecctr.obj
 0002:00011d38       $unwind$__DestructExceptionObject$filt$0 0000000180056d38     libvcruntime:frame.obj
 0002:00011d38       $unwind$?dtor$4@?0??Release@Connection@@CAXAEBV?$FunctionCallbackInfo@VValue@v8@@@Nan@@@Z@4HA 0000000180056d38     njsConnection.obj
 0002:00011d38       $unwind$?dtor$3@?0??Commit@Connection@@CAXAEBV?$FunctionCallbackInfo@VValue@v8@@@Nan@@@Z@4HA 0000000180056d38     njsConnection.obj
 0002:00011d38       $unwind$?dtor$2@?0??GetConnection@Pool@@CAXAEBV?$FunctionCallbackInfo@VValue@v8@@@Nan@@@Z@4HA 0000000180056d38     njsPool.obj
 0002:00011d38       $unwind$?fin$0@?0???$?RV<lambda_7a5ef57ff966f610505f1d28a3d40618>@@AEAV<lambda_b721fa326cdb32351d23dfa67958c160>@@V<lambda_5e0fb27672408a07956fe59e48ccb2aa>@@@?$__crt_seh_guarded_call@H@@QEAAH$$QEAV<lambda_7a5ef57ff966f610505f1d28a3d40618>@@AEAV<lambda_b721fa326cdb32351d23dfa67958c160>@@$$QEAV<lambda_5e0fb27672408a07956fe59e48ccb2aa>@@@Z@4HA 0000000180056d38     libucrt:setvbuf.obj
 0002:00011d38       $unwind$?dtor$3@?0??Write@ILob@@CAXAEBV?$FunctionCallbackInfo@VValue@v8@@@Nan@@@Z@4HA 0000000180056d38     njsIntLob.obj
 0002:00011d38       $unwind$?dtor$0@?0??getErrorMsg@NJSMessages@@SA?AV?$basic_string@DU?$char_traits@D@std@@V?$allocator@D@2@@std@@W4NJSErrorType@@ZZ@4HA 0000000180056d38     njsMessages.obj
 0002:00011d38       $unwind$?dtor$0@?0???0?$basic_streambuf@DU?$char_traits@D@std@@@std@@IEAA@XZ@4HA 0000000180056d38     njsOracle.obj
 0002:00011d38       $unwind$?dtor$0@?0??_Init@ios_base@std@@IEAAXXZ@4HA 0000000180056d38     njsOracle.obj
 0002:00011d40       $unwind$??R<lambda_b721fa326cdb32351d23dfa67958c160>@@QEBAHXZ 0000000180056d40     libucrt:setvbuf.obj
 0002:00011d40       $unwind$ProcessCodePage    0000000180056d40     libucrt:get_qualified_locale.obj
 0002:00011d40       $unwind$TestDefaultLanguage 0000000180056d40     libucrt:getqloc_downlevel.obj
 0002:00011d40       $unwind$?type_case_c_tchar@?$output_processor@_WV?$string_output_adapter@_W@__crt_stdio_output@@V?$standard_base@_WV?$string_output_adapter@_W@__crt_stdio_output@@@2@@__crt_stdio_output@@AEAA_N_W@Z 0000000180056d40     libucrt:output.obj
 0002:00011d40       $unwind$?do_toupper@?$ctype@D@std@@MEBAPEBDPEADPEBD@Z 0000000180056d40     njsOracle.obj
 0002:00011d40       $unwind$?do_tolower@?$ctype@D@std@@MEBAPEBDPEADPEBD@Z 0000000180056d40     njsOracle.obj
 0002:00011d40       $unwind$?type_case_c_tchar@?$output_processor@_WV?$stream_output_adapter@_W@__crt_stdio_output@@V?$standard_base@_WV?$stream_output_adapter@_W@__crt_stdio_output@@@2@@__crt_stdio_output@@AEAA_N_W@Z 0000000180056d40     libucrt:output.obj
 0002:00011d40       $unwind$ProcessCodePage    0000000180056d40     libucrt:getqloc_downlevel.obj
 0002:00011d50       $chain$0$?do_tolower@?$ctype@D@std@@MEBAPEBDPEADPEBD@Z 0000000180056d50     njsOracle.obj
 0002:00011d64       $chain$1$?do_tolower@?$ctype@D@std@@MEBAPEBDPEADPEBD@Z 0000000180056d64     njsOracle.obj
 0002:00011d74       $chain$0$?do_toupper@?$ctype@D@std@@MEBAPEBDPEADPEBD@Z 0000000180056d74     njsOracle.obj
 0002:00011d88       $chain$1$?do_toupper@?$ctype@D@std@@MEBAPEBDPEADPEBD@Z 0000000180056d88     njsOracle.obj
 0002:00011d98       $unwind$?_Makestr@_System_error@std@@CA?AV?$basic_string@DU?$char_traits@D@std@@V?$allocator@D@2@@2@Verror_code@2@V32@@Z 0000000180056d98     njsOracle.obj
 0002:00011db0       $stateUnwindMap$?_Makestr@_System_error@std@@CA?AV?$basic_string@DU?$char_traits@D@std@@V?$allocator@D@2@@2@Verror_code@2@V32@@Z 0000000180056db0     njsOracle.obj
 0002:00011dc0       $ip2state$?_Makestr@_System_error@std@@CA?AV?$basic_string@DU?$char_traits@D@std@@V?$allocator@D@2@@2@Verror_code@2@V32@@Z 0000000180056dc0     njsOracle.obj
 0002:00011de8       $unwind$??0system_error@std@@QEAA@Verror_code@1@PEBD@Z 0000000180056de8     njsOracle.obj
 0002:00011e08       $stateUnwindMap$??0system_error@std@@QEAA@Verror_code@1@PEBD@Z 0000000180056e08     njsOracle.obj
 0002:00011e10       $ip2state$??0system_error@std@@QEAA@Verror_code@1@PEBD@Z 0000000180056e10     njsOracle.obj
 0002:00011e28       $unwind$?message@_Generic_error_category@std@@UEBA?AV?$basic_string@DU?$char_traits@D@std@@V?$allocator@D@2@@2@H@Z 0000000180056e28     njsOracle.obj
 0002:00011e34       $unwind$?clear@ios_base@std@@QEAAXH_N@Z 0000000180056e34     njsOracle.obj
 0002:00011e44       $stateUnwindMap$?clear@ios_base@std@@QEAAXH_N@Z 0000000180056e44     njsOracle.obj
 0002:00011e60       $ip2state$?clear@ios_base@std@@QEAAXH_N@Z 0000000180056e60     njsOracle.obj
 0002:00011e98       $unwind$?_Init@ios_base@std@@IEAAXXZ 0000000180056e98     njsOracle.obj
 0002:00011eac       $stateUnwindMap$??0?$basic_streambuf@DU?$char_traits@D@std@@@std@@IEAA@XZ 0000000180056eac     njsOracle.obj
 0002:00011eac       $stateUnwindMap$?_Init@ios_base@std@@IEAAXXZ 0000000180056eac     njsOracle.obj
 0002:00011eb8       $ip2state$?_Init@ios_base@std@@IEAAXXZ 0000000180056eb8     njsOracle.obj
 0002:00011ed0       $unwind$?FunctionCallbackWrapper@imp@Nan@@YAXAEBV?$FunctionCallbackInfo@VValue@v8@@@v8@@@Z 0000000180056ed0     njsOracle.obj
 0002:00011ee0       $unwind$?GetterCallbackWrapper@imp@Nan@@YAXV?$Local@VName@v8@@@v8@@AEBV?$PropertyCallbackInfo@VValue@v8@@@4@@Z 0000000180056ee0     njsOracle.obj
 0002:00011eec       $unwind$?SetterCallbackWrapper@imp@Nan@@YAXV?$Local@VName@v8@@@v8@@V?$Local@VValue@v8@@@4@AEBV?$PropertyCallbackInfo@X@4@@Z 0000000180056eec     njsOracle.obj
 0002:00011ef8       $unwind$?New@?$Factory@VFunctionTemplate@v8@@@imp@Nan@@SA?AV?$Local@VFunctionTemplate@v8@@@v8@@P6AXAEBV?$FunctionCallbackInfo@VValue@v8@@@3@@ZV?$Local@VValue@v8@@@5@V?$Local@VSignature@v8@@@5@@Z 0000000180056ef8     njsOracle.obj
 0002:00011f10       $stateUnwindMap$?New@?$Factory@VFunctionTemplate@v8@@@imp@Nan@@SA?AV?$Local@VFunctionTemplate@v8@@@v8@@P6AXAEBV?$FunctionCallbackInfo@VValue@v8@@@3@@ZV?$Local@VValue@v8@@@5@V?$Local@VSignature@v8@@@5@@Z 0000000180056f10     njsOracle.obj
 0002:00011f18       $ip2state$?New@?$Factory@VFunctionTemplate@v8@@@imp@Nan@@SA?AV?$Local@VFunctionTemplate@v8@@@v8@@P6AXAEBV?$FunctionCallbackInfo@VValue@v8@@@3@@ZV?$Local@VValue@v8@@@5@V?$Local@VSignature@v8@@@5@@Z 0000000180056f18     njsOracle.obj
 0002:00011f30       $unwind$?ThrowError@Nan@@YAXPEBD@Z 0000000180056f30     njsOracle.obj
 0002:00011f40       $stateUnwindMap$?GetValueRefCursor@Connection@@CA?AV?$Local@VValue@v8@@@v8@@PEAUeBaton@@PEAUBind@@PEAUExtBind@@@Z 0000000180056f40     njsConnection.obj
 0002:00011f40       $stateUnwindMap$?ThrowError@Nan@@YAXPEBD@Z 0000000180056f40     njsOracle.obj
 0002:00011f48       $ip2state$?ThrowError@Nan@@YAXPEBD@Z 0000000180056f48     njsOracle.obj
 0002:00011f60       $unwind$??1?$Persistent@VFunction@v8@@V?$NonCopyablePersistentTraits@VFunction@v8@@@2@@Nan@@QEAA@XZ 0000000180056f60     njsOracle.obj
 0002:00011f60       $unwind$??1?$Persistent@VObject@v8@@V?$NonCopyablePersistentTraits@VObject@v8@@@2@@Nan@@QEAA@XZ 0000000180056f60     njsOracle.obj
 0002:00011f70       $stateUnwindMap$??1?$Persistent@VFunction@v8@@V?$NonCopyablePersistentTraits@VFunction@v8@@@2@@Nan@@QEAA@XZ 0000000180056f70     njsOracle.obj
 0002:00011f70       $stateUnwindMap$??__Fclassic_locale@std@@YAXXZ 0000000180056f70     libcpmt:locale0.obj
 0002:00011f70       $stateUnwindMap$??__Finit_atexit@@YAXXZ 0000000180056f70     libcpmt:iosptrs.obj
 0002:00011f70       $stateUnwindMap$??_G_Fac_node@std@@QEAAPEAXI@Z 0000000180056f70     libcpmt:locale0.obj
 0002:00011f70       $stateUnwindMap$??1?$Persistent@VObject@v8@@V?$NonCopyablePersistentTraits@VObject@v8@@@2@@Nan@@QEAA@XZ 0000000180056f70     njsOracle.obj
 0002:00011f70       $stateUnwindMap$??_G_Locimp@locale@std@@MEAAPEAXI@Z 0000000180056f70     libcpmt:locale0.obj
 0002:00011f70       $stateUnwindMap$??_GStmtImpl@@UEAAPEAXI@Z 0000000180056f70     dpiStmtImpl.obj
 0002:00011f70       $stateUnwindMap$??_GDateTimeArrayImpl@dpi@@UEAAPEAXI@Z 0000000180056f70     dpiDateTimeArrayImpl.obj
 0002:00011f78       $ip2state$??1?$Persistent@VObject@v8@@V?$NonCopyablePersistentTraits@VObject@v8@@@2@@Nan@@QEAA@XZ 0000000180056f78     njsOracle.obj
 0002:00011f78       $ip2state$??1?$Persistent@VFunction@v8@@V?$NonCopyablePersistentTraits@VFunction@v8@@@2@@Nan@@QEAA@XZ 0000000180056f78     njsOracle.obj
 0002:00011f80       $unwind$?SetPrototypeMethod@Nan@@YAXV?$Local@VFunctionTemplate@v8@@@v8@@PEBDP6AXAEBV?$FunctionCallbackInfo@VValue@v8@@@1@@Z@Z 0000000180056f80     njsOracle.obj
 0002:00011f98       $stateUnwindMap$?SetPrototypeMethod@Nan@@YAXV?$Local@VFunctionTemplate@v8@@@v8@@PEBDP6AXAEBV?$FunctionCallbackInfo@VValue@v8@@@1@@Z@Z 0000000180056f98     njsOracle.obj
 0002:00011f98       $stateUnwindMap$?GetValue@Connection@@CA?AV?$Local@VValue@v8@@@v8@@PEAUeBaton@@_NII@Z 0000000180056f98     njsConnection.obj
 0002:00011fa0       $ip2state$?SetPrototypeMethod@Nan@@YAXV?$Local@VFunctionTemplate@v8@@@v8@@PEBDP6AXAEBV?$FunctionCallbackInfo@VValue@v8@@@1@@Z@Z 0000000180056fa0     njsOracle.obj
 0002:00011fb8       $unwind$?SetAccessor@Nan@@YAXV?$Local@VObjectTemplate@v8@@@v8@@V?$Local@VString@v8@@@3@P6AX1AEBV?$PropertyCallbackInfo@VValue@v8@@@1@@ZP6AX1V?$Local@VValue@v8@@@3@AEBV?$PropertyCallbackInfo@X@1@@Z4W4AccessControl@3@W4PropertyAttribute@3@V?$Local@VAccessorSignature@v8@@@3@@Z 0000000180056fb8     njsOracle.obj
 0002:00011fd0       $stateUnwindMap$?SetAccessor@Nan@@YAXV?$Local@VObjectTemplate@v8@@@v8@@V?$Local@VString@v8@@@3@P6AX1AEBV?$PropertyCallbackInfo@VValue@v8@@@1@@ZP6AX1V?$Local@VValue@v8@@@3@AEBV?$PropertyCallbackInfo@X@1@@Z4W4AccessControl@3@W4PropertyAttribute@3@V?$Local@VAccessorSignature@v8@@@3@@Z 0000000180056fd0     njsOracle.obj
 0002:00011fd8       $ip2state$?SetAccessor@Nan@@YAXV?$Local@VObjectTemplate@v8@@@v8@@V?$Local@VString@v8@@@3@P6AX1AEBV?$PropertyCallbackInfo@VValue@v8@@@1@@ZP6AX1V?$Local@VValue@v8@@@3@AEBV?$PropertyCallbackInfo@X@1@@Z4W4AccessControl@3@W4PropertyAttribute@3@V?$Local@VAccessorSignature@v8@@@3@@Z 0000000180056fd8     njsOracle.obj
 0002:00011ff0       $unwind$??1ObjectWrap@Nan@@UEAA@XZ 0000000180056ff0     njsOracle.obj
 0002:00012000       $stateUnwindMap$??__F?oracledbTemplate_s@Oracledb@@0V?$Persistent@VFunctionTemplate@v8@@V?$NonCopyablePersistentTraits@VFunctionTemplate@v8@@@2@@Nan@@A@@YAXXZ 0000000180057000     njsOracle.obj
 0002:00012000       $stateUnwindMap$??__F?poolTemplate_s@Pool@@2V?$Persistent@VFunctionTemplate@v8@@V?$NonCopyablePersistentTraits@VFunctionTemplate@v8@@@2@@Nan@@A@@YAXXZ 0000000180057000     njsPool.obj
 0002:00012000       $stateUnwindMap$??__F?resultSetTemplate_s@ResultSet@@2V?$Persistent@VFunctionTemplate@v8@@V?$NonCopyablePersistentTraits@VFunctionTemplate@v8@@@2@@Nan@@A@@YAXXZ 0000000180057000     njsResultSet.obj
 0002:00012000       $stateUnwindMap$??1rsBaton@@QEAA@XZ 0000000180057000     njsResultSet.obj
 0002:00012000       $stateUnwindMap$??1ObjectWrap@Nan@@UEAA@XZ 0000000180057000     njsOracle.obj
 0002:00012000       $stateUnwindMap$??__F?iLobTemplate_s@ILob@@2V?$Persistent@VFunctionTemplate@v8@@V?$NonCopyablePersistentTraits@VFunctionTemplate@v8@@@2@@Nan@@A@@YAXXZ 0000000180057000     njsIntLob.obj
 0002:00012000       $stateUnwindMap$??__F?connectionTemplate_s@Connection@@2V?$Persistent@VFunctionTemplate@v8@@V?$NonCopyablePersistentTraits@VFunctionTemplate@v8@@@2@@Nan@@A@@YAXXZ 0000000180057000     njsConnection.obj
 0002:00012010       $ip2state$??1ObjectWrap@Nan@@UEAA@XZ 0000000180057010     njsOracle.obj
 0002:00012018       $unwind$??$free_environment@D@@YAXQEAPEAD@Z 0000000180057018     libucrt:environment_initialization.obj
 0002:00012018       $unwind$??$free_environment@_W@@YAXQEAPEA_W@Z 0000000180057018     libucrt:environment_initialization.obj
 0002:00012018       $unwind$?Wrap@ObjectWrap@Nan@@IEAAXV?$Local@VObject@v8@@@v8@@@Z 0000000180057018     njsOracle.obj
 0002:00012024       $unwind$??0connectionBaton@@QEAA@V?$Local@VFunction@v8@@@v8@@V?$Local@VObject@v8@@@2@@Z 0000000180057024     njsOracle.obj
 0002:00012038       $stateUnwindMap$??0connectionBaton@@QEAA@V?$Local@VFunction@v8@@@v8@@V?$Local@VObject@v8@@@2@@Z 0000000180057038     njsOracle.obj
 0002:00012070       $ip2state$??0connectionBaton@@QEAA@V?$Local@VFunction@v8@@@v8@@V?$Local@VObject@v8@@@2@@Z 0000000180057070     njsOracle.obj
 0002:000120b8       $unwind$??1connectionBaton@@QEAA@XZ 00000001800570b8     njsOracle.obj
 0002:000120d0       $stateUnwindMap$??1connectionBaton@@QEAA@XZ 00000001800570d0     njsOracle.obj
 0002:000120d0       $stateUnwindMap$??1poolBaton@@QEAA@XZ 00000001800570d0     njsPool.obj
 0002:000120f0       $ip2state$??1connectionBaton@@QEAA@XZ 00000001800570f0     njsOracle.obj
 0002:000120f8       $unwind$??__F?oracledbTemplate_s@Oracledb@@0V?$Persistent@VFunctionTemplate@v8@@V?$NonCopyablePersistentTraits@VFunctionTemplate@v8@@@2@@Nan@@A@@YAXXZ 00000001800570f8     njsOracle.obj
 0002:00012108       $ip2state$??__F?oracledbTemplate_s@Oracledb@@0V?$Persistent@VFunctionTemplate@v8@@V?$NonCopyablePersistentTraits@VFunctionTemplate@v8@@@2@@Nan@@A@@YAXXZ 0000000180057108     njsOracle.obj
 0002:00012110       $unwind$??0Oracledb@@AEAA@XZ 0000000180057110     njsOracle.obj
 0002:00012130       $stateUnwindMap$??0Oracledb@@AEAA@XZ 0000000180057130     njsOracle.obj
 0002:00012160       $ip2state$??0Oracledb@@AEAA@XZ 0000000180057160     njsOracle.obj
 0002:000121a8       $unwind$??1Oracledb@@EEAA@XZ 00000001800571a8     njsOracle.obj
 0002:000121c0       $stateUnwindMap$??1ResultSet@@UEAA@XZ 00000001800571c0     njsResultSet.obj
 0002:000121c0       $stateUnwindMap$??1Connection@@EEAA@XZ 00000001800571c0     njsConnection.obj
 0002:000121c0       $stateUnwindMap$??1Oracledb@@EEAA@XZ 00000001800571c0     njsOracle.obj
 0002:000121c0       $stateUnwindMap$??1ILob@@EEAA@XZ 00000001800571c0     njsIntLob.obj
 0002:000121c0       $stateUnwindMap$??1Pool@@EEAA@XZ 00000001800571c0     njsPool.obj
 0002:000121e8       $ip2state$??1Oracledb@@EEAA@XZ 00000001800571e8     njsOracle.obj
 0002:00012200       $unwind$?driverName@Oracledb@@AEBA?BV?$basic_string@DU?$char_traits@D@std@@V?$allocator@D@2@@std@@XZ 0000000180057200     njsOracle.obj
 0002:00012214       $stateUnwindMap$?driverName@Oracledb@@AEBA?BV?$basic_string@DU?$char_traits@D@std@@V?$allocator@D@2@@std@@XZ 0000000180057214     njsOracle.obj
 0002:00012220       $ip2state$?driverName@Oracledb@@AEBA?BV?$basic_string@DU?$char_traits@D@std@@V?$allocator@D@2@@std@@XZ 0000000180057220     njsOracle.obj
 0002:00012238       $unwind$?Init@Oracledb@@SAXV?$Local@VObject@v8@@@v8@@@Z 0000000180057238     njsOracle.obj
 0002:00012250       $stateUnwindMap$?Init@Pool@@SAXV?$Local@VObject@v8@@@v8@@@Z 0000000180057250     njsPool.obj
 0002:00012250       $stateUnwindMap$?Init@Connection@@SAXV?$Local@VObject@v8@@@v8@@@Z 0000000180057250     njsConnection.obj
 0002:00012250       $stateUnwindMap$?Init@Oracledb@@SAXV?$Local@VObject@v8@@@v8@@@Z 0000000180057250     njsOracle.obj
 0002:00012250       $stateUnwindMap$?Init@ILob@@SAXV?$Local@VObject@v8@@@v8@@@Z 0000000180057250     njsIntLob.obj
 0002:00012250       $stateUnwindMap$?Init@ResultSet@@SAXV?$Local@VObject@v8@@@v8@@@Z 0000000180057250     njsResultSet.obj
 0002:00012258       $ip2state$?Init@Oracledb@@SAXV?$Local@VObject@v8@@@v8@@@Z 0000000180057258     njsOracle.obj
 0002:00012270       $unwind$?New@Oracledb@@CAXAEBV?$FunctionCallbackInfo@VValue@v8@@@Nan@@@Z 0000000180057270     njsOracle.obj
 0002:00012288       $stateUnwindMap$?New@Oracledb@@CAXAEBV?$FunctionCallbackInfo@VValue@v8@@@Nan@@@Z 0000000180057288     njsOracle.obj
 0002:00012290       $ip2state$?New@Oracledb@@CAXAEBV?$FunctionCallbackInfo@VValue@v8@@@Nan@@@Z 0000000180057290     njsOracle.obj
 0002:000122a8       $unwind$?GetPoolMin@Oracledb@@CAXV?$Local@VString@v8@@@v8@@AEBV?$PropertyCallbackInfo@VValue@v8@@@Nan@@@Z 00000001800572a8     njsOracle.obj
 0002:000122bc       $stateUnwindMap$?GetPoolMin@Pool@@CAXV?$Local@VString@v8@@@v8@@AEBV?$PropertyCallbackInfo@VValue@v8@@@Nan@@@Z 00000001800572bc     njsPool.obj
 0002:000122bc       $stateUnwindMap$?GetPoolMin@Oracledb@@CAXV?$Local@VString@v8@@@v8@@AEBV?$PropertyCallbackInfo@VValue@v8@@@Nan@@@Z 00000001800572bc     njsOracle.obj
 0002:000122bc       $stateUnwindMap$?GetPoolMax@Pool@@CAXV?$Local@VString@v8@@@v8@@AEBV?$PropertyCallbackInfo@VValue@v8@@@Nan@@@Z 00000001800572bc     njsPool.obj
 0002:000122bc       $stateUnwindMap$?GetPrefetchRows@Oracledb@@CAXV?$Local@VString@v8@@@v8@@AEBV?$PropertyCallbackInfo@VValue@v8@@@Nan@@@Z 00000001800572bc     njsOracle.obj
 0002:000122bc       $stateUnwindMap$?GetPoolTimeout@Pool@@CAXV?$Local@VString@v8@@@v8@@AEBV?$PropertyCallbackInfo@VValue@v8@@@Nan@@@Z 00000001800572bc     njsPool.obj
 0002:000122bc       $stateUnwindMap$?SetExternalAuth@Oracledb@@CAXV?$Local@VString@v8@@@v8@@V?$Local@VValue@v8@@@3@AEBV?$PropertyCallbackInfo@X@Nan@@@Z 00000001800572bc     njsOracle.obj
 0002:000122bc       $stateUnwindMap$?GetPoolMax@Oracledb@@CAXV?$Local@VString@v8@@@v8@@AEBV?$PropertyCallbackInfo@VValue@v8@@@Nan@@@Z 00000001800572bc     njsOracle.obj
 0002:000122bc       $stateUnwindMap$?SetType@ILob@@CAXV?$Local@VString@v8@@@v8@@V?$Local@VValue@v8@@@3@AEBV?$PropertyCallbackInfo@X@Nan@@@Z 00000001800572bc     njsIntLob.obj
 0002:000122bc       $stateUnwindMap$?SetOracleServerVersion@Connection@@CAXV?$Local@VString@v8@@@v8@@V?$Local@VValue@v8@@@3@AEBV?$PropertyCallbackInfo@X@Nan@@@Z 00000001800572bc     njsConnection.obj
 0002:000122bc       $stateUnwindMap$?GetExtendedMetaData@Oracledb@@CAXV?$Local@VString@v8@@@v8@@AEBV?$PropertyCallbackInfo@VValue@v8@@@Nan@@@Z 00000001800572bc     njsOracle.obj
 0002:000122bc       $stateUnwindMap$?SetLength@ILob@@CAXV?$Local@VString@v8@@@v8@@V?$Local@VValue@v8@@@3@AEBV?$PropertyCallbackInfo@X@Nan@@@Z 00000001800572bc     njsIntLob.obj
 0002:000122bc       $stateUnwindMap$?GetPoolTimeout@Oracledb@@CAXV?$Local@VString@v8@@@v8@@AEBV?$PropertyCallbackInfo@VValue@v8@@@Nan@@@Z 00000001800572bc     njsOracle.obj
 0002:000122bc       $stateUnwindMap$?SetAutoCommit@Oracledb@@CAXV?$Local@VString@v8@@@v8@@V?$Local@VValue@v8@@@3@AEBV?$PropertyCallbackInfo@X@Nan@@@Z 00000001800572bc     njsOracle.obj
 0002:000122bc       $stateUnwindMap$?SetStmtCacheSize@Connection@@CAXV?$Local@VString@v8@@@v8@@V?$Local@VValue@v8@@@3@AEBV?$PropertyCallbackInfo@X@Nan@@@Z 00000001800572bc     njsConnection.obj
 0002:000122bc       $stateUnwindMap$?GetAutoCommit@Oracledb@@CAXV?$Local@VString@v8@@@v8@@AEBV?$PropertyCallbackInfo@VValue@v8@@@Nan@@@Z 00000001800572bc     njsOracle.obj
 0002:000122bc       $stateUnwindMap$?SetExtendedMetaData@Oracledb@@CAXV?$Local@VString@v8@@@v8@@V?$Local@VValue@v8@@@3@AEBV?$PropertyCallbackInfo@X@Nan@@@Z 00000001800572bc     njsOracle.obj
 0002:000122bc       $stateUnwindMap$?GetPoolIncrement@Pool@@CAXV?$Local@VString@v8@@@v8@@AEBV?$PropertyCallbackInfo@VValue@v8@@@Nan@@@Z 00000001800572bc     njsPool.obj
 0002:000122bc       $stateUnwindMap$?SetChunkSize@ILob@@CAXV?$Local@VString@v8@@@v8@@V?$Local@VValue@v8@@@3@AEBV?$PropertyCallbackInfo@X@Nan@@@Z 00000001800572bc     njsIntLob.obj
 0002:000122bc       $stateUnwindMap$?GetStmtCacheSize@Pool@@CAXV?$Local@VString@v8@@@v8@@AEBV?$PropertyCallbackInfo@VValue@v8@@@Nan@@@Z 00000001800572bc     njsPool.obj
 0002:000122bc       $stateUnwindMap$?GetConnectionClass@Oracledb@@CAXV?$Local@VString@v8@@@v8@@AEBV?$PropertyCallbackInfo@VValue@v8@@@Nan@@@Z 00000001800572bc     njsOracle.obj
 0002:000122bc       $stateUnwindMap$?GetOutFormat@Oracledb@@CAXV?$Local@VString@v8@@@v8@@AEBV?$PropertyCallbackInfo@VValue@v8@@@Nan@@@Z 00000001800572bc     njsOracle.obj
 0002:000122c8       $ip2state$?GetPoolMin@Oracledb@@CAXV?$Local@VString@v8@@@v8@@AEBV?$PropertyCallbackInfo@VValue@v8@@@Nan@@@Z 00000001800572c8     njsOracle.obj
 0002:000122e0       $unwind$?SetPoolMin@Oracledb@@CAXV?$Local@VString@v8@@@v8@@V?$Local@VValue@v8@@@3@AEBV?$PropertyCallbackInfo@X@Nan@@@Z 00000001800572e0     njsOracle.obj
 0002:000122f8       $stateUnwindMap$?SetPoolMin@Oracledb@@CAXV?$Local@VString@v8@@@v8@@V?$Local@VValue@v8@@@3@AEBV?$PropertyCallbackInfo@X@Nan@@@Z 00000001800572f8     njsOracle.obj
 0002:000122f8       $stateUnwindMap$?SetStmtCacheSize@Oracledb@@CAXV?$Local@VString@v8@@@v8@@V?$Local@VValue@v8@@@3@AEBV?$PropertyCallbackInfo@X@Nan@@@Z 00000001800572f8     njsOracle.obj
 0002:000122f8       $stateUnwindMap$?SetPoolMax@Oracledb@@CAXV?$Local@VString@v8@@@v8@@V?$Local@VValue@v8@@@3@AEBV?$PropertyCallbackInfo@X@Nan@@@Z 00000001800572f8     njsOracle.obj
 0002:000122f8       $stateUnwindMap$?SetPrefetchRows@Oracledb@@CAXV?$Local@VString@v8@@@v8@@V?$Local@VValue@v8@@@3@AEBV?$PropertyCallbackInfo@X@Nan@@@Z 00000001800572f8     njsOracle.obj
 0002:000122f8       $stateUnwindMap$?SetPoolIncrement@Oracledb@@CAXV?$Local@VString@v8@@@v8@@V?$Local@VValue@v8@@@3@AEBV?$PropertyCallbackInfo@X@Nan@@@Z 00000001800572f8     njsOracle.obj
 0002:000122f8       $stateUnwindMap$?SetOutFormat@Oracledb@@CAXV?$Local@VString@v8@@@v8@@V?$Local@VValue@v8@@@3@AEBV?$PropertyCallbackInfo@X@Nan@@@Z 00000001800572f8     njsOracle.obj
 0002:000122f8       $stateUnwindMap$?SetLobPrefetchSize@Oracledb@@CAXV?$Local@VString@v8@@@v8@@V?$Local@VValue@v8@@@3@AEBV?$PropertyCallbackInfo@X@Nan@@@Z 00000001800572f8     njsOracle.obj
 0002:000122f8       $stateUnwindMap$?SetPoolTimeout@Oracledb@@CAXV?$Local@VString@v8@@@v8@@V?$Local@VValue@v8@@@3@AEBV?$PropertyCallbackInfo@X@Nan@@@Z 00000001800572f8     njsOracle.obj
 0002:00012310       $ip2state$?SetPoolMin@Oracledb@@CAXV?$Local@VString@v8@@@v8@@V?$Local@VValue@v8@@@3@AEBV?$PropertyCallbackInfo@X@Nan@@@Z 0000000180057310     njsOracle.obj
 0002:00012348       $unwind$?GetPoolMax@Oracledb@@CAXV?$Local@VString@v8@@@v8@@AEBV?$PropertyCallbackInfo@VValue@v8@@@Nan@@@Z 0000000180057348     njsOracle.obj
 0002:00012360       $ip2state$?GetPoolMax@Oracledb@@CAXV?$Local@VString@v8@@@v8@@AEBV?$PropertyCallbackInfo@VValue@v8@@@Nan@@@Z 0000000180057360     njsOracle.obj
 0002:00012378       $unwind$?SetPoolMax@Oracledb@@CAXV?$Local@VString@v8@@@v8@@V?$Local@VValue@v8@@@3@AEBV?$PropertyCallbackInfo@X@Nan@@@Z 0000000180057378     njsOracle.obj
 0002:00012390       $ip2state$?SetPoolMax@Oracledb@@CAXV?$Local@VString@v8@@@v8@@V?$Local@VValue@v8@@@3@AEBV?$PropertyCallbackInfo@X@Nan@@@Z 0000000180057390     njsOracle.obj
 0002:000123c8       $unwind$?GetPoolIncrement@Oracledb@@CAXV?$Local@VString@v8@@@v8@@AEBV?$PropertyCallbackInfo@VValue@v8@@@Nan@@@Z 00000001800573c8     njsOracle.obj
 0002:000123e0       $stateUnwindMap$?GetPoolIncrement@Oracledb@@CAXV?$Local@VString@v8@@@v8@@AEBV?$PropertyCallbackInfo@VValue@v8@@@Nan@@@Z 00000001800573e0     njsOracle.obj
 0002:000123e0       $stateUnwindMap$?GetMaxRows@Oracledb@@CAXV?$Local@VString@v8@@@v8@@AEBV?$PropertyCallbackInfo@VValue@v8@@@Nan@@@Z 00000001800573e0     njsOracle.obj
 0002:000123e0       $stateUnwindMap$?DoFetch@Connection@@SAXPEAUeBaton@@@Z 00000001800573e0     njsConnection.obj
 0002:000123e0       $stateUnwindMap$?GetStmtCacheSize@Oracledb@@CAXV?$Local@VString@v8@@@v8@@AEBV?$PropertyCallbackInfo@VValue@v8@@@Nan@@@Z 00000001800573e0     njsOracle.obj
 0002:000123e0       $stateUnwindMap$?GetOracleClientVersion@Oracledb@@CAXV?$Local@VString@v8@@@v8@@AEBV?$PropertyCallbackInfo@VValue@v8@@@Nan@@@Z 00000001800573e0     njsOracle.obj
 0002:000123e0       $stateUnwindMap$?GetLobPrefetchSize@Oracledb@@CAXV?$Local@VString@v8@@@v8@@AEBV?$PropertyCallbackInfo@VValue@v8@@@Nan@@@Z 00000001800573e0     njsOracle.obj
 0002:000123e8       $ip2state$?GetPoolIncrement@Oracledb@@CAXV?$Local@VString@v8@@@v8@@AEBV?$PropertyCallbackInfo@VValue@v8@@@Nan@@@Z 00000001800573e8     njsOracle.obj
 0002:00012400       $unwind$?SetPoolIncrement@Oracledb@@CAXV?$Local@VString@v8@@@v8@@V?$Local@VValue@v8@@@3@AEBV?$PropertyCallbackInfo@X@Nan@@@Z 0000000180057400     njsOracle.obj
 0002:00012418       $ip2state$?SetPoolIncrement@Oracledb@@CAXV?$Local@VString@v8@@@v8@@V?$Local@VValue@v8@@@3@AEBV?$PropertyCallbackInfo@X@Nan@@@Z 0000000180057418     njsOracle.obj
 0002:00012450       $unwind$?GetPoolTimeout@Oracledb@@CAXV?$Local@VString@v8@@@v8@@AEBV?$PropertyCallbackInfo@VValue@v8@@@Nan@@@Z 0000000180057450     njsOracle.obj
 0002:00012468       $ip2state$?GetPoolTimeout@Oracledb@@CAXV?$Local@VString@v8@@@v8@@AEBV?$PropertyCallbackInfo@VValue@v8@@@Nan@@@Z 0000000180057468     njsOracle.obj
 0002:00012480       $unwind$?SetPoolTimeout@Oracledb@@CAXV?$Local@VString@v8@@@v8@@V?$Local@VValue@v8@@@3@AEBV?$PropertyCallbackInfo@X@Nan@@@Z 0000000180057480     njsOracle.obj
 0002:00012498       $ip2state$?SetPoolTimeout@Oracledb@@CAXV?$Local@VString@v8@@@v8@@V?$Local@VValue@v8@@@3@AEBV?$PropertyCallbackInfo@X@Nan@@@Z 0000000180057498     njsOracle.obj
 0002:000124d0       $unwind$?GetMaxRows@Oracledb@@CAXV?$Local@VString@v8@@@v8@@AEBV?$PropertyCallbackInfo@VValue@v8@@@Nan@@@Z 00000001800574d0     njsOracle.obj
 0002:000124e8       $ip2state$?GetMaxRows@Oracledb@@CAXV?$Local@VString@v8@@@v8@@AEBV?$PropertyCallbackInfo@VValue@v8@@@Nan@@@Z 00000001800574e8     njsOracle.obj
 0002:00012500       $unwind$?SetMaxRows@Oracledb@@CAXV?$Local@VString@v8@@@v8@@V?$Local@VValue@v8@@@3@AEBV?$PropertyCallbackInfo@X@Nan@@@Z 0000000180057500     njsOracle.obj
 0002:00012520       $stateUnwindMap$?SetMaxRows@Oracledb@@CAXV?$Local@VString@v8@@@v8@@V?$Local@VValue@v8@@@3@AEBV?$PropertyCallbackInfo@X@Nan@@@Z 0000000180057520     njsOracle.obj
 0002:00012540       $ip2state$?SetMaxRows@Oracledb@@CAXV?$Local@VString@v8@@@v8@@V?$Local@VValue@v8@@@3@AEBV?$PropertyCallbackInfo@X@Nan@@@Z 0000000180057540     njsOracle.obj
 0002:00012588       $unwind$?GetOutFormat@Oracledb@@CAXV?$Local@VString@v8@@@v8@@AEBV?$PropertyCallbackInfo@VValue@v8@@@Nan@@@Z 0000000180057588     njsOracle.obj
 0002:000125a0       $ip2state$?GetOutFormat@Oracledb@@CAXV?$Local@VString@v8@@@v8@@AEBV?$PropertyCallbackInfo@VValue@v8@@@Nan@@@Z 00000001800575a0     njsOracle.obj
 0002:000125b8       $unwind$?SetOutFormat@Oracledb@@CAXV?$Local@VString@v8@@@v8@@V?$Local@VValue@v8@@@3@AEBV?$PropertyCallbackInfo@X@Nan@@@Z 00000001800575b8     njsOracle.obj
 0002:000125d0       $ip2state$?SetOutFormat@Oracledb@@CAXV?$Local@VString@v8@@@v8@@V?$Local@VValue@v8@@@3@AEBV?$PropertyCallbackInfo@X@Nan@@@Z 00000001800575d0     njsOracle.obj
 0002:00012608       $unwind$?GetStmtCacheSize@Oracledb@@CAXV?$Local@VString@v8@@@v8@@AEBV?$PropertyCallbackInfo@VValue@v8@@@Nan@@@Z 0000000180057608     njsOracle.obj
 0002:00012620       $ip2state$?GetStmtCacheSize@Oracledb@@CAXV?$Local@VString@v8@@@v8@@AEBV?$PropertyCallbackInfo@VValue@v8@@@Nan@@@Z 0000000180057620     njsOracle.obj
 0002:00012638       $unwind$?SetStmtCacheSize@Oracledb@@CAXV?$Local@VString@v8@@@v8@@V?$Local@VValue@v8@@@3@AEBV?$PropertyCallbackInfo@X@Nan@@@Z 0000000180057638     njsOracle.obj
 0002:00012650       $ip2state$?SetStmtCacheSize@Oracledb@@CAXV?$Local@VString@v8@@@v8@@V?$Local@VValue@v8@@@3@AEBV?$PropertyCallbackInfo@X@Nan@@@Z 0000000180057650     njsOracle.obj
 0002:00012688       $unwind$?GetPrefetchRows@Oracledb@@CAXV?$Local@VString@v8@@@v8@@AEBV?$PropertyCallbackInfo@VValue@v8@@@Nan@@@Z 0000000180057688     njsOracle.obj
 0002:000126a0       $ip2state$?GetPrefetchRows@Oracledb@@CAXV?$Local@VString@v8@@@v8@@AEBV?$PropertyCallbackInfo@VValue@v8@@@Nan@@@Z 00000001800576a0     njsOracle.obj
 0002:000126b8       $unwind$?SetPrefetchRows@Oracledb@@CAXV?$Local@VString@v8@@@v8@@V?$Local@VValue@v8@@@3@AEBV?$PropertyCallbackInfo@X@Nan@@@Z 00000001800576b8     njsOracle.obj
 0002:000126d0       $ip2state$?SetPrefetchRows@Oracledb@@CAXV?$Local@VString@v8@@@v8@@V?$Local@VValue@v8@@@3@AEBV?$PropertyCallbackInfo@X@Nan@@@Z 00000001800576d0     njsOracle.obj
 0002:00012708       $unwind$?GetAutoCommit@Oracledb@@CAXV?$Local@VString@v8@@@v8@@AEBV?$PropertyCallbackInfo@VValue@v8@@@Nan@@@Z 0000000180057708     njsOracle.obj
 0002:00012720       $ip2state$?GetAutoCommit@Oracledb@@CAXV?$Local@VString@v8@@@v8@@AEBV?$PropertyCallbackInfo@VValue@v8@@@Nan@@@Z 0000000180057720     njsOracle.obj
 0002:00012738       $unwind$?SetAutoCommit@Oracledb@@CAXV?$Local@VString@v8@@@v8@@V?$Local@VValue@v8@@@3@AEBV?$PropertyCallbackInfo@X@Nan@@@Z 0000000180057738     njsOracle.obj
 0002:00012750       $ip2state$?SetAutoCommit@Oracledb@@CAXV?$Local@VString@v8@@@v8@@V?$Local@VValue@v8@@@3@AEBV?$PropertyCallbackInfo@X@Nan@@@Z 0000000180057750     njsOracle.obj
 0002:00012768       $unwind$?GetExtendedMetaData@Oracledb@@CAXV?$Local@VString@v8@@@v8@@AEBV?$PropertyCallbackInfo@VValue@v8@@@Nan@@@Z 0000000180057768     njsOracle.obj
 0002:00012780       $ip2state$?GetExtendedMetaData@Oracledb@@CAXV?$Local@VString@v8@@@v8@@AEBV?$PropertyCallbackInfo@VValue@v8@@@Nan@@@Z 0000000180057780     njsOracle.obj
 0002:00012798       $unwind$?SetExtendedMetaData@Oracledb@@CAXV?$Local@VString@v8@@@v8@@V?$Local@VValue@v8@@@3@AEBV?$PropertyCallbackInfo@X@Nan@@@Z 0000000180057798     njsOracle.obj
 0002:000127b0       $ip2state$?SetExtendedMetaData@Oracledb@@CAXV?$Local@VString@v8@@@v8@@V?$Local@VValue@v8@@@3@AEBV?$PropertyCallbackInfo@X@Nan@@@Z 00000001800577b0     njsOracle.obj
 0002:000127c8       $unwind$?SetVersion@Oracledb@@CAXV?$Local@VString@v8@@@v8@@V?$Local@VValue@v8@@@3@AEBV?$PropertyCallbackInfo@X@Nan@@@Z 00000001800577c8     njsOracle.obj
 0002:000127dc       $stateUnwindMap$?SetVersion@Oracledb@@CAXV?$Local@VString@v8@@@v8@@V?$Local@VValue@v8@@@3@AEBV?$PropertyCallbackInfo@X@Nan@@@Z 00000001800577dc     njsOracle.obj
 0002:000127dc       $stateUnwindMap$?SetOracleClientVersion@Oracledb@@CAXV?$Local@VString@v8@@@v8@@V?$Local@VValue@v8@@@3@AEBV?$PropertyCallbackInfo@X@Nan@@@Z 00000001800577dc     njsOracle.obj
 0002:000127f0       $ip2state$?SetVersion@Oracledb@@CAXV?$Local@VString@v8@@@v8@@V?$Local@VValue@v8@@@3@AEBV?$PropertyCallbackInfo@X@Nan@@@Z 00000001800577f0     njsOracle.obj
 0002:00012818       $unwind$?GetConnectionClass@Oracledb@@CAXV?$Local@VString@v8@@@v8@@AEBV?$PropertyCallbackInfo@VValue@v8@@@Nan@@@Z 0000000180057818     njsOracle.obj
 0002:00012830       $ip2state$?GetConnectionClass@Oracledb@@CAXV?$Local@VString@v8@@@v8@@AEBV?$PropertyCallbackInfo@VValue@v8@@@Nan@@@Z 0000000180057830     njsOracle.obj
 0002:00012848       $unwind$?SetConnectionClass@Oracledb@@CAXV?$Local@VString@v8@@@v8@@V?$Local@VValue@v8@@@3@AEBV?$PropertyCallbackInfo@X@Nan@@@Z 0000000180057848     njsOracle.obj
 0002:00012860       $stateUnwindMap$?SetConnectionClass@Oracledb@@CAXV?$Local@VString@v8@@@v8@@V?$Local@VValue@v8@@@3@AEBV?$PropertyCallbackInfo@X@Nan@@@Z 0000000180057860     njsOracle.obj
 0002:00012878       $ip2state$?SetConnectionClass@Oracledb@@CAXV?$Local@VString@v8@@@v8@@V?$Local@VValue@v8@@@3@AEBV?$PropertyCallbackInfo@X@Nan@@@Z 0000000180057878     njsOracle.obj
 0002:000128b0       $unwind$?GetExternalAuth@Oracledb@@CAXV?$Local@VString@v8@@@v8@@AEBV?$PropertyCallbackInfo@VValue@v8@@@Nan@@@Z 00000001800578b0     njsOracle.obj
 0002:000128c4       $stateUnwindMap$?GetExternalAuth@Oracledb@@CAXV?$Local@VString@v8@@@v8@@AEBV?$PropertyCallbackInfo@VValue@v8@@@Nan@@@Z 00000001800578c4     njsOracle.obj
 0002:000128d0       $ip2state$?GetExternalAuth@Oracledb@@CAXV?$Local@VString@v8@@@v8@@AEBV?$PropertyCallbackInfo@VValue@v8@@@Nan@@@Z 00000001800578d0     njsOracle.obj
 0002:000128e8       $unwind$?SetExternalAuth@Oracledb@@CAXV?$Local@VString@v8@@@v8@@V?$Local@VValue@v8@@@3@AEBV?$PropertyCallbackInfo@X@Nan@@@Z 00000001800578e8     njsOracle.obj
 0002:00012900       $ip2state$?SetExternalAuth@Oracledb@@CAXV?$Local@VString@v8@@@v8@@V?$Local@VValue@v8@@@3@AEBV?$PropertyCallbackInfo@X@Nan@@@Z 0000000180057900     njsOracle.obj
 0002:00012918       $unwind$?GetLobPrefetchSize@Oracledb@@CAXV?$Local@VString@v8@@@v8@@AEBV?$PropertyCallbackInfo@VValue@v8@@@Nan@@@Z 0000000180057918     njsOracle.obj
 0002:00012930       $ip2state$?GetLobPrefetchSize@Oracledb@@CAXV?$Local@VString@v8@@@v8@@AEBV?$PropertyCallbackInfo@VValue@v8@@@Nan@@@Z 0000000180057930     njsOracle.obj
 0002:00012948       $unwind$?SetLobPrefetchSize@Oracledb@@CAXV?$Local@VString@v8@@@v8@@V?$Local@VValue@v8@@@3@AEBV?$PropertyCallbackInfo@X@Nan@@@Z 0000000180057948     njsOracle.obj
 0002:00012960       $ip2state$?SetLobPrefetchSize@Oracledb@@CAXV?$Local@VString@v8@@@v8@@V?$Local@VValue@v8@@@3@AEBV?$PropertyCallbackInfo@X@Nan@@@Z 0000000180057960     njsOracle.obj
 0002:00012998       $unwind$?GetFetchAsString@Oracledb@@CAXV?$Local@VString@v8@@@v8@@AEBV?$PropertyCallbackInfo@VValue@v8@@@Nan@@@Z 0000000180057998     njsOracle.obj
 0002:000129b8       $stateUnwindMap$?GetFetchAsString@Oracledb@@CAXV?$Local@VString@v8@@@v8@@AEBV?$PropertyCallbackInfo@VValue@v8@@@Nan@@@Z 00000001800579b8     njsOracle.obj
 0002:000129c0       $ip2state$?GetFetchAsString@Oracledb@@CAXV?$Local@VString@v8@@@v8@@AEBV?$PropertyCallbackInfo@VValue@v8@@@Nan@@@Z 00000001800579c0     njsOracle.obj
 0002:000129d8       $unwind$?SetFetchAsString@Oracledb@@CAXV?$Local@VString@v8@@@v8@@V?$Local@VValue@v8@@@3@AEBV?$PropertyCallbackInfo@X@Nan@@@Z 00000001800579d8     njsOracle.obj
 0002:000129fc       $stateUnwindMap$?SetFetchAsString@Oracledb@@CAXV?$Local@VString@v8@@@v8@@V?$Local@VValue@v8@@@3@AEBV?$PropertyCallbackInfo@X@Nan@@@Z 00000001800579fc     njsOracle.obj
 0002:00012a30       $ip2state$?SetFetchAsString@Oracledb@@CAXV?$Local@VString@v8@@@v8@@V?$Local@VValue@v8@@@3@AEBV?$PropertyCallbackInfo@X@Nan@@@Z 0000000180057a30     njsOracle.obj
 0002:00012a88       $unwind$?GetOracleClientVersion@Oracledb@@CAXV?$Local@VString@v8@@@v8@@AEBV?$PropertyCallbackInfo@VValue@v8@@@Nan@@@Z 0000000180057a88     njsOracle.obj
 0002:00012aa0       $ip2state$?GetOracleClientVersion@Oracledb@@CAXV?$Local@VString@v8@@@v8@@AEBV?$PropertyCallbackInfo@VValue@v8@@@Nan@@@Z 0000000180057aa0     njsOracle.obj
 0002:00012ab8       $unwind$?SetOracleClientVersion@Oracledb@@CAXV?$Local@VString@v8@@@v8@@V?$Local@VValue@v8@@@3@AEBV?$PropertyCallbackInfo@X@Nan@@@Z 0000000180057ab8     njsOracle.obj
 0002:00012ad0       $ip2state$?SetOracleClientVersion@Oracledb@@CAXV?$Local@VString@v8@@@v8@@V?$Local@VValue@v8@@@3@AEBV?$PropertyCallbackInfo@X@Nan@@@Z 0000000180057ad0     njsOracle.obj
 0002:00012af8       $unwind$?GetConnection@Oracledb@@CAXAEBV?$FunctionCallbackInfo@VValue@v8@@@Nan@@@Z 0000000180057af8     njsOracle.obj
 0002:00012b24       $stateUnwindMap$?GetConnection@Oracledb@@CAXAEBV?$FunctionCallbackInfo@VValue@v8@@@Nan@@@Z 0000000180057b24     njsOracle.obj
 0002:00012bc0       $ip2state$?GetConnection@Oracledb@@CAXAEBV?$FunctionCallbackInfo@VValue@v8@@@Nan@@@Z 0000000180057bc0     njsOracle.obj
 0002:00012cf8       $unwind$?Async_GetConnection@Oracledb@@CAXPEAUuv_work_s@@@Z 0000000180057cf8     njsOracle.obj
 0002:00012d0c       $stateUnwindMap$?Async_GetConnection@Oracledb@@CAXPEAUuv_work_s@@@Z 0000000180057d0c     njsOracle.obj
 0002:00012d24       $tryMap$?Async_GetConnection@Oracledb@@CAXPEAUuv_work_s@@@Z 0000000180057d24     njsOracle.obj
 0002:00012d38       $handlerMap$0$?Async_GetConnection@Oracledb@@CAXPEAUuv_work_s@@@Z 0000000180057d38     njsOracle.obj
 0002:00012d50       $ip2state$?Async_GetConnection@Oracledb@@CAXPEAUuv_work_s@@@Z 0000000180057d50     njsOracle.obj
 0002:00012d90       $unwind$?catch$0@?0??Async_GetConnection@Oracledb@@CAXPEAUuv_work_s@@@Z@4HA 0000000180057d90     njsOracle.obj
 0002:00012da0       $unwind$?Async_AfterGetConnection@Oracledb@@CAXPEAUuv_work_s@@@Z 0000000180057da0     njsOracle.obj
 0002:00012dc0       $stateUnwindMap$?Async_AfterGetConnection@Oracledb@@CAXPEAUuv_work_s@@@Z 0000000180057dc0     njsOracle.obj
 0002:00012dc0       $stateUnwindMap$?Async_AfterRead@ILob@@CAXPEAUuv_work_s@@@Z 0000000180057dc0     njsIntLob.obj
 0002:00012dc0       $stateUnwindMap$?Async_AfterGetConnection@Pool@@CAXPEAUuv_work_s@@@Z 0000000180057dc0     njsPool.obj
 0002:00012dc0       $stateUnwindMap$?Async_AfterGetRows@ResultSet@@CAXPEAUuv_work_s@@@Z 0000000180057dc0     njsResultSet.obj
 0002:00012dd0       $ip2state$?Async_AfterGetConnection@Oracledb@@CAXPEAUuv_work_s@@@Z 0000000180057dd0     njsOracle.obj
 0002:00012df8       $unwind$?CreatePool@Oracledb@@CAXAEBV?$FunctionCallbackInfo@VValue@v8@@@Nan@@@Z 0000000180057df8     njsOracle.obj
 0002:00012e24       $stateUnwindMap$?CreatePool@Oracledb@@CAXAEBV?$FunctionCallbackInfo@VValue@v8@@@Nan@@@Z 0000000180057e24     njsOracle.obj
 0002:00012f00       $ip2state$?CreatePool@Oracledb@@CAXAEBV?$FunctionCallbackInfo@VValue@v8@@@Nan@@@Z 0000000180057f00     njsOracle.obj
 0002:000130c8       $unwind$?Async_CreatePool@Oracledb@@CAXPEAUuv_work_s@@@Z 00000001800580c8     njsOracle.obj
 0002:000130e0       $stateUnwindMap$?Async_CreatePool@Oracledb@@CAXPEAUuv_work_s@@@Z 00000001800580e0     njsOracle.obj
 0002:000130f8       $tryMap$?Async_CreatePool@Oracledb@@CAXPEAUuv_work_s@@@Z 00000001800580f8     njsOracle.obj
 0002:0001310c       $handlerMap$0$?Async_CreatePool@Oracledb@@CAXPEAUuv_work_s@@@Z 000000018005810c     njsOracle.obj
 0002:00013120       $ip2state$?Async_CreatePool@Oracledb@@CAXPEAUuv_work_s@@@Z 0000000180058120     njsOracle.obj
 0002:00013160       $unwind$?catch$0@?0??Async_CreatePool@Oracledb@@CAXPEAUuv_work_s@@@Z@4HA 0000000180058160     njsOracle.obj
 0002:00013170       $unwind$?Async_AfterCreatePool@Oracledb@@CAXPEAUuv_work_s@@@Z 0000000180058170     njsOracle.obj
 0002:00013190       $stateUnwindMap$?Async_AfterCreatePool@Oracledb@@CAXPEAUuv_work_s@@@Z 0000000180058190     njsOracle.obj
 0002:000131a0       $ip2state$?Async_AfterCreatePool@Oracledb@@CAXPEAUuv_work_s@@@Z 00000001800581a0     njsOracle.obj
 0002:000131c8       $unwind$init               00000001800581c8     njsOracle.obj
 0002:000131c8       $unwind$?GetValueType@Connection@@CA?AW4ValueType@@V?$Local@VValue@v8@@@v8@@@Z 00000001800581c8     njsConnection.obj
 0002:000131c8       $unwind$??$Unwrap@VConnection@@@ObjectWrap@Nan@@SAPEAVConnection@@V?$Local@VObject@v8@@@v8@@@Z 00000001800581c8     njsOracle.obj
 0002:000131c8       $unwind$??$Unwrap@VILob@@@ObjectWrap@Nan@@SAPEAVILob@@V?$Local@VObject@v8@@@v8@@@Z 00000001800581c8     njsConnection.obj
 0002:000131c8       $unwind$??$Unwrap@VResultSet@@@ObjectWrap@Nan@@SAPEAVResultSet@@V?$Local@VObject@v8@@@v8@@@Z 00000001800581c8     njsConnection.obj
 0002:000131c8       $unwind$??$Unwrap@VOracledb@@@ObjectWrap@Nan@@SAPEAVOracledb@@V?$Local@VObject@v8@@@v8@@@Z 00000001800581c8     njsOracle.obj
 0002:000131c8       $unwind$??$Unwrap@VPool@@@ObjectWrap@Nan@@SAPEAVPool@@V?$Local@VObject@v8@@@v8@@@Z 00000001800581c8     njsOracle.obj
 0002:000131d0       $unwind$?terminate@PoolImpl@@UEAAXXZ 00000001800581d0     dpiPoolImpl.obj
 0002:000131d0       $unwind$?getFetchAsStringTypes@Oracledb@@QEBAPEBW4DataType@@XZ 00000001800581d0     njsOracle.obj
 0002:000131d8       $chain$2$?getFetchAsStringTypes@Oracledb@@QEBAPEBW4DataType@@XZ 00000001800581d8     njsOracle.obj
 0002:000131f4       $chain$3$?getFetchAsStringTypes@Oracledb@@QEBAPEBW4DataType@@XZ 00000001800581f4     njsOracle.obj
 0002:00013204       $unwind$??0?$basic_stringstream@DU?$char_traits@D@std@@V?$allocator@D@2@@std@@QEAA@H@Z 0000000180058204     njsOracle.obj
 0002:00013218       $stateUnwindMap$??0?$basic_stringstream@DU?$char_traits@D@std@@V?$allocator@D@2@@std@@QEAA@H@Z 0000000180058218     njsOracle.obj
 0002:00013230       $ip2state$??0?$basic_stringstream@DU?$char_traits@D@std@@V?$allocator@D@2@@std@@QEAA@H@Z 0000000180058230     njsOracle.obj
 0002:00013258       $unwind$?seekpos@?$basic_stringbuf@DU?$char_traits@D@std@@V?$allocator@D@2@@std@@MEAA?AV?$fpos@U_Mbstatet@@@2@V32@H@Z 0000000180058258     njsOracle.obj
 0002:00013264       $unwind$?seekoff@?$basic_stringbuf@DU?$char_traits@D@std@@V?$allocator@D@2@@std@@MEAA?AV?$fpos@U_Mbstatet@@@2@_JHH@Z 0000000180058264     njsOracle.obj
 0002:00013274       $unwind$?overflow@?$basic_stringbuf@DU?$char_traits@D@std@@V?$allocator@D@2@@std@@MEAAHH@Z 0000000180058274     njsOracle.obj
 0002:00013274       $unwind$__CxxCallCatchBlock$fin$1 0000000180058274     libvcruntime:frame.obj
 0002:00013280       $chain$0$?overflow@?$basic_stringbuf@DU?$char_traits@D@std@@V?$allocator@D@2@@std@@MEAAHH@Z 0000000180058280     njsOracle.obj
 0002:00013294       $chain$6$?overflow@?$basic_stringbuf@DU?$char_traits@D@std@@V?$allocator@D@2@@std@@MEAAHH@Z 0000000180058294     njsOracle.obj
 0002:000132b8       $chain$7$?overflow@?$basic_stringbuf@DU?$char_traits@D@std@@V?$allocator@D@2@@std@@MEAAHH@Z 00000001800582b8     njsOracle.obj
 0002:000132d4       $unwind$??6?$basic_ostream@DU?$char_traits@D@std@@@std@@QEAAAEAV01@H@Z 00000001800582d4     njsOracle.obj
 0002:000132f0       $stateUnwindMap$??6?$basic_ostream@DU?$char_traits@D@std@@@std@@QEAAAEAV01@H@Z 00000001800582f0     njsOracle.obj
 0002:00013308       $ip2state$??6?$basic_ostream@DU?$char_traits@D@std@@@std@@QEAAAEAV01@H@Z 0000000180058308     njsOracle.obj
 0002:00013338       $unwind$?xsputn@?$basic_streambuf@DU?$char_traits@D@std@@@std@@MEAA_JPEBD_J@Z 0000000180058338     njsOracle.obj
 0002:0001334c       $chain$0$?xsputn@?$basic_streambuf@DU?$char_traits@D@std@@@std@@MEAA_JPEBD_J@Z 000000018005834c     njsOracle.obj
 0002:00013360       $chain$1$?xsputn@?$basic_streambuf@DU?$char_traits@D@std@@@std@@MEAA_JPEBD_J@Z 0000000180058360     njsOracle.obj
 0002:00013370       $unwind$?xsgetn@?$basic_streambuf@DU?$char_traits@D@std@@@std@@MEAA_JPEAD_J@Z 0000000180058370     njsOracle.obj
 0002:00013380       $chain$1$?xsgetn@?$basic_streambuf@DU?$char_traits@D@std@@@std@@MEAA_JPEAD_J@Z 0000000180058380     njsOracle.obj
 0002:00013398       $chain$2$?xsgetn@?$basic_streambuf@DU?$char_traits@D@std@@@std@@MEAA_JPEAD_J@Z 0000000180058398     njsOracle.obj
 0002:000133a8       $chain$3$?xsgetn@?$basic_streambuf@DU?$char_traits@D@std@@@std@@MEAA_JPEAD_J@Z 00000001800583a8     njsOracle.obj
 0002:000133c0       $unwind$_DllMainCRTStartup 00000001800583c0     LIBCMT:dll_dllmain.obj
 0002:000133c0       $unwind$?resize@?$vector@PEAUExtBind@@V?$allocator@PEAUExtBind@@@std@@@std@@QEAAX_KAEBQEAUExtBind@@@Z 00000001800583c0     njsConnection.obj
 0002:000133c0       $unwind$?type_case_n@?$output_processor@DV?$string_output_adapter@D@__crt_stdio_output@@V?$format_validation_base@DV?$string_output_adapter@D@__crt_stdio_output@@@2@@__crt_stdio_output@@AEAA_NXZ 00000001800583c0     libucrt:output.obj
 0002:000133c0       $unwind$_initterm_e        00000001800583c0     libucrt:initterm.obj
 0002:000133c0       $unwind$_Getcvt            00000001800583c0     libcpmt:xwctomb.obj
 0002:000133c0       $unwind$??R<lambda_ad1ced32f4ac17aa236e5ef05d6b3b7c>@@QEBAXXZ 00000001800583c0     libucrt:mbctype.obj
 0002:000133c0       $unwind$__acrt_LocaleNameToLCID 00000001800583c0     libucrt:winapi_thunks.obj
 0002:000133c0       $unwind$??4?$_Yarn@D@std@@QEAAAEAV01@PEBD@Z 00000001800583c0     libcpmt:locale0.obj
 0002:000133c0       $unwind$?type_case_Z@?$output_processor@_WV?$stream_output_adapter@_W@__crt_stdio_output@@V?$standard_base@_WV?$stream_output_adapter@_W@__crt_stdio_output@@@2@@__crt_stdio_output@@AEAA_NXZ 00000001800583c0     libucrt:output.obj
 0002:000133c0       $unwind$_RTC_Terminate     00000001800583c0     LIBCMT:_initsect_.obj
 0002:000133c0       $unwind$??$common_lseek_nolock@_J@@YA_JH_JH@Z 00000001800583c0     libucrt:lseek.obj
 0002:000133c0       $unwind$?free_crt_array_internal@@YAXQEAPEBX_K@Z 00000001800583c0     libucrt:inittime.obj
 0002:000133c0       $unwind$?type_case_Z@?$output_processor@_WV?$string_output_adapter@_W@__crt_stdio_output@@V?$standard_base@_WV?$string_output_adapter@_W@__crt_stdio_output@@@2@@__crt_stdio_output@@AEAA_NXZ 00000001800583c0     libucrt:output.obj
 0002:000133c0       $unwind$__acrt_GetUserDefaultLocaleName 00000001800583c0     libucrt:winapi_thunks.obj
 0002:000133c0       $unwind$__acrt_getptd_noexit 00000001800583c0     libucrt:per_thread_data.obj
 0002:000133c0       $unwind$?type_case_s@?$output_processor@_WV?$string_output_adapter@_W@__crt_stdio_output@@V?$standard_base@_WV?$string_output_adapter@_W@__crt_stdio_output@@@2@@__crt_stdio_output@@AEAA_NXZ 00000001800583c0     libucrt:output.obj
 0002:000133c0       $unwind$?assign@?$basic_string@DU?$char_traits@D@std@@V?$allocator@D@2@@std@@QEAAAEAV12@PEBD_K@Z 00000001800583c0     njsOracle.obj
 0002:000133c0       $unwind$_exception_enabled 00000001800583c0     libucrt:libm_error.obj
 0002:000133c0       $unwind$__acrt_stdio_flush_nolock 00000001800583c0     libucrt:fflush.obj
 0002:000133c0       $unwind$?type_case_s@?$output_processor@_WV?$stream_output_adapter@_W@__crt_stdio_output@@V?$standard_base@_WV?$stream_output_adapter@_W@__crt_stdio_output@@@2@@__crt_stdio_output@@AEAA_NXZ 00000001800583c0     libucrt:output.obj
 0002:000133c0       $unwind$__vcrt_getptd_noexit 00000001800583c0     libvcruntime:per_thread_data.obj
 0002:000133c0       $unwind$?assign@?$basic_string@DU?$char_traits@D@std@@V?$allocator@D@2@@std@@QEAAAEAV12@_KD@Z 00000001800583c0     njsOracle.obj
 0002:000133c0       $unwind$__acrt_execute_uninitializers 00000001800583c0     libucrt:shared_initialization.obj
 0002:000133c0       $unwind$__acrt_stdio_flush_and_write_wide_nolock 00000001800583c0     libucrt:_flsbuf.obj
 0002:000133c0       $unwind$?type_case_n@?$output_processor@DV?$string_output_adapter@D@__crt_stdio_output@@V?$standard_base@DV?$string_output_adapter@D@__crt_stdio_output@@@2@@__crt_stdio_output@@AEAA_NXZ 00000001800583c0     libucrt:output.obj
 0002:000133c0       $unwind$?type_case_n@?$output_processor@_WV?$stream_output_adapter@_W@__crt_stdio_output@@V?$standard_base@_WV?$stream_output_adapter@_W@__crt_stdio_output@@@2@@__crt_stdio_output@@AEAA_NXZ 00000001800583c0     libucrt:output.obj
 0002:000133c0       $unwind$__acrt_stdio_flush_and_write_narrow_nolock 00000001800583c0     libucrt:_flsbuf.obj
 0002:000133c0       $unwind$??0_Init_locks@std@@QEAA@XZ 00000001800583c0     libcpmt:xlock.obj
 0002:000133c0       $unwind$?TraceLoggingRegister@__vcrt_trace_logging_provider@@YAJPEBU_TlgProvider_t@1@PEBU_GUID@@P6AX1KE_K2PEAU_EVENT_FILTER_DESCRIPTOR@@PEAX@Z4@Z 00000001800583c0     libvcruntime:telemetry.obj
 0002:000133c0       $unwind$?compare@?$basic_string@DU?$char_traits@D@std@@V?$allocator@D@2@@std@@QEBAHAEBV12@@Z 00000001800583c0     njsConnection.obj
 0002:000133c0       $unwind$?__scrt_initialize_thread_safe_statics@@YAHXZ 00000001800583c0     LIBCMT:thread_safe_statics.obj
 0002:000133c0       $unwind$__vcrt_FlsSetValue 00000001800583c0     libvcruntime:winapi_downlevel.obj
 0002:000133c0       $unwind$memcpy_s           00000001800583c0     libucrt:cfout.obj
 0002:000133c0       $unwind$??_G?$basic_stringstream@DU?$char_traits@D@std@@V?$allocator@D@2@@std@@UEAAPEAXI@Z 00000001800583c0     njsOracle.obj
 0002:000133c0       $unwind$?type_case_s@?$output_processor@DV?$string_output_adapter@D@__crt_stdio_output@@V?$standard_base@DV?$string_output_adapter@D@__crt_stdio_output@@@2@@__crt_stdio_output@@AEAA_NXZ 00000001800583c0     libucrt:output.obj
 0002:000133c0       $unwind$?type_case_Z@?$output_processor@DV?$string_output_adapter@D@__crt_stdio_output@@V?$format_validation_base@DV?$string_output_adapter@D@__crt_stdio_output@@@2@@__crt_stdio_output@@AEAA_NXZ 00000001800583c0     libucrt:output.obj
 0002:000133c0       $unwind$??_G?$basic_stringbuf@DU?$char_traits@D@std@@V?$allocator@D@2@@std@@UEAAPEAXI@Z 00000001800583c0     njsOracle.obj
 0002:000133c0       $unwind$__acrt_FlsSetValue 00000001800583c0     libucrt:winapi_thunks.obj
 0002:000133c0       $unwind$?type_case_s@?$output_processor@DV?$string_output_adapter@D@__crt_stdio_output@@V?$format_validation_base@DV?$string_output_adapter@D@__crt_stdio_output@@@2@@__crt_stdio_output@@AEAA_NXZ 00000001800583c0     libucrt:output.obj
 0002:000133c0       $unwind$??_G?$basic_streambuf@DU?$char_traits@D@std@@@std@@UEAAPEAXI@Z 00000001800583c0     njsOracle.obj
 0002:000133c0       $unwind$?type_case_n@?$output_processor@_WV?$string_output_adapter@_W@__crt_stdio_output@@V?$standard_base@_WV?$string_output_adapter@_W@__crt_stdio_output@@@2@@__crt_stdio_output@@AEAA_NXZ 00000001800583c0     libucrt:output.obj
 0002:000133c0       $unwind$?_Tidy@ios_base@std@@AEAAXXZ 00000001800583c0     libcpmt:ios.obj
 0002:000133c0       $unwind$?type_case_Z@?$output_processor@DV?$string_output_adapter@D@__crt_stdio_output@@V?$standard_base@DV?$string_output_adapter@D@__crt_stdio_output@@@2@@__crt_stdio_output@@AEAA_NXZ 00000001800583c0     libucrt:output.obj
 0002:000133c0       $unwind$_RTC_Initialize    00000001800583c0     LIBCMT:_initsect_.obj
 0002:000133c0       $unwind$_Init_thread_wait  00000001800583c0     LIBCMT:thread_safe_statics.obj
 0002:000133d0       $unwind$??0sentry@?$basic_ostream@DU?$char_traits@D@std@@@std@@QEAA@AEAV12@@Z 00000001800583d0     njsOracle.obj
 0002:000133e4       $stateUnwindMap$??0sentry@?$basic_ostream@DU?$char_traits@D@std@@@std@@QEAA@AEAV12@@Z 00000001800583e4     njsOracle.obj
 0002:000133f0       $ip2state$??0sentry@?$basic_ostream@DU?$char_traits@D@std@@@std@@QEAA@AEAV12@@Z 00000001800583f0     njsOracle.obj
 0002:00013408       $unwind$?do_put@?$num_put@DV?$ostreambuf_iterator@DU?$char_traits@D@std@@@std@@@std@@MEBA?AV?$ostreambuf_iterator@DU?$char_traits@D@std@@@2@V32@AEAVios_base@2@DPEBX@Z 0000000180058408     njsOracle.obj
 0002:00013420       $unwind$?do_put@?$num_put@DV?$ostreambuf_iterator@DU?$char_traits@D@std@@@std@@@std@@MEBA?AV?$ostreambuf_iterator@DU?$char_traits@D@std@@@2@V32@AEAVios_base@2@DO@Z 0000000180058420     njsOracle.obj
 0002:00013448       $stateUnwindMap$?do_put@?$num_put@DV?$ostreambuf_iterator@DU?$char_traits@D@std@@@std@@@std@@MEBA?AV?$ostreambuf_iterator@DU?$char_traits@D@std@@@2@V32@AEAVios_base@2@DN@Z 0000000180058448     njsOracle.obj
 0002:00013448       $stateUnwindMap$?do_put@?$num_put@DV?$ostreambuf_iterator@DU?$char_traits@D@std@@@std@@@std@@MEBA?AV?$ostreambuf_iterator@DU?$char_traits@D@std@@@2@V32@AEAVios_base@2@DO@Z 0000000180058448     njsOracle.obj
 0002:00013450       $ip2state$?do_put@?$num_put@DV?$ostreambuf_iterator@DU?$char_traits@D@std@@@std@@@std@@MEBA?AV?$ostreambuf_iterator@DU?$char_traits@D@std@@@2@V32@AEAVios_base@2@DO@Z 0000000180058450     njsOracle.obj
 0002:00013468       $unwind$?do_put@?$num_put@DV?$ostreambuf_iterator@DU?$char_traits@D@std@@@std@@@std@@MEBA?AV?$ostreambuf_iterator@DU?$char_traits@D@std@@@2@V32@AEAVios_base@2@DN@Z 0000000180058468     njsOracle.obj
 0002:00013490       $ip2state$?do_put@?$num_put@DV?$ostreambuf_iterator@DU?$char_traits@D@std@@@std@@@std@@MEBA?AV?$ostreambuf_iterator@DU?$char_traits@D@std@@@2@V32@AEAVios_base@2@DN@Z 0000000180058490     njsOracle.obj
 0002:000134a8       $unwind$?do_put@?$num_put@DV?$ostreambuf_iterator@DU?$char_traits@D@std@@@std@@@std@@MEBA?AV?$ostreambuf_iterator@DU?$char_traits@D@std@@@2@V32@AEAVios_base@2@D_K@Z 00000001800584a8     njsOracle.obj
 0002:000134a8       $unwind$?do_put@?$num_put@DV?$ostreambuf_iterator@DU?$char_traits@D@std@@@std@@@std@@MEBA?AV?$ostreambuf_iterator@DU?$char_traits@D@std@@@2@V32@AEAVios_base@2@D_J@Z 00000001800584a8     njsOracle.obj
 0002:000134a8       $unwind$?do_put@?$num_put@DV?$ostreambuf_iterator@DU?$char_traits@D@std@@@std@@@std@@MEBA?AV?$ostreambuf_iterator@DU?$char_traits@D@std@@@2@V32@AEAVios_base@2@DJ@Z 00000001800584a8     njsOracle.obj
 0002:000134a8       $unwind$?do_put@?$num_put@DV?$ostreambuf_iterator@DU?$char_traits@D@std@@@std@@@std@@MEBA?AV?$ostreambuf_iterator@DU?$char_traits@D@std@@@2@V32@AEAVios_base@2@DK@Z 00000001800584a8     njsOracle.obj
 0002:000134c0       $unwind$?do_put@?$num_put@DV?$ostreambuf_iterator@DU?$char_traits@D@std@@@std@@@std@@MEBA?AV?$ostreambuf_iterator@DU?$char_traits@D@std@@@2@V32@AEAVios_base@2@D_N@Z 00000001800584c0     njsOracle.obj
 0002:000134e4       $stateUnwindMap$?do_put@?$num_put@DV?$ostreambuf_iterator@DU?$char_traits@D@std@@@std@@@std@@MEBA?AV?$ostreambuf_iterator@DU?$char_traits@D@std@@@2@V32@AEAVios_base@2@D_N@Z 00000001800584e4     njsOracle.obj
 0002:000134f8       $ip2state$?do_put@?$num_put@DV?$ostreambuf_iterator@DU?$char_traits@D@std@@@std@@@std@@MEBA?AV?$ostreambuf_iterator@DU?$char_traits@D@std@@@2@V32@AEAVios_base@2@D_N@Z 00000001800584f8     njsOracle.obj
 0002:00013520       $unwind$__acrt_free_locale 0000000180058520     libucrt:locale_refcounting.obj
 0002:00013520       $unwind$__acrt_execute_initializers 0000000180058520     libucrt:shared_initialization.obj
 0002:00013520       $unwind$??$ensure_buffer_is_big_enough@D@formatting_buffer@__crt_stdio_output@@QEAA_N_K@Z 0000000180058520     libucrt:output.obj
 0002:00013520       $unwind$?dllmain_raw@@YAHQEAUHINSTANCE__@@KQEAX@Z 0000000180058520     LIBCMT:dll_dllmain.obj
 0002:00013520       $unwind$_recalloc_base     0000000180058520     libucrt:recalloc.obj
 0002:00013520       $unwind$?_Reallocate@?$vector@PEAUBind@@V?$allocator@PEAUBind@@@std@@@std@@IEAAX_K@Z 0000000180058520     njsConnection.obj
 0002:00013520       $unwind$__acrt_InitializeCriticalSectionEx 0000000180058520     libucrt:winapi_thunks.obj
 0002:00013520       $unwind$__crtInitializeCriticalSectionEx 0000000180058520     libcpmt:winapisupp.obj
 0002:00013520       $unwind$?process@?$output_processor@DV?$string_output_adapter@D@__crt_stdio_output@@V?$format_validation_base@DV?$string_output_adapter@D@__crt_stdio_output@@@2@@__crt_stdio_output@@QEAAHXZ 0000000180058520     libucrt:output.obj
 0002:00013520       $unwind$__vcrt_InitializeCriticalSectionEx 0000000180058520     libvcruntime:winapi_downlevel.obj
 0002:00013520       $unwind$_seh_filter_exe    0000000180058520     libucrt:exception_filter.obj
 0002:00013520       $unwind$__acrt_lowio_create_handle_array 0000000180058520     libucrt:osfinfo.obj
 0002:00013520       $unwind$?assign@?$basic_string@DU?$char_traits@D@std@@V?$allocator@D@2@@std@@QEAAAEAV12@AEBV12@_K1@Z 0000000180058520     njsOracle.obj
 0002:00013520       $unwind$_wassert           0000000180058520     libucrt:assert.obj
 0002:00013520       $unwind$__scrt_dllmain_exception_filter 0000000180058520     LIBCMT:utility.obj
 0002:00013520       $unwind$?setSBCS@@YAXPEAU__crt_multibyte_data@@@Z 0000000180058520     libucrt:mbctype.obj
 0002:00013520       $unwind$?_Copy@?$basic_string@DU?$char_traits@D@std@@V?$allocator@D@2@@std@@QEAAX_K0@Z 0000000180058520     njsOracle.obj
 0002:00013520       $unwind$?_Reallocate@?$vector@PEAUExtBind@@V?$allocator@PEAUExtBind@@@std@@@std@@IEAAX_K@Z 0000000180058520     njsConnection.obj
 0002:00013534       $unwind$?append@?$basic_string@DU?$char_traits@D@std@@V?$allocator@D@2@@std@@QEAAAEAV12@PEBD_K@Z 0000000180058534     njsOracle.obj
 0002:00013534       $unwind$?append@?$basic_string@DU?$char_traits@D@std@@V?$allocator@D@2@@std@@QEAAAEAV12@_KD@Z 0000000180058534     njsOracle.obj
 0002:00013544       $chain$0$?append@?$basic_string@DU?$char_traits@D@std@@V?$allocator@D@2@@std@@QEAAAEAV12@PEBD_K@Z 0000000180058544     njsOracle.obj
 0002:00013558       $chain$1$?append@?$basic_string@DU?$char_traits@D@std@@V?$allocator@D@2@@std@@QEAAAEAV12@PEBD_K@Z 0000000180058558     njsOracle.obj
 0002:00013568       $chain$2$?append@?$basic_string@DU?$char_traits@D@std@@V?$allocator@D@2@@std@@QEAAAEAV12@PEBD_K@Z 0000000180058568     njsOracle.obj
 0002:0001357c       $unwind$?insert@?$basic_string@DU?$char_traits@D@std@@V?$allocator@D@2@@std@@QEAAAEAV12@_K0D@Z 000000018005857c     njsOracle.obj
 0002:0001357c       $unwind$?append@?$basic_string@DU?$char_traits@D@std@@V?$allocator@D@2@@std@@QEAAAEAV12@AEBV12@_K1@Z 000000018005857c     njsOracle.obj
 0002:00013590       $chain$0$?append@?$basic_string@DU?$char_traits@D@std@@V?$allocator@D@2@@std@@QEAAAEAV12@AEBV12@_K1@Z 0000000180058590     njsOracle.obj
 0002:000135a4       $chain$1$?append@?$basic_string@DU?$char_traits@D@std@@V?$allocator@D@2@@std@@QEAAAEAV12@AEBV12@_K1@Z 00000001800585a4     njsOracle.obj
 0002:000135b4       $chain$2$?append@?$basic_string@DU?$char_traits@D@std@@V?$allocator@D@2@@std@@QEAAAEAV12@AEBV12@_K1@Z 00000001800585b4     njsOracle.obj
 0002:000135c8       $unwind$?str@?$basic_stringbuf@DU?$char_traits@D@std@@V?$allocator@D@2@@std@@QEBA?AV?$basic_string@DU?$char_traits@D@std@@V?$allocator@D@2@@2@XZ 00000001800585c8     njsOracle.obj
 0002:000135e0       $unwind$??0?$basic_iostream@DU?$char_traits@D@std@@@std@@QEAA@PEAV?$basic_streambuf@DU?$char_traits@D@std@@@1@@Z 00000001800585e0     njsOracle.obj
 0002:000135f0       $stateUnwindMap$??0?$basic_iostream@DU?$char_traits@D@std@@@std@@QEAA@PEAV?$basic_streambuf@DU?$char_traits@D@std@@@1@@Z 00000001800585f0     njsOracle.obj
 0002:00013610       $ip2state$??0?$basic_iostream@DU?$char_traits@D@std@@@std@@QEAA@PEAV?$basic_streambuf@DU?$char_traits@D@std@@@1@@Z 0000000180058610     njsOracle.obj
 0002:00013628       $unwind$?_Iput@?$num_put@DV?$ostreambuf_iterator@DU?$char_traits@D@std@@@std@@@std@@AEBA?AV?$ostreambuf_iterator@DU?$char_traits@D@std@@@2@V32@AEAVios_base@2@DPEAD_K@Z 0000000180058628     njsOracle.obj
 0002:00013650       $stateUnwindMap$?_Iput@?$num_put@DV?$ostreambuf_iterator@DU?$char_traits@D@std@@@std@@@std@@AEBA?AV?$ostreambuf_iterator@DU?$char_traits@D@std@@@2@V32@AEAVios_base@2@DPEAD_K@Z 0000000180058650     njsOracle.obj
 0002:00013670       $ip2state$?_Iput@?$num_put@DV?$ostreambuf_iterator@DU?$char_traits@D@std@@@std@@@std@@AEBA?AV?$ostreambuf_iterator@DU?$char_traits@D@std@@@2@V32@AEAVios_base@2@DPEAD_K@Z 0000000180058670     njsOracle.obj
 0002:000136b8       $unwind$?_Fput@?$num_put@DV?$ostreambuf_iterator@DU?$char_traits@D@std@@@std@@@std@@AEBA?AV?$ostreambuf_iterator@DU?$char_traits@D@std@@@2@V32@AEAVios_base@2@DPEBD_K@Z 00000001800586b8     njsOracle.obj
 0002:000136e0       $stateUnwindMap$?_Fput@?$num_put@DV?$ostreambuf_iterator@DU?$char_traits@D@std@@@std@@@std@@AEBA?AV?$ostreambuf_iterator@DU?$char_traits@D@std@@@2@V32@AEAVios_base@2@DPEBD_K@Z 00000001800586e0     njsOracle.obj
 0002:00013700       $ip2state$?_Fput@?$num_put@DV?$ostreambuf_iterator@DU?$char_traits@D@std@@@std@@@std@@AEBA?AV?$ostreambuf_iterator@DU?$char_traits@D@std@@@2@V32@AEAVios_base@2@DPEBD_K@Z 0000000180058700     njsOracle.obj
 0002:00013748       $chain$0$?append@?$basic_string@DU?$char_traits@D@std@@V?$allocator@D@2@@std@@QEAAAEAV12@_KD@Z 0000000180058748     njsOracle.obj
 0002:0001375c       $chain$1$?append@?$basic_string@DU?$char_traits@D@std@@V?$allocator@D@2@@std@@QEAAAEAV12@_KD@Z 000000018005875c     njsOracle.obj
 0002:0001376c       $chain$2$?append@?$basic_string@DU?$char_traits@D@std@@V?$allocator@D@2@@std@@QEAAAEAV12@_KD@Z 000000018005876c     njsOracle.obj
 0002:00013780       $unwind$?flush@?$basic_ostream@DU?$char_traits@D@std@@@std@@QEAAAEAV12@XZ 0000000180058780     njsOracle.obj
 0002:00013798       $stateUnwindMap$?flush@?$basic_ostream@DU?$char_traits@D@std@@@std@@QEAAAEAV12@XZ 0000000180058798     njsOracle.obj
 0002:000137a0       $ip2state$?flush@?$basic_ostream@DU?$char_traits@D@std@@@std@@QEAAAEAV12@XZ 00000001800587a0     njsOracle.obj
 0002:000137b8       $unwind$??0?$basic_streambuf@DU?$char_traits@D@std@@@std@@IEAA@XZ 00000001800587b8     njsOracle.obj
 0002:000137d0       $ip2state$??0?$basic_streambuf@DU?$char_traits@D@std@@@std@@IEAA@XZ 00000001800587d0     njsOracle.obj
 0002:000137e8       $chain$0$?insert@?$basic_string@DU?$char_traits@D@std@@V?$allocator@D@2@@std@@QEAAAEAV12@_K0D@Z 00000001800587e8     njsOracle.obj
 0002:000137fc       $chain$1$?insert@?$basic_string@DU?$char_traits@D@std@@V?$allocator@D@2@@std@@QEAAAEAV12@_K0D@Z 00000001800587fc     njsOracle.obj
 0002:0001380c       $chain$2$?insert@?$basic_string@DU?$char_traits@D@std@@V?$allocator@D@2@@std@@QEAAAEAV12@_K0D@Z 000000018005880c     njsOracle.obj
 0002:00013820       $unwind$?init@?$basic_ios@DU?$char_traits@D@std@@@std@@IEAAXPEAV?$basic_streambuf@DU?$char_traits@D@std@@@2@_N@Z 0000000180058820     njsOracle.obj
 0002:00013834       $stateUnwindMap$?init@?$basic_ios@DU?$char_traits@D@std@@@std@@IEAAXPEAV?$basic_streambuf@DU?$char_traits@D@std@@@2@_N@Z 0000000180058834     njsOracle.obj
 0002:00013840       $ip2state$?init@?$basic_ios@DU?$char_traits@D@std@@@std@@IEAAXPEAV?$basic_streambuf@DU?$char_traits@D@std@@@2@_N@Z 0000000180058840     njsOracle.obj
 0002:00013858       $unwind$??$use_facet@V?$ctype@D@std@@@std@@YAAEBV?$ctype@D@0@AEBVlocale@0@@Z 0000000180058858     njsOracle.obj
 0002:00013870       $stateUnwindMap$??$use_facet@V?$num_put@DV?$ostreambuf_iterator@DU?$char_traits@D@std@@@std@@@std@@@std@@YAAEBV?$num_put@DV?$ostreambuf_iterator@DU?$char_traits@D@std@@@std@@@0@AEBVlocale@0@@Z 0000000180058870     njsOracle.obj
 0002:00013870       $stateUnwindMap$??$use_facet@V?$ctype@D@std@@@std@@YAAEBV?$ctype@D@0@AEBVlocale@0@@Z 0000000180058870     njsOracle.obj
 0002:00013870       $stateUnwindMap$??$use_facet@V?$numpunct@D@std@@@std@@YAAEBV?$numpunct@D@0@AEBVlocale@0@@Z 0000000180058870     njsOracle.obj
 0002:00013878       $ip2state$??$use_facet@V?$ctype@D@std@@@std@@YAAEBV?$ctype@D@0@AEBVlocale@0@@Z 0000000180058878     njsOracle.obj
 0002:00013890       $unwind$??$New@VString@v8@@V?$basic_string@DU?$char_traits@D@std@@V?$allocator@D@2@@std@@@Nan@@YA?AV?$MaybeLocal@VString@v8@@@v8@@V?$basic_string@DU?$char_traits@D@std@@V?$allocator@D@2@@std@@@Z 0000000180058890     njsOracle.obj
 0002:000138ac       $stateUnwindMap$??$New@VString@v8@@V?$basic_string@DU?$char_traits@D@std@@V?$allocator@D@2@@std@@@Nan@@YA?AV?$MaybeLocal@VString@v8@@@v8@@V?$basic_string@DU?$char_traits@D@std@@V?$allocator@D@2@@std@@@Z 00000001800588ac     njsOracle.obj
 0002:000138b8       $ip2state$??$New@VString@v8@@V?$basic_string@DU?$char_traits@D@std@@V?$allocator@D@2@@std@@@Nan@@YA?AV?$MaybeLocal@VString@v8@@@v8@@V?$basic_string@DU?$char_traits@D@std@@V?$allocator@D@2@@std@@@Z 00000001800588b8     njsOracle.obj
 0002:000138d0       $unwind$??$?6U?$char_traits@D@std@@@std@@YAAEAV?$basic_ostream@DU?$char_traits@D@std@@@0@AEAV10@PEBD@Z 00000001800588d0     njsOracle.obj
 0002:000138f0       $stateUnwindMap$??$?6U?$char_traits@D@std@@@std@@YAAEAV?$basic_ostream@DU?$char_traits@D@std@@@0@AEAV10@PEBD@Z 00000001800588f0     njsOracle.obj
 0002:000138f0       $stateUnwindMap$??$?6DU?$char_traits@D@std@@V?$allocator@D@1@@std@@YAAEAV?$basic_ostream@DU?$char_traits@D@std@@@0@AEAV10@AEBV?$basic_string@DU?$char_traits@D@std@@V?$allocator@D@2@@0@@Z 00000001800588f0     dpiExceptionImpl.obj
 0002:00013900       $ip2state$??$?6U?$char_traits@D@std@@@std@@YAAEAV?$basic_ostream@DU?$char_traits@D@std@@@0@AEAV10@PEBD@Z 0000000180058900     njsOracle.obj
 0002:00013920       $unwind$??$use_facet@V?$num_put@DV?$ostreambuf_iterator@DU?$char_traits@D@std@@@std@@@std@@@std@@YAAEBV?$num_put@DV?$ostreambuf_iterator@DU?$char_traits@D@std@@@std@@@0@AEBVlocale@0@@Z 0000000180058920     njsOracle.obj
 0002:00013938       $ip2state$??$use_facet@V?$num_put@DV?$ostreambuf_iterator@DU?$char_traits@D@std@@@std@@@std@@@std@@YAAEBV?$num_put@DV?$ostreambuf_iterator@DU?$char_traits@D@std@@@std@@@0@AEBVlocale@0@@Z 0000000180058938     njsOracle.obj
 0002:00013950       $unwind$??$use_facet@V?$numpunct@D@std@@@std@@YAAEBV?$numpunct@D@0@AEBVlocale@0@@Z 0000000180058950     njsOracle.obj
 0002:00013968       $ip2state$??$use_facet@V?$numpunct@D@std@@@std@@YAAEBV?$numpunct@D@0@AEBVlocale@0@@Z 0000000180058968     njsOracle.obj
 0002:00013980       $unwind$?_Getcat@?$numpunct@D@std@@SA_KPEAPEBVfacet@locale@2@PEBV42@@Z 0000000180058980     njsOracle.obj
 0002:0001399c       $stateUnwindMap$?_Getcat@?$numpunct@D@std@@SA_KPEAPEBVfacet@locale@2@PEBV42@@Z 000000018005899c     njsOracle.obj
 0002:00013a00       $ip2state$?_Getcat@?$numpunct@D@std@@SA_KPEAPEBVfacet@locale@2@PEBV42@@Z 0000000180058a00     njsOracle.obj
 0002:00013a78       $unwind$?_Getcat@?$num_put@DV?$ostreambuf_iterator@DU?$char_traits@D@std@@@std@@@std@@SA_KPEAPEBVfacet@locale@2@PEBV42@@Z 0000000180058a78     njsOracle.obj
 0002:00013a98       $stateUnwindMap$?_Getcat@?$num_put@DV?$ostreambuf_iterator@DU?$char_traits@D@std@@@std@@@std@@SA_KPEAPEBVfacet@locale@2@PEBV42@@Z 0000000180058a98     njsOracle.obj
 0002:00013ae0       $ip2state$?_Getcat@?$num_put@DV?$ostreambuf_iterator@DU?$char_traits@D@std@@@std@@@std@@SA_KPEAPEBVfacet@locale@2@PEBV42@@Z 0000000180058ae0     njsOracle.obj
 0002:00013b48       $unwind$?_Init@?$numpunct@D@std@@IEAAXAEBV_Locinfo@2@_N@Z 0000000180058b48     njsOracle.obj
 0002:00013b60       $unwind$??0poolBaton@@QEAA@V?$Local@VFunction@v8@@@v8@@V?$Local@VObject@v8@@@2@@Z 0000000180058b60     njsPool.obj
 0002:00013b74       $stateUnwindMap$??0poolBaton@@QEAA@V?$Local@VFunction@v8@@@v8@@V?$Local@VObject@v8@@@2@@Z 0000000180058b74     njsPool.obj
 0002:00013b98       $ip2state$??0poolBaton@@QEAA@V?$Local@VFunction@v8@@@v8@@V?$Local@VObject@v8@@@2@@Z 0000000180058b98     njsPool.obj
 0002:00013bc8       $unwind$??1poolBaton@@QEAA@XZ 0000000180058bc8     njsPool.obj
 0002:00013be0       $ip2state$??1poolBaton@@QEAA@XZ 0000000180058be0     njsPool.obj
 0002:00013be8       $unwind$??__F?poolTemplate_s@Pool@@2V?$Persistent@VFunctionTemplate@v8@@V?$NonCopyablePersistentTraits@VFunctionTemplate@v8@@@2@@Nan@@A@@YAXXZ 0000000180058be8     njsPool.obj
 0002:00013bf8       $ip2state$??__F?poolTemplate_s@Pool@@2V?$Persistent@VFunctionTemplate@v8@@V?$NonCopyablePersistentTraits@VFunctionTemplate@v8@@@2@@Nan@@A@@YAXXZ 0000000180058bf8     njsPool.obj
 0002:00013c00       $unwind$??1Pool@@EEAA@XZ   0000000180058c00     njsPool.obj
 0002:00013c00       $unwind$??1Connection@@EEAA@XZ 0000000180058c00     njsConnection.obj
 0002:00013c00       $unwind$??1ResultSet@@UEAA@XZ 0000000180058c00     njsResultSet.obj
 0002:00013c10       $ip2state$??1ResultSet@@UEAA@XZ 0000000180058c10     njsResultSet.obj
 0002:00013c10       $ip2state$??1Connection@@EEAA@XZ 0000000180058c10     njsConnection.obj
 0002:00013c10       $ip2state$??1Pool@@EEAA@XZ 0000000180058c10     njsPool.obj
 0002:00013c28       $unwind$?Init@Pool@@SAXV?$Local@VObject@v8@@@v8@@@Z 0000000180058c28     njsPool.obj
 0002:00013c40       $ip2state$?Init@Pool@@SAXV?$Local@VObject@v8@@@v8@@@Z 0000000180058c40     njsPool.obj
 0002:00013c58       $unwind$?getPoolProperty@Pool@@CA?AV?$Local@VPrimitive@v8@@@v8@@PEAV1@I@Z 0000000180058c58     njsPool.obj
 0002:00013c78       $stateUnwindMap$?getPoolProperty@Pool@@CA?AV?$Local@VPrimitive@v8@@@v8@@PEAV1@I@Z 0000000180058c78     njsPool.obj
 0002:00013c88       $ip2state$?getPoolProperty@Pool@@CA?AV?$Local@VPrimitive@v8@@@v8@@PEAV1@I@Z 0000000180058c88     njsPool.obj
 0002:00013cb0       $unwind$?GetPoolMin@Pool@@CAXV?$Local@VString@v8@@@v8@@AEBV?$PropertyCallbackInfo@VValue@v8@@@Nan@@@Z 0000000180058cb0     njsPool.obj
 0002:00013cc8       $ip2state$?GetPoolMin@Pool@@CAXV?$Local@VString@v8@@@v8@@AEBV?$PropertyCallbackInfo@VValue@v8@@@Nan@@@Z 0000000180058cc8     njsPool.obj
 0002:00013ce0       $unwind$?GetPoolMax@Pool@@CAXV?$Local@VString@v8@@@v8@@AEBV?$PropertyCallbackInfo@VValue@v8@@@Nan@@@Z 0000000180058ce0     njsPool.obj
 0002:00013cf8       $ip2state$?GetPoolMax@Pool@@CAXV?$Local@VString@v8@@@v8@@AEBV?$PropertyCallbackInfo@VValue@v8@@@Nan@@@Z 0000000180058cf8     njsPool.obj
 0002:00013d10       $unwind$?GetPoolIncrement@Pool@@CAXV?$Local@VString@v8@@@v8@@AEBV?$PropertyCallbackInfo@VValue@v8@@@Nan@@@Z 0000000180058d10     njsPool.obj
 0002:00013d28       $ip2state$?GetPoolIncrement@Pool@@CAXV?$Local@VString@v8@@@v8@@AEBV?$PropertyCallbackInfo@VValue@v8@@@Nan@@@Z 0000000180058d28     njsPool.obj
 0002:00013d40       $unwind$?GetPoolTimeout@Pool@@CAXV?$Local@VString@v8@@@v8@@AEBV?$PropertyCallbackInfo@VValue@v8@@@Nan@@@Z 0000000180058d40     njsPool.obj
 0002:00013d58       $ip2state$?GetPoolTimeout@Pool@@CAXV?$Local@VString@v8@@@v8@@AEBV?$PropertyCallbackInfo@VValue@v8@@@Nan@@@Z 0000000180058d58     njsPool.obj
 0002:00013d70       $unwind$?GetConnectionsOpen@Pool@@CAXV?$Local@VString@v8@@@v8@@AEBV?$PropertyCallbackInfo@VValue@v8@@@Nan@@@Z 0000000180058d70     njsPool.obj
 0002:00013d84       $stateUnwindMap$?GetConnectionsOpen@Pool@@CAXV?$Local@VString@v8@@@v8@@AEBV?$PropertyCallbackInfo@VValue@v8@@@Nan@@@Z 0000000180058d84     njsPool.obj
 0002:00013da4       $tryMap$?GetConnectionsOpen@Pool@@CAXV?$Local@VString@v8@@@v8@@AEBV?$PropertyCallbackInfo@VValue@v8@@@Nan@@@Z 0000000180058da4     njsPool.obj
 0002:00013db8       $handlerMap$0$?GetConnectionsOpen@Pool@@CAXV?$Local@VString@v8@@@v8@@AEBV?$PropertyCallbackInfo@VValue@v8@@@Nan@@@Z 0000000180058db8     njsPool.obj
 0002:00013dd0       $ip2state$?GetConnectionsOpen@Pool@@CAXV?$Local@VString@v8@@@v8@@AEBV?$PropertyCallbackInfo@VValue@v8@@@Nan@@@Z 0000000180058dd0     njsPool.obj
 0002:00013e28       $unwind$?catch$0@?0??GetConnectionsOpen@Pool@@CAXV?$Local@VString@v8@@@v8@@AEBV?$PropertyCallbackInfo@VValue@v8@@@Nan@@@Z@4HA 0000000180058e28     njsPool.obj
 0002:00013e38       $unwind$?GetConnectionsInUse@Pool@@CAXV?$Local@VString@v8@@@v8@@AEBV?$PropertyCallbackInfo@VValue@v8@@@Nan@@@Z 0000000180058e38     njsPool.obj
 0002:00013e4c       $stateUnwindMap$?GetConnectionsInUse@Pool@@CAXV?$Local@VString@v8@@@v8@@AEBV?$PropertyCallbackInfo@VValue@v8@@@Nan@@@Z 0000000180058e4c     njsPool.obj
 0002:00013e6c       $tryMap$?GetConnectionsInUse@Pool@@CAXV?$Local@VString@v8@@@v8@@AEBV?$PropertyCallbackInfo@VValue@v8@@@Nan@@@Z 0000000180058e6c     njsPool.obj
 0002:00013e80       $handlerMap$0$?GetConnectionsInUse@Pool@@CAXV?$Local@VString@v8@@@v8@@AEBV?$PropertyCallbackInfo@VValue@v8@@@Nan@@@Z 0000000180058e80     njsPool.obj
 0002:00013ea0       $ip2state$?GetConnectionsInUse@Pool@@CAXV?$Local@VString@v8@@@v8@@AEBV?$PropertyCallbackInfo@VValue@v8@@@Nan@@@Z 0000000180058ea0     njsPool.obj
 0002:00013ef8       $unwind$?catch$0@?0??GetConnectionsInUse@Pool@@CAXV?$Local@VString@v8@@@v8@@AEBV?$PropertyCallbackInfo@VValue@v8@@@Nan@@@Z@4HA 0000000180058ef8     njsPool.obj
 0002:00013f08       $unwind$?GetStmtCacheSize@Pool@@CAXV?$Local@VString@v8@@@v8@@AEBV?$PropertyCallbackInfo@VValue@v8@@@Nan@@@Z 0000000180058f08     njsPool.obj
 0002:00013f20       $ip2state$?GetStmtCacheSize@Pool@@CAXV?$Local@VString@v8@@@v8@@AEBV?$PropertyCallbackInfo@VValue@v8@@@Nan@@@Z 0000000180058f20     njsPool.obj
 0002:00013f38       $unwind$?setPoolProperty@Pool@@CAXPEAV1@V?$basic_string@DU?$char_traits@D@std@@V?$allocator@D@2@@std@@@Z 0000000180058f38     njsPool.obj
 0002:00013f5c       $stateUnwindMap$?setPoolProperty@Pool@@CAXPEAV1@V?$basic_string@DU?$char_traits@D@std@@V?$allocator@D@2@@std@@@Z 0000000180058f5c     njsPool.obj
 0002:00013f90       $ip2state$?setPoolProperty@Pool@@CAXPEAV1@V?$basic_string@DU?$char_traits@D@std@@V?$allocator@D@2@@std@@@Z 0000000180058f90     njsPool.obj
 0002:00013ff8       $unwind$?SetPoolMin@Pool@@CAXV?$Local@VString@v8@@@v8@@V?$Local@VValue@v8@@@3@AEBV?$PropertyCallbackInfo@X@Nan@@@Z 0000000180058ff8     njsPool.obj
 0002:00014008       $stateUnwindMap$?SetStmtCacheSize@Pool@@CAXV?$Local@VString@v8@@@v8@@V?$Local@VValue@v8@@@3@AEBV?$PropertyCallbackInfo@X@Nan@@@Z 0000000180059008     njsPool.obj
 0002:00014008       $stateUnwindMap$?SetPoolMin@Pool@@CAXV?$Local@VString@v8@@@v8@@V?$Local@VValue@v8@@@3@AEBV?$PropertyCallbackInfo@X@Nan@@@Z 0000000180059008     njsPool.obj
 0002:00014008       $stateUnwindMap$?SetConnectionsInUse@Pool@@CAXV?$Local@VString@v8@@@v8@@V?$Local@VValue@v8@@@3@AEBV?$PropertyCallbackInfo@X@Nan@@@Z 0000000180059008     njsPool.obj
 0002:00014008       $stateUnwindMap$?SetConnectionsOpen@Pool@@CAXV?$Local@VString@v8@@@v8@@V?$Local@VValue@v8@@@3@AEBV?$PropertyCallbackInfo@X@Nan@@@Z 0000000180059008     njsPool.obj
 0002:00014008       $stateUnwindMap$?SetPoolTimeout@Pool@@CAXV?$Local@VString@v8@@@v8@@V?$Local@VValue@v8@@@3@AEBV?$PropertyCallbackInfo@X@Nan@@@Z 0000000180059008     njsPool.obj
 0002:00014008       $stateUnwindMap$?SetPoolIncrement@Pool@@CAXV?$Local@VString@v8@@@v8@@V?$Local@VValue@v8@@@3@AEBV?$PropertyCallbackInfo@X@Nan@@@Z 0000000180059008     njsPool.obj
 0002:00014008       $stateUnwindMap$?SetPoolMax@Pool@@CAXV?$Local@VString@v8@@@v8@@V?$Local@VValue@v8@@@3@AEBV?$PropertyCallbackInfo@X@Nan@@@Z 0000000180059008     njsPool.obj
 0002:00014010       $ip2state$?SetPoolMin@Pool@@CAXV?$Local@VString@v8@@@v8@@V?$Local@VValue@v8@@@3@AEBV?$PropertyCallbackInfo@X@Nan@@@Z 0000000180059010     njsPool.obj
 0002:00014028       $unwind$?SetPoolMax@Pool@@CAXV?$Local@VString@v8@@@v8@@V?$Local@VValue@v8@@@3@AEBV?$PropertyCallbackInfo@X@Nan@@@Z 0000000180059028     njsPool.obj
 0002:00014038       $ip2state$?SetPoolMax@Pool@@CAXV?$Local@VString@v8@@@v8@@V?$Local@VValue@v8@@@3@AEBV?$PropertyCallbackInfo@X@Nan@@@Z 0000000180059038     njsPool.obj
 0002:00014050       $unwind$?SetPoolIncrement@Pool@@CAXV?$Local@VString@v8@@@v8@@V?$Local@VValue@v8@@@3@AEBV?$PropertyCallbackInfo@X@Nan@@@Z 0000000180059050     njsPool.obj
 0002:00014060       $ip2state$?SetPoolIncrement@Pool@@CAXV?$Local@VString@v8@@@v8@@V?$Local@VValue@v8@@@3@AEBV?$PropertyCallbackInfo@X@Nan@@@Z 0000000180059060     njsPool.obj
 0002:00014078       $unwind$?SetPoolTimeout@Pool@@CAXV?$Local@VString@v8@@@v8@@V?$Local@VValue@v8@@@3@AEBV?$PropertyCallbackInfo@X@Nan@@@Z 0000000180059078     njsPool.obj
 0002:00014088       $ip2state$?SetPoolTimeout@Pool@@CAXV?$Local@VString@v8@@@v8@@V?$Local@VValue@v8@@@3@AEBV?$PropertyCallbackInfo@X@Nan@@@Z 0000000180059088     njsPool.obj
 0002:000140a0       $unwind$?SetConnectionsOpen@Pool@@CAXV?$Local@VString@v8@@@v8@@V?$Local@VValue@v8@@@3@AEBV?$PropertyCallbackInfo@X@Nan@@@Z 00000001800590a0     njsPool.obj
 0002:000140b0       $ip2state$?SetConnectionsOpen@Pool@@CAXV?$Local@VString@v8@@@v8@@V?$Local@VValue@v8@@@3@AEBV?$PropertyCallbackInfo@X@Nan@@@Z 00000001800590b0     njsPool.obj
 0002:000140c8       $unwind$?SetConnectionsInUse@Pool@@CAXV?$Local@VString@v8@@@v8@@V?$Local@VValue@v8@@@3@AEBV?$PropertyCallbackInfo@X@Nan@@@Z 00000001800590c8     njsPool.obj
 0002:000140d8       $ip2state$?SetConnectionsInUse@Pool@@CAXV?$Local@VString@v8@@@v8@@V?$Local@VValue@v8@@@3@AEBV?$PropertyCallbackInfo@X@Nan@@@Z 00000001800590d8     njsPool.obj
 0002:000140f0       $unwind$?SetStmtCacheSize@Pool@@CAXV?$Local@VString@v8@@@v8@@V?$Local@VValue@v8@@@3@AEBV?$PropertyCallbackInfo@X@Nan@@@Z 00000001800590f0     njsPool.obj
 0002:00014100       $ip2state$?SetStmtCacheSize@Pool@@CAXV?$Local@VString@v8@@@v8@@V?$Local@VValue@v8@@@3@AEBV?$PropertyCallbackInfo@X@Nan@@@Z 0000000180059100     njsPool.obj
 0002:00014118       $unwind$?GetConnection@Pool@@CAXAEBV?$FunctionCallbackInfo@VValue@v8@@@Nan@@@Z 0000000180059118     njsPool.obj
 0002:00014138       $stateUnwindMap$?Terminate@Pool@@CAXAEBV?$FunctionCallbackInfo@VValue@v8@@@Nan@@@Z 0000000180059138     njsPool.obj
 0002:00014138       $stateUnwindMap$?GetConnection@Pool@@CAXAEBV?$FunctionCallbackInfo@VValue@v8@@@Nan@@@Z 0000000180059138     njsPool.obj
 0002:00014170       $ip2state$?GetConnection@Pool@@CAXAEBV?$FunctionCallbackInfo@VValue@v8@@@Nan@@@Z 0000000180059170     njsPool.obj
 0002:000141f8       $unwind$?Async_GetConnection@Pool@@CAXPEAUuv_work_s@@@Z 00000001800591f8     njsPool.obj
 0002:00014214       $stateUnwindMap$?Async_GetConnection@Pool@@CAXPEAUuv_work_s@@@Z 0000000180059214     njsPool.obj
 0002:00014244       $tryMap$?Async_GetConnection@Pool@@CAXPEAUuv_work_s@@@Z 0000000180059244     njsPool.obj
 0002:00014258       $handlerMap$0$?Async_GetConnection@Pool@@CAXPEAUuv_work_s@@@Z 0000000180059258     njsPool.obj
 0002:00014270       $ip2state$?Async_GetConnection@Pool@@CAXPEAUuv_work_s@@@Z 0000000180059270     njsPool.obj
 0002:000142e0       $unwind$?catch$0@?0??Async_GetConnection@Pool@@CAXPEAUuv_work_s@@@Z@4HA 00000001800592e0     njsPool.obj
 0002:000142f0       $unwind$?Async_AfterGetConnection@Pool@@CAXPEAUuv_work_s@@@Z 00000001800592f0     njsPool.obj
 0002:00014310       $ip2state$?Async_AfterGetConnection@Pool@@CAXPEAUuv_work_s@@@Z 0000000180059310     njsPool.obj
 0002:00014338       $unwind$?Terminate@Pool@@CAXAEBV?$FunctionCallbackInfo@VValue@v8@@@Nan@@@Z 0000000180059338     njsPool.obj
 0002:00014360       $ip2state$?Terminate@Pool@@CAXAEBV?$FunctionCallbackInfo@VValue@v8@@@Nan@@@Z 0000000180059360     njsPool.obj
 0002:000143e8       $unwind$?Async_Terminate@Pool@@CAXPEAUuv_work_s@@@Z 00000001800593e8     njsPool.obj
 0002:000143fc       $stateUnwindMap$?Async_Terminate@Pool@@CAXPEAUuv_work_s@@@Z 00000001800593fc     njsPool.obj
 0002:00014414       $tryMap$?Async_Terminate@Pool@@CAXPEAUuv_work_s@@@Z 0000000180059414     njsPool.obj
 0002:00014428       $handlerMap$0$?Async_Terminate@Pool@@CAXPEAUuv_work_s@@@Z 0000000180059428     njsPool.obj
 0002:00014440       $ip2state$?Async_Terminate@Pool@@CAXPEAUuv_work_s@@@Z 0000000180059440     njsPool.obj
 0002:00014480       $unwind$?catch$0@?0??Async_Terminate@Pool@@CAXPEAUuv_work_s@@@Z@4HA 0000000180059480     njsPool.obj
 0002:00014490       $unwind$?Async_AfterTerminate@Pool@@CAXPEAUuv_work_s@@@Z 0000000180059490     njsPool.obj
 0002:000144a8       $stateUnwindMap$?Async_AfterRollback@Connection@@CAXPEAUuv_work_s@@@Z 00000001800594a8     njsConnection.obj
 0002:000144a8       $stateUnwindMap$?Async_AfterCommit@Connection@@CAXPEAUuv_work_s@@@Z 00000001800594a8     njsConnection.obj
 0002:000144a8       $stateUnwindMap$?Async_AfterTerminate@Pool@@CAXPEAUuv_work_s@@@Z 00000001800594a8     njsPool.obj
 0002:000144a8       $stateUnwindMap$?Async_AfterClose@ResultSet@@CAXPEAUuv_work_s@@@Z 00000001800594a8     njsResultSet.obj
 0002:000144a8       $stateUnwindMap$?Async_AfterRelease@Connection@@CAXPEAUuv_work_s@@@Z 00000001800594a8     njsConnection.obj
 0002:000144a8       $stateUnwindMap$?Async_AfterBreak@Connection@@CAXPEAUuv_work_s@@@Z 00000001800594a8     njsConnection.obj
 0002:000144a8       $stateUnwindMap$?Async_AfterWrite@ILob@@CAXPEAUuv_work_s@@@Z 00000001800594a8     njsIntLob.obj
 0002:000144b8       $ip2state$?Async_AfterTerminate@Pool@@CAXPEAUuv_work_s@@@Z 00000001800594b8     njsPool.obj
 0002:000144e0       $unwind$??0eBaton@@QEAA@AEAIV?$Local@VFunction@v8@@@v8@@V?$Local@VObject@v8@@@2@@Z 00000001800594e0     njsConnection.obj
 0002:000144f4       $stateUnwindMap$??0eBaton@@QEAA@AEAIV?$Local@VFunction@v8@@@v8@@V?$Local@VObject@v8@@@2@@Z 00000001800594f4     njsConnection.obj
 0002:00014530       $ip2state$??0eBaton@@QEAA@AEAIV?$Local@VFunction@v8@@@v8@@V?$Local@VObject@v8@@@2@@Z 0000000180059530     njsConnection.obj
 0002:00014578       $unwind$??1eBaton@@QEAA@XZ 0000000180059578     njsConnection.obj
 0002:00014598       $stateUnwindMap$??1eBaton@@QEAA@XZ 0000000180059598     njsConnection.obj
 0002:000145d0       $ip2state$??1eBaton@@QEAA@XZ 00000001800595d0     njsConnection.obj
 0002:00014608       $unwind$??_EMetaInfo@@QEAAPEAXI@Z 0000000180059608     njsConnection.obj
 0002:00014618       $ip2state$??_EMetaInfo@@QEAAPEAXI@Z 0000000180059618     njsConnection.obj
 0002:00014620       $unwind$??_EfetchInfo@@QEAAPEAXI@Z 0000000180059620     njsConnection.obj
 0002:00014630       $ip2state$??_EfetchInfo@@QEAAPEAXI@Z 0000000180059630     njsConnection.obj
 0002:00014638       $unwind$??__F?connectionTemplate_s@Connection@@2V?$Persistent@VFunctionTemplate@v8@@V?$NonCopyablePersistentTraits@VFunctionTemplate@v8@@@2@@Nan@@A@@YAXXZ 0000000180059638     njsConnection.obj
 0002:00014648       $ip2state$??__F?connectionTemplate_s@Connection@@2V?$Persistent@VFunctionTemplate@v8@@V?$NonCopyablePersistentTraits@VFunctionTemplate@v8@@@2@@Nan@@A@@YAXXZ 0000000180059648     njsConnection.obj
 0002:00014650       $unwind$?Init@Connection@@SAXV?$Local@VObject@v8@@@v8@@@Z 0000000180059650     njsConnection.obj
 0002:00014668       $ip2state$?Init@Connection@@SAXV?$Local@VObject@v8@@@v8@@@Z 0000000180059668     njsConnection.obj
 0002:00014680       $unwind$?connectionPropertyException@Connection@@CAXPEAV1@W4NJSErrorType@@V?$basic_string@DU?$char_traits@D@std@@V?$allocator@D@2@@std@@@Z 0000000180059680     njsConnection.obj
 0002:000146a4       $stateUnwindMap$?connectionPropertyException@Connection@@CAXPEAV1@W4NJSErrorType@@V?$basic_string@DU?$char_traits@D@std@@V?$allocator@D@2@@std@@@Z 00000001800596a4     njsConnection.obj
 0002:000146a4       $stateUnwindMap$?lobPropertyException@ILob@@CAXPEAV1@W4NJSErrorType@@V?$basic_string@DU?$char_traits@D@std@@V?$allocator@D@2@@std@@@Z 00000001800596a4     njsIntLob.obj
 0002:000146d0       $ip2state$?connectionPropertyException@Connection@@CAXPEAV1@W4NJSErrorType@@V?$basic_string@DU?$char_traits@D@std@@V?$allocator@D@2@@std@@@Z 00000001800596d0     njsConnection.obj
 0002:00014728       $unwind$?GetStmtCacheSize@Connection@@CAXV?$Local@VString@v8@@@v8@@AEBV?$PropertyCallbackInfo@VValue@v8@@@Nan@@@Z 0000000180059728     njsConnection.obj
 0002:0001473c       $stateUnwindMap$?GetStmtCacheSize@Connection@@CAXV?$Local@VString@v8@@@v8@@AEBV?$PropertyCallbackInfo@VValue@v8@@@Nan@@@Z 000000018005973c     njsConnection.obj
 0002:0001475c       $tryMap$?GetStmtCacheSize@Connection@@CAXV?$Local@VString@v8@@@v8@@AEBV?$PropertyCallbackInfo@VValue@v8@@@Nan@@@Z 000000018005975c     njsConnection.obj
 0002:00014770       $handlerMap$0$?GetStmtCacheSize@Connection@@CAXV?$Local@VString@v8@@@v8@@AEBV?$PropertyCallbackInfo@VValue@v8@@@Nan@@@Z 0000000180059770     njsConnection.obj
 0002:00014790       $ip2state$?GetStmtCacheSize@Connection@@CAXV?$Local@VString@v8@@@v8@@AEBV?$PropertyCallbackInfo@VValue@v8@@@Nan@@@Z 0000000180059790     njsConnection.obj
 0002:000147e8       $unwind$?catch$0@?0??GetStmtCacheSize@Connection@@CAXV?$Local@VString@v8@@@v8@@AEBV?$PropertyCallbackInfo@VValue@v8@@@Nan@@@Z@4HA 00000001800597e8     njsConnection.obj
 0002:000147fc       $unwind$?SetStmtCacheSize@Connection@@CAXV?$Local@VString@v8@@@v8@@V?$Local@VValue@v8@@@3@AEBV?$PropertyCallbackInfo@X@Nan@@@Z 00000001800597fc     njsConnection.obj
 0002:00014810       $ip2state$?SetStmtCacheSize@Connection@@CAXV?$Local@VString@v8@@@v8@@V?$Local@VValue@v8@@@3@AEBV?$PropertyCallbackInfo@X@Nan@@@Z 0000000180059810     njsConnection.obj
 0002:00014828       $unwind$?SetClientId@Connection@@CAXV?$Local@VString@v8@@@v8@@V?$Local@VValue@v8@@@3@AEBV?$PropertyCallbackInfo@X@Nan@@@Z 0000000180059828     njsConnection.obj
 0002:00014848       $stateUnwindMap$?SetClientId@Connection@@CAXV?$Local@VString@v8@@@v8@@V?$Local@VValue@v8@@@3@AEBV?$PropertyCallbackInfo@X@Nan@@@Z 0000000180059848     njsConnection.obj
 0002:00014890       $tryMap$?SetClientId@Connection@@CAXV?$Local@VString@v8@@@v8@@V?$Local@VValue@v8@@@3@AEBV?$PropertyCallbackInfo@X@Nan@@@Z 0000000180059890     njsConnection.obj
 0002:000148a4       $handlerMap$0$?SetClientId@Connection@@CAXV?$Local@VString@v8@@@v8@@V?$Local@VValue@v8@@@3@AEBV?$PropertyCallbackInfo@X@Nan@@@Z 00000001800598a4     njsConnection.obj
 0002:000148c0       $ip2state$?SetClientId@Connection@@CAXV?$Local@VString@v8@@@v8@@V?$Local@VValue@v8@@@3@AEBV?$PropertyCallbackInfo@X@Nan@@@Z 00000001800598c0     njsConnection.obj
 0002:00014958       $unwind$?catch$0@?0??SetClientId@Connection@@CAXV?$Local@VString@v8@@@v8@@V?$Local@VValue@v8@@@3@AEBV?$PropertyCallbackInfo@X@Nan@@@Z@4HA 0000000180059958     njsConnection.obj
 0002:0001496c       $unwind$?SetModule@Connection@@CAXV?$Local@VString@v8@@@v8@@V?$Local@VValue@v8@@@3@AEBV?$PropertyCallbackInfo@X@Nan@@@Z 000000018005996c     njsConnection.obj
 0002:0001498c       $stateUnwindMap$?SetModule@Connection@@CAXV?$Local@VString@v8@@@v8@@V?$Local@VValue@v8@@@3@AEBV?$PropertyCallbackInfo@X@Nan@@@Z 000000018005998c     njsConnection.obj
 0002:000149d4       $tryMap$?SetModule@Connection@@CAXV?$Local@VString@v8@@@v8@@V?$Local@VValue@v8@@@3@AEBV?$PropertyCallbackInfo@X@Nan@@@Z 00000001800599d4     njsConnection.obj
 0002:000149e8       $handlerMap$0$?SetModule@Connection@@CAXV?$Local@VString@v8@@@v8@@V?$Local@VValue@v8@@@3@AEBV?$PropertyCallbackInfo@X@Nan@@@Z 00000001800599e8     njsConnection.obj
 0002:00014a00       $ip2state$?SetModule@Connection@@CAXV?$Local@VString@v8@@@v8@@V?$Local@VValue@v8@@@3@AEBV?$PropertyCallbackInfo@X@Nan@@@Z 0000000180059a00     njsConnection.obj
 0002:00014a98       $unwind$?catch$0@?0??SetModule@Connection@@CAXV?$Local@VString@v8@@@v8@@V?$Local@VValue@v8@@@3@AEBV?$PropertyCallbackInfo@X@Nan@@@Z@4HA 0000000180059a98     njsConnection.obj
 0002:00014aac       $unwind$?SetAction@Connection@@CAXV?$Local@VString@v8@@@v8@@V?$Local@VValue@v8@@@3@AEBV?$PropertyCallbackInfo@X@Nan@@@Z 0000000180059aac     njsConnection.obj
 0002:00014acc       $stateUnwindMap$?SetAction@Connection@@CAXV?$Local@VString@v8@@@v8@@V?$Local@VValue@v8@@@3@AEBV?$PropertyCallbackInfo@X@Nan@@@Z 0000000180059acc     njsConnection.obj
 0002:00014b14       $tryMap$?SetAction@Connection@@CAXV?$Local@VString@v8@@@v8@@V?$Local@VValue@v8@@@3@AEBV?$PropertyCallbackInfo@X@Nan@@@Z 0000000180059b14     njsConnection.obj
 0002:00014b28       $handlerMap$0$?SetAction@Connection@@CAXV?$Local@VString@v8@@@v8@@V?$Local@VValue@v8@@@3@AEBV?$PropertyCallbackInfo@X@Nan@@@Z 0000000180059b28     njsConnection.obj
 0002:00014b40       $ip2state$?SetAction@Connection@@CAXV?$Local@VString@v8@@@v8@@V?$Local@VValue@v8@@@3@AEBV?$PropertyCallbackInfo@X@Nan@@@Z 0000000180059b40     njsConnection.obj
 0002:00014bd8       $unwind$?catch$0@?0??SetAction@Connection@@CAXV?$Local@VString@v8@@@v8@@V?$Local@VValue@v8@@@3@AEBV?$PropertyCallbackInfo@X@Nan@@@Z@4HA 0000000180059bd8     njsConnection.obj
 0002:00014bec       $unwind$?GetOracleServerVersion@Connection@@CAXV?$Local@VString@v8@@@v8@@AEBV?$PropertyCallbackInfo@VValue@v8@@@Nan@@@Z 0000000180059bec     njsConnection.obj
 0002:00014c04       $stateUnwindMap$?GetOracleServerVersion@Connection@@CAXV?$Local@VString@v8@@@v8@@AEBV?$PropertyCallbackInfo@VValue@v8@@@Nan@@@Z 0000000180059c04     njsConnection.obj
 0002:00014c24       $tryMap$?GetOracleServerVersion@Connection@@CAXV?$Local@VString@v8@@@v8@@AEBV?$PropertyCallbackInfo@VValue@v8@@@Nan@@@Z 0000000180059c24     njsConnection.obj
 0002:00014c38       $handlerMap$0$?GetOracleServerVersion@Connection@@CAXV?$Local@VString@v8@@@v8@@AEBV?$PropertyCallbackInfo@VValue@v8@@@Nan@@@Z 0000000180059c38     njsConnection.obj
 0002:00014c50       $ip2state$?GetOracleServerVersion@Connection@@CAXV?$Local@VString@v8@@@v8@@AEBV?$PropertyCallbackInfo@VValue@v8@@@Nan@@@Z 0000000180059c50     njsConnection.obj
 0002:00014ca0       $unwind$?catch$0@?0??GetOracleServerVersion@Connection@@CAXV?$Local@VString@v8@@@v8@@AEBV?$PropertyCallbackInfo@VValue@v8@@@Nan@@@Z@4HA 0000000180059ca0     njsConnection.obj
 0002:00014cb4       $unwind$?SetOracleServerVersion@Connection@@CAXV?$Local@VString@v8@@@v8@@V?$Local@VValue@v8@@@3@AEBV?$PropertyCallbackInfo@X@Nan@@@Z 0000000180059cb4     njsConnection.obj
 0002:00014cc8       $ip2state$?SetOracleServerVersion@Connection@@CAXV?$Local@VString@v8@@@v8@@V?$Local@VValue@v8@@@3@AEBV?$PropertyCallbackInfo@X@Nan@@@Z 0000000180059cc8     njsConnection.obj
 0002:00014ce0       $unwind$?Execute@Connection@@CAXAEBV?$FunctionCallbackInfo@VValue@v8@@@Nan@@@Z 0000000180059ce0     njsConnection.obj
 0002:00014d04       $stateUnwindMap$?Execute@Connection@@CAXAEBV?$FunctionCallbackInfo@VValue@v8@@@Nan@@@Z 0000000180059d04     njsConnection.obj
 0002:00014d60       $ip2state$?Execute@Connection@@CAXAEBV?$FunctionCallbackInfo@VValue@v8@@@Nan@@@Z 0000000180059d60     njsConnection.obj
 0002:00014e28       $unwind$?ProcessBinds@Connection@@CAXAEBV?$FunctionCallbackInfo@VValue@v8@@@Nan@@IPEAUeBaton@@@Z 0000000180059e28     njsConnection.obj
 0002:00014e44       $stateUnwindMap$?ProcessBinds@Connection@@CAXAEBV?$FunctionCallbackInfo@VValue@v8@@@Nan@@IPEAUeBaton@@@Z 0000000180059e44     njsConnection.obj
 0002:00014e58       $ip2state$?ProcessBinds@Connection@@CAXAEBV?$FunctionCallbackInfo@VValue@v8@@@Nan@@IPEAUeBaton@@@Z 0000000180059e58     njsConnection.obj
 0002:00014e80       $unwind$?ProcessOptions@Connection@@CAXAEBV?$FunctionCallbackInfo@VValue@v8@@@Nan@@IPEAUeBaton@@@Z 0000000180059e80     njsConnection.obj
 0002:00014eac       $stateUnwindMap$?ProcessOptions@Connection@@CAXAEBV?$FunctionCallbackInfo@VValue@v8@@@Nan@@IPEAUeBaton@@@Z 0000000180059eac     njsConnection.obj
 0002:00014f40       $ip2state$?ProcessOptions@Connection@@CAXAEBV?$FunctionCallbackInfo@VValue@v8@@@Nan@@IPEAUeBaton@@@Z 0000000180059f40     njsConnection.obj
 0002:00015058       $unwind$?GetBinds@Connection@@CAXV?$Local@VObject@v8@@@v8@@PEAUeBaton@@@Z 000000018005a058     njsConnection.obj
 0002:0001507c       $stateUnwindMap$?GetBinds@Connection@@CAXV?$Local@VObject@v8@@@v8@@PEAUeBaton@@@Z 000000018005a07c     njsConnection.obj
 0002:000150c0       $ip2state$?GetBinds@Connection@@CAXV?$Local@VObject@v8@@@v8@@PEAUeBaton@@@Z 000000018005a0c0     njsConnection.obj
 0002:00015150       $unwind$?GetBinds@Connection@@CAXV?$Local@VArray@v8@@@v8@@PEAUeBaton@@@Z 000000018005a150     njsConnection.obj
 0002:00015168       $stateUnwindMap$?GetBinds@Connection@@CAXV?$Local@VArray@v8@@@v8@@PEAUeBaton@@@Z 000000018005a168     njsConnection.obj
 0002:00015178       $ip2state$?GetBinds@Connection@@CAXV?$Local@VArray@v8@@@v8@@PEAUeBaton@@@Z 000000018005a178     njsConnection.obj
 0002:000151a0       $unwind$?GetBindUnit@Connection@@CAXV?$Local@VValue@v8@@@v8@@PEAUBind@@_NPEAUeBaton@@@Z 000000018005a1a0     njsConnection.obj
 0002:000151c8       $stateUnwindMap$?GetBindUnit@Connection@@CAXV?$Local@VValue@v8@@@v8@@PEAUBind@@_NPEAUeBaton@@@Z 000000018005a1c8     njsConnection.obj
 0002:00015260       $ip2state$?GetBindUnit@Connection@@CAXV?$Local@VValue@v8@@@v8@@PEAUBind@@_NPEAUeBaton@@@Z 000000018005a260     njsConnection.obj
 0002:00015398       $unwind$?GetOutBindParams@Connection@@CAXGPEAUBind@@PEAUeBaton@@@Z 000000018005a398     njsConnection.obj
 0002:000153b4       $stateUnwindMap$?GetOutBindParams@Connection@@CAXGPEAUBind@@PEAUeBaton@@@Z 000000018005a3b4     njsConnection.obj
 0002:000153d0       $ip2state$?GetOutBindParams@Connection@@CAXGPEAUBind@@PEAUeBaton@@@Z 000000018005a3d0     njsConnection.obj
 0002:00015410       $unwind$?GetInBindParams@Connection@@CAXV?$Local@VValue@v8@@@v8@@PEAUBind@@PEAUeBaton@@@Z 000000018005a410     njsConnection.obj
 0002:00015424       $stateUnwindMap$?GetOutBinds@Connection@@CA?AV?$Local@VValue@v8@@@v8@@PEAUeBaton@@@Z 000000018005a424     njsConnection.obj
 0002:00015424       $stateUnwindMap$?GetInBindParams@Connection@@CAXV?$Local@VValue@v8@@@v8@@PEAUBind@@PEAUeBaton@@@Z 000000018005a424     njsConnection.obj
 0002:00015424       $stateUnwindMap$?v8Date2OraDate@Connection@@CAXV?$Local@VValue@v8@@@v8@@PEAUBind@@@Z 000000018005a424     njsConnection.obj
 0002:00015424       $stateUnwindMap$?GetValueLob@Connection@@CA?AV?$Local@VValue@v8@@@v8@@PEAUeBaton@@PEAUBind@@@Z 000000018005a424     njsConnection.obj
 0002:00015430       $ip2state$?GetInBindParams@Connection@@CAXV?$Local@VValue@v8@@@v8@@PEAUBind@@PEAUeBaton@@@Z 000000018005a430     njsConnection.obj
 0002:00015448       $unwind$?GetInBindParamsScalar@Connection@@CAXV?$Local@VValue@v8@@@v8@@PEAUBind@@PEAUeBaton@@@Z 000000018005a448     njsConnection.obj
 0002:0001546c       $stateUnwindMap$?GetInBindParamsScalar@Connection@@CAXV?$Local@VValue@v8@@@v8@@PEAUBind@@PEAUeBaton@@@Z 000000018005a46c     njsConnection.obj
 0002:000154c0       $ip2state$?GetInBindParamsScalar@Connection@@CAXV?$Local@VValue@v8@@@v8@@PEAUBind@@PEAUeBaton@@@Z 000000018005a4c0     njsConnection.obj
 0002:00015580       $unwind$?GetInBindParamsArray@Connection@@CAXV?$Local@VArray@v8@@@v8@@PEAUBind@@PEAUeBaton@@@Z 000000018005a580     njsConnection.obj
 0002:000155a8       $stateUnwindMap$?GetInBindParamsArray@Connection@@CAXV?$Local@VArray@v8@@@v8@@PEAUBind@@PEAUeBaton@@@Z 000000018005a5a8     njsConnection.obj
 0002:00015620       $ip2state$?GetInBindParamsArray@Connection@@CAXV?$Local@VArray@v8@@@v8@@PEAUBind@@PEAUeBaton@@@Z 000000018005a620     njsConnection.obj
 0002:00015718       $unwind$?AllocateBindArray@Connection@@CA_NGPEAUBind@@PEAUeBaton@@PEA_K@Z 000000018005a718     njsConnection.obj
 0002:00015734       $stateUnwindMap$?AllocateBindArray@Connection@@CA_NGPEAUBind@@PEAUeBaton@@PEA_K@Z 000000018005a734     njsConnection.obj
 0002:00015780       $ip2state$?AllocateBindArray@Connection@@CA_NGPEAUBind@@PEAUeBaton@@PEA_K@Z 000000018005a780     njsConnection.obj
 0002:00015808       $unwind$?Async_Execute@Connection@@CAXPEAUuv_work_s@@@Z 000000018005a808     njsConnection.obj
 0002:00015830       $stateUnwindMap$?Async_Execute@Connection@@CAXPEAUuv_work_s@@@Z 000000018005a830     njsConnection.obj
 0002:00015898       $tryMap$?Async_Execute@Connection@@CAXPEAUuv_work_s@@@Z 000000018005a898     njsConnection.obj
 0002:000158ac       $handlerMap$0$?Async_Execute@Connection@@CAXPEAUuv_work_s@@@Z 000000018005a8ac     njsConnection.obj
 0002:000158c0       $ip2state$?Async_Execute@Connection@@CAXPEAUuv_work_s@@@Z 000000018005a8c0     njsConnection.obj
 0002:00015a30       $unwind$?catch$0@?0??Async_Execute@Connection@@CAXPEAUuv_work_s@@@Z@4HA 000000018005aa30     njsConnection.obj
 0002:00015a44       $unwind$?PrepareAndBind@Connection@@CAXPEAUeBaton@@@Z 000000018005aa44     njsConnection.obj
 0002:00015a70       $stateUnwindMap$?PrepareAndBind@Connection@@CAXPEAUeBaton@@@Z 000000018005aa70     njsConnection.obj
 0002:00015a80       $ip2state$?PrepareAndBind@Connection@@CAXPEAUeBaton@@@Z 000000018005aa80     njsConnection.obj
 0002:00015aa8       $unwind$?CopyMetaData@Connection@@SAXPEAUMetaInfo@@PEAUeBaton@@PEBUMetaData@dpi@@I@Z 000000018005aaa8     njsConnection.obj
 0002:00015acc       $stateUnwindMap$?CopyMetaData@Connection@@SAXPEAUMetaInfo@@PEAUeBaton@@PEBUMetaData@dpi@@I@Z 000000018005aacc     njsConnection.obj
 0002:00015ae0       $ip2state$?CopyMetaData@Connection@@SAXPEAUMetaInfo@@PEAUeBaton@@PEBUMetaData@dpi@@I@Z 000000018005aae0     njsConnection.obj
 0002:00015b30       $unwind$?MapByName@Connection@@CAHPEAUeBaton@@AEAV?$basic_string@DU?$char_traits@D@std@@V?$allocator@D@2@@std@@AEAG@Z 000000018005ab30     njsConnection.obj
 0002:00015b40       $chain$2$?MapByName@Connection@@CAHPEAUeBaton@@AEAV?$basic_string@DU?$char_traits@D@std@@V?$allocator@D@2@@std@@AEAG@Z 000000018005ab40     njsConnection.obj
 0002:00015b5c       $chain$3$?MapByName@Connection@@CAHPEAUeBaton@@AEAV?$basic_string@DU?$char_traits@D@std@@V?$allocator@D@2@@std@@AEAG@Z 000000018005ab5c     njsConnection.obj
 0002:00015b6c       $unwind$?DoDefines@Connection@@SAXPEAUeBaton@@@Z 000000018005ab6c     njsConnection.obj
 0002:00015b98       $stateUnwindMap$?DoDefines@Connection@@SAXPEAUeBaton@@@Z 000000018005ab98     njsConnection.obj
 0002:00015c10       $ip2state$?DoDefines@Connection@@SAXPEAUeBaton@@@Z 000000018005ac10     njsConnection.obj
 0002:00015d20       $unwind$?DoFetch@Connection@@SAXPEAUeBaton@@@Z 000000018005ad20     njsConnection.obj
 0002:00015d40       $ip2state$?DoFetch@Connection@@SAXPEAUeBaton@@@Z 000000018005ad40     njsConnection.obj
 0002:00015d58       $unwind$?Descr2Double@Connection@@CA?AW4NJSErrorType@@PEAUDefine@@II_N@Z 000000018005ad58     njsConnection.obj
 0002:00015d74       $unwind$?Descr2protoILob@Connection@@CAXPEAUeBaton@@II@Z 000000018005ad74     njsConnection.obj
 0002:00015d94       $stateUnwindMap$?Descr2protoILob@Connection@@CAXPEAUeBaton@@II@Z 000000018005ad94     njsConnection.obj
 0002:00015da8       $ip2state$?Descr2protoILob@Connection@@CAXPEAUeBaton@@II@Z 000000018005ada8     njsConnection.obj
 0002:00015dd0       $unwind$?Async_AfterExecute@Connection@@CAXPEAUuv_work_s@@@Z 000000018005add0     njsConnection.obj
 0002:00015dec       $stateUnwindMap$?Async_AfterExecute@Connection@@CAXPEAUuv_work_s@@@Z 000000018005adec     njsConnection.obj
 0002:00015e00       $ip2state$?Async_AfterExecute@Connection@@CAXPEAUuv_work_s@@@Z 000000018005ae00     njsConnection.obj
 0002:00015e28       $unwind$?GetMetaData@Connection@@SA?AV?$Local@VValue@v8@@@v8@@PEBUMetaInfo@@I_N@Z 000000018005ae28     njsConnection.obj
 0002:00015e50       $stateUnwindMap$?GetMetaData@Connection@@SA?AV?$Local@VValue@v8@@@v8@@PEBUMetaInfo@@I_N@Z 000000018005ae50     njsConnection.obj
 0002:00015e58       $ip2state$?GetMetaData@Connection@@SA?AV?$Local@VValue@v8@@@v8@@PEBUMetaInfo@@I_N@Z 000000018005ae58     njsConnection.obj
 0002:00015e78       $unwind$?GetRows@Connection@@SA?AV?$Local@VValue@v8@@@v8@@PEAUeBaton@@@Z 000000018005ae78     njsConnection.obj
 0002:00015ea0       $stateUnwindMap$?GetRows@Connection@@SA?AV?$Local@VValue@v8@@@v8@@PEAUeBaton@@@Z 000000018005aea0     njsConnection.obj
 0002:00015eb0       $ip2state$?GetRows@Connection@@SA?AV?$Local@VValue@v8@@@v8@@PEAUeBaton@@@Z 000000018005aeb0     njsConnection.obj
 0002:00015ed8       $unwind$?GetValue@Connection@@CA?AV?$Local@VValue@v8@@@v8@@PEAUeBaton@@_NII@Z 000000018005aed8     njsConnection.obj
 0002:00015ef8       $ip2state$?GetValue@Connection@@CA?AV?$Local@VValue@v8@@@v8@@PEAUeBaton@@_NII@Z 000000018005aef8     njsConnection.obj
 0002:00015f10       $unwind$?GetValueRefCursor@Connection@@CA?AV?$Local@VValue@v8@@@v8@@PEAUeBaton@@PEAUBind@@PEAUExtBind@@@Z 000000018005af10     njsConnection.obj
 0002:00015f30       $ip2state$?GetValueRefCursor@Connection@@CA?AV?$Local@VValue@v8@@@v8@@PEAUeBaton@@PEAUBind@@PEAUExtBind@@@Z 000000018005af30     njsConnection.obj
 0002:00015f48       $unwind$?GetValueLob@Connection@@CA?AV?$Local@VValue@v8@@@v8@@PEAUeBaton@@PEAUBind@@@Z 000000018005af48     njsConnection.obj
 0002:00015f68       $ip2state$?GetValueLob@Connection@@CA?AV?$Local@VValue@v8@@@v8@@PEAUeBaton@@PEAUBind@@@Z 000000018005af68     njsConnection.obj
 0002:00015f80       $unwind$?GetValueCommon@Connection@@CA?AV?$Local@VValue@v8@@@v8@@PEAUeBaton@@FGPEAXI@Z 000000018005af80     njsConnection.obj
 0002:00015fa4       $stateUnwindMap$?GetValueCommon@Connection@@CA?AV?$Local@VValue@v8@@@v8@@PEAUeBaton@@FGPEAXI@Z 000000018005afa4     njsConnection.obj
 0002:00015fb0       $ip2state$?GetValueCommon@Connection@@CA?AV?$Local@VValue@v8@@@v8@@PEAUeBaton@@FGPEAXI@Z 000000018005afb0     njsConnection.obj
 0002:00015fd0       $unwind$?GetArrayValue@Connection@@CA?AV?$Local@VValue@v8@@@v8@@PEAUeBaton@@PEAUBind@@K@Z 000000018005afd0     njsConnection.obj
 0002:00015ff8       $stateUnwindMap$?GetArrayValue@Connection@@CA?AV?$Local@VValue@v8@@@v8@@PEAUeBaton@@PEAUBind@@K@Z 000000018005aff8     njsConnection.obj
 0002:00016000       $ip2state$?GetArrayValue@Connection@@CA?AV?$Local@VValue@v8@@@v8@@PEAUeBaton@@PEAUBind@@K@Z 000000018005b000     njsConnection.obj
 0002:00016020       $unwind$?GetOutBinds@Connection@@CA?AV?$Local@VValue@v8@@@v8@@PEAUeBaton@@@Z 000000018005b020     njsConnection.obj
 0002:00016038       $ip2state$?GetOutBinds@Connection@@CA?AV?$Local@VValue@v8@@@v8@@PEAUeBaton@@@Z 000000018005b038     njsConnection.obj
 0002:00016050       $unwind$?GetOutBindArray@Connection@@CA?AV?$Local@VValue@v8@@@v8@@PEAUeBaton@@@Z 000000018005b050     njsConnection.obj
 0002:00016070       $stateUnwindMap$?GetOutBindArray@Connection@@CA?AV?$Local@VValue@v8@@@v8@@PEAUeBaton@@@Z 000000018005b070     njsConnection.obj
 0002:00016080       $ip2state$?GetOutBindArray@Connection@@CA?AV?$Local@VValue@v8@@@v8@@PEAUeBaton@@@Z 000000018005b080     njsConnection.obj
 0002:000160a8       $unwind$?GetOutBindObject@Connection@@CA?AV?$Local@VValue@v8@@@v8@@PEAUeBaton@@@Z 000000018005b0a8     njsConnection.obj
 0002:000160c8       $stateUnwindMap$?GetOutBindObject@Connection@@CA?AV?$Local@VValue@v8@@@v8@@PEAUeBaton@@@Z 000000018005b0c8     njsConnection.obj
 0002:000160d8       $ip2state$?GetOutBindObject@Connection@@CA?AV?$Local@VValue@v8@@@v8@@PEAUeBaton@@@Z 000000018005b0d8     njsConnection.obj
 0002:00016100       $unwind$?Release@Connection@@CAXAEBV?$FunctionCallbackInfo@VValue@v8@@@Nan@@@Z 000000018005b100     njsConnection.obj
 0002:00016128       $stateUnwindMap$?Release@Connection@@CAXAEBV?$FunctionCallbackInfo@VValue@v8@@@Nan@@@Z 000000018005b128     njsConnection.obj
 0002:00016180       $ip2state$?Release@Connection@@CAXAEBV?$FunctionCallbackInfo@VValue@v8@@@Nan@@@Z 000000018005b180     njsConnection.obj
 0002:00016248       $unwind$?Async_Release@Connection@@CAXPEAUuv_work_s@@@Z 000000018005b248     njsConnection.obj
 0002:0001625c       $stateUnwindMap$?Async_Release@Connection@@CAXPEAUuv_work_s@@@Z 000000018005b25c     njsConnection.obj
 0002:0001627c       $tryMap$?Async_Release@Connection@@CAXPEAUuv_work_s@@@Z 000000018005b27c     njsConnection.obj
 0002:00016290       $handlerMap$0$?Async_Release@Connection@@CAXPEAUuv_work_s@@@Z 000000018005b290     njsConnection.obj
 0002:000162b0       $ip2state$?Async_Release@Connection@@CAXPEAUuv_work_s@@@Z 000000018005b2b0     njsConnection.obj
 0002:00016300       $unwind$?catch$0@?0??Async_Release@Connection@@CAXPEAUuv_work_s@@@Z@4HA 000000018005b300     njsConnection.obj
 0002:00016314       $unwind$?Async_AfterRelease@Connection@@CAXPEAUuv_work_s@@@Z 000000018005b314     njsConnection.obj
 0002:00016330       $ip2state$?Async_AfterRelease@Connection@@CAXPEAUuv_work_s@@@Z 000000018005b330     njsConnection.obj
 0002:00016358       $unwind$?Commit@Connection@@CAXAEBV?$FunctionCallbackInfo@VValue@v8@@@Nan@@@Z 000000018005b358     njsConnection.obj
 0002:00016378       $stateUnwindMap$?Rollback@Connection@@CAXAEBV?$FunctionCallbackInfo@VValue@v8@@@Nan@@@Z 000000018005b378     njsConnection.obj
 0002:00016378       $stateUnwindMap$?Commit@Connection@@CAXAEBV?$FunctionCallbackInfo@VValue@v8@@@Nan@@@Z 000000018005b378     njsConnection.obj
 0002:00016378       $stateUnwindMap$?Break@Connection@@CAXAEBV?$FunctionCallbackInfo@VValue@v8@@@Nan@@@Z 000000018005b378     njsConnection.obj
 0002:000163b0       $ip2state$?Commit@Connection@@CAXAEBV?$FunctionCallbackInfo@VValue@v8@@@Nan@@@Z 000000018005b3b0     njsConnection.obj
 0002:00016438       $unwind$?Async_Commit@Connection@@CAXPEAUuv_work_s@@@Z 000000018005b438     njsConnection.obj
 0002:0001644c       $stateUnwindMap$?Async_Commit@Connection@@CAXPEAUuv_work_s@@@Z 000000018005b44c     njsConnection.obj
 0002:00016464       $tryMap$?Async_Commit@Connection@@CAXPEAUuv_work_s@@@Z 000000018005b464     njsConnection.obj
 0002:00016478       $handlerMap$0$?Async_Commit@Connection@@CAXPEAUuv_work_s@@@Z 000000018005b478     njsConnection.obj
 0002:00016490       $ip2state$?Async_Commit@Connection@@CAXPEAUuv_work_s@@@Z 000000018005b490     njsConnection.obj
 0002:000164d0       $unwind$?catch$0@?0??Async_Commit@Connection@@CAXPEAUuv_work_s@@@Z@4HA 000000018005b4d0     njsConnection.obj
 0002:000164e4       $unwind$?Async_AfterRollback@Connection@@CAXPEAUuv_work_s@@@Z 000000018005b4e4     njsConnection.obj
 0002:000164e4       $unwind$?Async_AfterBreak@Connection@@CAXPEAUuv_work_s@@@Z 000000018005b4e4     njsConnection.obj
 0002:000164e4       $unwind$?Async_AfterCommit@Connection@@CAXPEAUuv_work_s@@@Z 000000018005b4e4     njsConnection.obj
 0002:00016500       $ip2state$?Async_AfterRollback@Connection@@CAXPEAUuv_work_s@@@Z 000000018005b500     njsConnection.obj
 0002:00016500       $ip2state$?Async_AfterCommit@Connection@@CAXPEAUuv_work_s@@@Z 000000018005b500     njsConnection.obj
 0002:00016500       $ip2state$?Async_AfterBreak@Connection@@CAXPEAUuv_work_s@@@Z 000000018005b500     njsConnection.obj
 0002:00016528       $unwind$?Rollback@Connection@@CAXAEBV?$FunctionCallbackInfo@VValue@v8@@@Nan@@@Z 000000018005b528     njsConnection.obj
 0002:00016550       $ip2state$?Rollback@Connection@@CAXAEBV?$FunctionCallbackInfo@VValue@v8@@@Nan@@@Z 000000018005b550     njsConnection.obj
 0002:000165d8       $unwind$?Async_Rollback@Connection@@CAXPEAUuv_work_s@@@Z 000000018005b5d8     njsConnection.obj
 0002:000165ec       $stateUnwindMap$?Async_Rollback@Connection@@CAXPEAUuv_work_s@@@Z 000000018005b5ec     njsConnection.obj
 0002:00016604       $tryMap$?Async_Rollback@Connection@@CAXPEAUuv_work_s@@@Z 000000018005b604     njsConnection.obj
 0002:00016618       $handlerMap$0$?Async_Rollback@Connection@@CAXPEAUuv_work_s@@@Z 000000018005b618     njsConnection.obj
 0002:00016630       $ip2state$?Async_Rollback@Connection@@CAXPEAUuv_work_s@@@Z 000000018005b630     njsConnection.obj
 0002:00016670       $unwind$?catch$0@?0??Async_Rollback@Connection@@CAXPEAUuv_work_s@@@Z@4HA 000000018005b670     njsConnection.obj
 0002:00016684       $unwind$?Break@Connection@@CAXAEBV?$FunctionCallbackInfo@VValue@v8@@@Nan@@@Z 000000018005b684     njsConnection.obj
 0002:000166b0       $ip2state$?Break@Connection@@CAXAEBV?$FunctionCallbackInfo@VValue@v8@@@Nan@@@Z 000000018005b6b0     njsConnection.obj
 0002:00016738       $unwind$?Async_Break@Connection@@CAXPEAUuv_work_s@@@Z 000000018005b738     njsConnection.obj
 0002:0001674c       $stateUnwindMap$?Async_Break@Connection@@CAXPEAUuv_work_s@@@Z 000000018005b74c     njsConnection.obj
 0002:00016764       $tryMap$?Async_Break@Connection@@CAXPEAUuv_work_s@@@Z 000000018005b764     njsConnection.obj
 0002:00016778       $handlerMap$0$?Async_Break@Connection@@CAXPEAUuv_work_s@@@Z 000000018005b778     njsConnection.obj
 0002:00016790       $ip2state$?Async_Break@Connection@@CAXPEAUuv_work_s@@@Z 000000018005b790     njsConnection.obj
 0002:000167d0       $unwind$?catch$0@?0??Async_Break@Connection@@CAXPEAUuv_work_s@@@Z@4HA 000000018005b7d0     njsConnection.obj
 0002:000167e4       $unwind$?v8Date2OraDate@Connection@@CAXV?$Local@VValue@v8@@@v8@@PEAUBind@@@Z 000000018005b7e4     njsConnection.obj
 0002:000167f8       $ip2state$?v8Date2OraDate@Connection@@CAXV?$Local@VValue@v8@@@v8@@PEAUBind@@@Z 000000018005b7f8     njsConnection.obj
 0002:00016810       $unwind$?UpdateDateValue@Connection@@CAXPEAUeBaton@@I@Z 000000018005b810     njsConnection.obj
 0002:0001681c       $chain$0$?UpdateDateValue@Connection@@CAXPEAUeBaton@@I@Z 000000018005b81c     njsConnection.obj
 0002:00016830       $chain$1$?UpdateDateValue@Connection@@CAXPEAUeBaton@@I@Z 000000018005b830     njsConnection.obj
 0002:00016840       $chain$2$?UpdateDateValue@Connection@@CAXPEAUeBaton@@I@Z 000000018005b840     njsConnection.obj
 0002:00016854       $unwind$?cbDynBufferAllocate@Connection@@CAXPEAX_NII@Z 000000018005b854     njsConnection.obj
 0002:00016874       $stateUnwindMap$?cbDynBufferAllocate@Connection@@CAXPEAX_NII@Z 000000018005b874     njsConnection.obj
 0002:00016910       $ip2state$?cbDynBufferAllocate@Connection@@CAXPEAX_NII@Z 000000018005b910     njsConnection.obj
 0002:00016a60       $unwind$?NewLob@Connection@@CA?AV?$Local@VValue@v8@@@v8@@PEAUeBaton@@PEAVProtoILob@@@Z 000000018005ba60     njsConnection.obj
 0002:00016a7c       $stateUnwindMap$?NewLob@Connection@@CA?AV?$Local@VValue@v8@@@v8@@PEAUeBaton@@PEAVProtoILob@@@Z 000000018005ba7c     njsConnection.obj
 0002:00016a88       $ip2state$?NewLob@Connection@@CA?AV?$Local@VValue@v8@@@v8@@PEAUeBaton@@PEAVProtoILob@@@Z 000000018005ba88     njsConnection.obj
 0002:00016aa0       $unwind$?insert@?$basic_string@DU?$char_traits@D@std@@V?$allocator@D@2@@std@@QEAAAEAV12@_KPEBD0@Z 000000018005baa0     njsConnection.obj
 0002:00016ab0       $chain$0$?insert@?$basic_string@DU?$char_traits@D@std@@V?$allocator@D@2@@std@@QEAAAEAV12@_KPEBD0@Z 000000018005bab0     njsConnection.obj
 0002:00016ac4       $chain$1$?insert@?$basic_string@DU?$char_traits@D@std@@V?$allocator@D@2@@std@@QEAAAEAV12@_KPEBD0@Z 000000018005bac4     njsConnection.obj
 0002:00016ad4       $chain$2$?insert@?$basic_string@DU?$char_traits@D@std@@V?$allocator@D@2@@std@@QEAAAEAV12@_KPEBD0@Z 000000018005bad4     njsConnection.obj
 0002:00016ae8       $unwind$?insert@?$basic_string@DU?$char_traits@D@std@@V?$allocator@D@2@@std@@QEAAAEAV12@_KAEBV12@00@Z 000000018005bae8     njsConnection.obj
 0002:00016af8       $chain$0$?insert@?$basic_string@DU?$char_traits@D@std@@V?$allocator@D@2@@std@@QEAAAEAV12@_KAEBV12@00@Z 000000018005baf8     njsConnection.obj
 0002:00016b0c       $chain$1$?insert@?$basic_string@DU?$char_traits@D@std@@V?$allocator@D@2@@std@@QEAAAEAV12@_KAEBV12@00@Z 000000018005bb0c     njsConnection.obj
 0002:00016b20       $chain$2$?insert@?$basic_string@DU?$char_traits@D@std@@V?$allocator@D@2@@std@@QEAAAEAV12@_KAEBV12@00@Z 000000018005bb20     njsConnection.obj
 0002:00016b30       $chain$3$?insert@?$basic_string@DU?$char_traits@D@std@@V?$allocator@D@2@@std@@QEAAAEAV12@_KAEBV12@00@Z 000000018005bb30     njsConnection.obj
 0002:00016b44       $chain$4$?insert@?$basic_string@DU?$char_traits@D@std@@V?$allocator@D@2@@std@@QEAAAEAV12@_KAEBV12@00@Z 000000018005bb44     njsConnection.obj
 0002:00016b54       $unwind$??0rsBaton@@QEAA@AEAIV?$Local@VFunction@v8@@@v8@@V?$Local@VObject@v8@@@2@2@Z 000000018005bb54     njsResultSet.obj
 0002:00016b6c       $stateUnwindMap$??0rsBaton@@QEAA@AEAIV?$Local@VFunction@v8@@@v8@@V?$Local@VObject@v8@@@2@2@Z 000000018005bb6c     njsResultSet.obj
 0002:00016b88       $ip2state$??0rsBaton@@QEAA@AEAIV?$Local@VFunction@v8@@@v8@@V?$Local@VObject@v8@@@2@2@Z 000000018005bb88     njsResultSet.obj
 0002:00016bb8       $unwind$??1rsBaton@@QEAA@XZ 000000018005bbb8     njsResultSet.obj
 0002:00016bd0       $ip2state$??1rsBaton@@QEAA@XZ 000000018005bbd0     njsResultSet.obj
 0002:00016bd8       $unwind$??__F?resultSetTemplate_s@ResultSet@@2V?$Persistent@VFunctionTemplate@v8@@V?$NonCopyablePersistentTraits@VFunctionTemplate@v8@@@2@@Nan@@A@@YAXXZ 000000018005bbd8     njsResultSet.obj
 0002:00016be8       $ip2state$??__F?resultSetTemplate_s@ResultSet@@2V?$Persistent@VFunctionTemplate@v8@@V?$NonCopyablePersistentTraits@VFunctionTemplate@v8@@@2@@Nan@@A@@YAXXZ 000000018005bbe8     njsResultSet.obj
 0002:00016bf0       $unwind$?setResultSet@ResultSet@@QEAAXPEAVStmt@dpi@@PEAUeBaton@@IPEBUMetaInfo@@@Z 000000018005bbf0     njsResultSet.obj
 0002:00016c14       $stateUnwindMap$?setResultSet@ResultSet@@QEAAXPEAVStmt@dpi@@PEAUeBaton@@IPEBUMetaInfo@@@Z 000000018005bc14     njsResultSet.obj
 0002:00016c30       $ip2state$?setResultSet@ResultSet@@QEAAXPEAVStmt@dpi@@PEAUeBaton@@IPEBUMetaInfo@@@Z 000000018005bc30     njsResultSet.obj
 0002:00016c68       $unwind$?Init@ResultSet@@SAXV?$Local@VObject@v8@@@v8@@@Z 000000018005bc68     njsResultSet.obj
 0002:00016c80       $ip2state$?Init@ResultSet@@SAXV?$Local@VObject@v8@@@v8@@@Z 000000018005bc80     njsResultSet.obj
 0002:00016c98       $unwind$?GetMetaData@ResultSet@@CAXV?$Local@VString@v8@@@v8@@AEBV?$PropertyCallbackInfo@VValue@v8@@@Nan@@@Z 000000018005bc98     njsResultSet.obj
 0002:00016cb4       $stateUnwindMap$?GetMetaData@ResultSet@@CAXV?$Local@VString@v8@@@v8@@AEBV?$PropertyCallbackInfo@VValue@v8@@@Nan@@@Z 000000018005bcb4     njsResultSet.obj
 0002:00016ce0       $ip2state$?GetMetaData@ResultSet@@CAXV?$Local@VString@v8@@@v8@@AEBV?$PropertyCallbackInfo@VValue@v8@@@Nan@@@Z 000000018005bce0     njsResultSet.obj
 0002:00016d28       $unwind$?SetMetaData@ResultSet@@CAXV?$Local@VString@v8@@@v8@@V?$Local@VValue@v8@@@3@AEBV?$PropertyCallbackInfo@X@Nan@@@Z 000000018005bd28     njsResultSet.obj
 0002:00016d44       $stateUnwindMap$?SetMetaData@ResultSet@@CAXV?$Local@VString@v8@@@v8@@V?$Local@VValue@v8@@@3@AEBV?$PropertyCallbackInfo@X@Nan@@@Z 000000018005bd44     njsResultSet.obj
 0002:00016d70       $ip2state$?SetMetaData@ResultSet@@CAXV?$Local@VString@v8@@@v8@@V?$Local@VValue@v8@@@3@AEBV?$PropertyCallbackInfo@X@Nan@@@Z 000000018005bd70     njsResultSet.obj
 0002:00016dc8       $unwind$?GetRow@ResultSet@@CAXAEBV?$FunctionCallbackInfo@VValue@v8@@@Nan@@@Z 000000018005bdc8     njsResultSet.obj
 0002:00016df0       $stateUnwindMap$?GetRow@ResultSet@@CAXAEBV?$FunctionCallbackInfo@VValue@v8@@@Nan@@@Z 000000018005bdf0     njsResultSet.obj
 0002:00016e30       $ip2state$?GetRow@ResultSet@@CAXAEBV?$FunctionCallbackInfo@VValue@v8@@@Nan@@@Z 000000018005be30     njsResultSet.obj
 0002:00016eb8       $unwind$?GetRows@ResultSet@@CAXAEBV?$FunctionCallbackInfo@VValue@v8@@@Nan@@@Z 000000018005beb8     njsResultSet.obj
 0002:00016ee0       $stateUnwindMap$?GetRows@ResultSet@@CAXAEBV?$FunctionCallbackInfo@VValue@v8@@@Nan@@@Z 000000018005bee0     njsResultSet.obj
 0002:00016f30       $ip2state$?GetRows@ResultSet@@CAXAEBV?$FunctionCallbackInfo@VValue@v8@@@Nan@@@Z 000000018005bf30     njsResultSet.obj
 0002:00016fd8       $unwind$?GetRowsCommon@ResultSet@@CAXPEAUrsBaton@@@Z 000000018005bfd8     njsResultSet.obj
 0002:00016ff4       $stateUnwindMap$?GetRowsCommon@ResultSet@@CAXPEAUrsBaton@@@Z 000000018005bff4     njsResultSet.obj
 0002:00017008       $ip2state$?GetRowsCommon@ResultSet@@CAXPEAUrsBaton@@@Z 000000018005c008     njsResultSet.obj
 0002:00017030       $unwind$?Async_GetRows@ResultSet@@CAXPEAUuv_work_s@@@Z 000000018005c030     njsResultSet.obj
 0002:00017054       $stateUnwindMap$?Async_GetRows@ResultSet@@CAXPEAUuv_work_s@@@Z 000000018005c054     njsResultSet.obj
 0002:0001706c       $tryMap$?Async_GetRows@ResultSet@@CAXPEAUuv_work_s@@@Z 000000018005c06c     njsResultSet.obj
 0002:00017080       $handlerMap$0$?Async_GetRows@ResultSet@@CAXPEAUuv_work_s@@@Z 000000018005c080     njsResultSet.obj
 0002:000170a0       $ip2state$?Async_GetRows@ResultSet@@CAXPEAUuv_work_s@@@Z 000000018005c0a0     njsResultSet.obj
 0002:00017100       $unwind$?catch$0@?0??Async_GetRows@ResultSet@@CAXPEAUuv_work_s@@@Z@4HA 000000018005c100     njsResultSet.obj
 0002:00017114       $unwind$?Async_AfterGetRows@ResultSet@@CAXPEAUuv_work_s@@@Z 000000018005c114     njsResultSet.obj
 0002:00017130       $ip2state$?Async_AfterGetRows@ResultSet@@CAXPEAUuv_work_s@@@Z 000000018005c130     njsResultSet.obj
 0002:00017158       $unwind$?Close@ResultSet@@CAXAEBV?$FunctionCallbackInfo@VValue@v8@@@Nan@@@Z 000000018005c158     njsResultSet.obj
 0002:00017180       $stateUnwindMap$?Close@ResultSet@@CAXAEBV?$FunctionCallbackInfo@VValue@v8@@@Nan@@@Z 000000018005c180     njsResultSet.obj
 0002:000171d0       $ip2state$?Close@ResultSet@@CAXAEBV?$FunctionCallbackInfo@VValue@v8@@@Nan@@@Z 000000018005c1d0     njsResultSet.obj
 0002:00017278       $unwind$?Async_Close@ResultSet@@CAXPEAUuv_work_s@@@Z 000000018005c278     njsResultSet.obj
 0002:0001728c       $stateUnwindMap$?Async_Close@ResultSet@@CAXPEAUuv_work_s@@@Z 000000018005c28c     njsResultSet.obj
 0002:000172a4       $tryMap$?Async_Close@ResultSet@@CAXPEAUuv_work_s@@@Z 000000018005c2a4     njsResultSet.obj
 0002:000172b8       $handlerMap$0$?Async_Close@ResultSet@@CAXPEAUuv_work_s@@@Z 000000018005c2b8     njsResultSet.obj
 0002:000172d0       $ip2state$?Async_Close@ResultSet@@CAXPEAUuv_work_s@@@Z 000000018005c2d0     njsResultSet.obj
 0002:00017310       $unwind$?catch$0@?0??Async_Close@ResultSet@@CAXPEAUuv_work_s@@@Z@4HA 000000018005c310     njsResultSet.obj
 0002:00017328       $unwind$?Async_AfterClose@ResultSet@@CAXPEAUuv_work_s@@@Z 000000018005c328     njsResultSet.obj
 0002:00017340       $ip2state$?Async_AfterClose@ResultSet@@CAXPEAUuv_work_s@@@Z 000000018005c340     njsResultSet.obj
 0002:00017368       $unwind$?clearFetchBuffer@ResultSet@@CAXPEAUDefine@@II@Z 000000018005c368     njsResultSet.obj
 0002:00017374       $chain$5$?clearFetchBuffer@ResultSet@@CAXPEAUDefine@@II@Z 000000018005c374     njsResultSet.obj
 0002:0001739c       $chain$6$?clearFetchBuffer@ResultSet@@CAXPEAUDefine@@II@Z 000000018005c39c     njsResultSet.obj
 0002:000173ac       $chain$7$?clearFetchBuffer@ResultSet@@CAXPEAUDefine@@II@Z 000000018005c3ac     njsResultSet.obj
 0002:000173d4       $unwind$?getErrorMsg@NJSMessages@@SA?AV?$basic_string@DU?$char_traits@D@std@@V?$allocator@D@2@@std@@W4NJSErrorType@@ZZ 000000018005c3d4     njsMessages.obj
 0002:000173f0       $stateUnwindMap$?getErrorMsg@NJSMessages@@SA?AV?$basic_string@DU?$char_traits@D@std@@V?$allocator@D@2@@std@@W4NJSErrorType@@ZZ 000000018005c3f0     njsMessages.obj
 0002:000173f8       $ip2state$?getErrorMsg@NJSMessages@@SA?AV?$basic_string@DU?$char_traits@D@std@@V?$allocator@D@2@@std@@W4NJSErrorType@@ZZ 000000018005c3f8     njsMessages.obj
 0002:00017408       $unwind$??0LobBaton@@QEAA@AEAIV?$Local@VFunction@v8@@@v8@@V?$Local@VObject@v8@@@2@@Z 000000018005c408     njsIntLob.obj
 0002:0001741c       $stateUnwindMap$??0LobBaton@@QEAA@AEAIV?$Local@VObject@v8@@@v8@@V?$Local@VFunction@v8@@@2@1@Z 000000018005c41c     njsIntLob.obj
 0002:0001741c       $stateUnwindMap$??0LobBaton@@QEAA@AEAIV?$Local@VFunction@v8@@@v8@@V?$Local@VObject@v8@@@2@@Z 000000018005c41c     njsIntLob.obj
 0002:00017448       $ip2state$??0LobBaton@@QEAA@AEAIV?$Local@VFunction@v8@@@v8@@V?$Local@VObject@v8@@@2@@Z 000000018005c448     njsIntLob.obj
 0002:00017480       $unwind$??0LobBaton@@QEAA@AEAIV?$Local@VObject@v8@@@v8@@V?$Local@VFunction@v8@@@2@1@Z 000000018005c480     njsIntLob.obj
 0002:00017498       $ip2state$??0LobBaton@@QEAA@AEAIV?$Local@VObject@v8@@@v8@@V?$Local@VFunction@v8@@@2@1@Z 000000018005c498     njsIntLob.obj
 0002:000174d0       $unwind$??1LobBaton@@QEAA@XZ 000000018005c4d0     njsIntLob.obj
 0002:000174e4       $stateUnwindMap$??1LobBaton@@QEAA@XZ 000000018005c4e4     njsIntLob.obj
 0002:00017518       $ip2state$??1LobBaton@@QEAA@XZ 000000018005c518     njsIntLob.obj
 0002:00017520       $unwind$??__F?iLobTemplate_s@ILob@@2V?$Persistent@VFunctionTemplate@v8@@V?$NonCopyablePersistentTraits@VFunctionTemplate@v8@@@2@@Nan@@A@@YAXXZ 000000018005c520     njsIntLob.obj
 0002:00017530       $ip2state$??__F?iLobTemplate_s@ILob@@2V?$Persistent@VFunctionTemplate@v8@@V?$NonCopyablePersistentTraits@VFunctionTemplate@v8@@@2@@Nan@@A@@YAXXZ 000000018005c530     njsIntLob.obj
 0002:00017538       $unwind$??1ILob@@EEAA@XZ   000000018005c538     njsIntLob.obj
 0002:00017548       $ip2state$??1ILob@@EEAA@XZ 000000018005c548     njsIntLob.obj
 0002:00017560       $unwind$?setILob@ILob@@QEAAXPEAUeBaton@@PEAVProtoILob@@@Z 000000018005c560     njsIntLob.obj
 0002:0001757c       $stateUnwindMap$?setILob@ILob@@QEAAXPEAUeBaton@@PEAVProtoILob@@@Z 000000018005c57c     njsIntLob.obj
 0002:00017594       $tryMap$?setILob@ILob@@QEAAXPEAUeBaton@@PEAVProtoILob@@@Z 000000018005c594     njsIntLob.obj
 0002:000175a8       $handlerMap$0$?setILob@ILob@@QEAAXPEAUeBaton@@PEAVProtoILob@@@Z 000000018005c5a8     njsIntLob.obj
 0002:000175c0       $ip2state$?setILob@ILob@@QEAAXPEAUeBaton@@PEAVProtoILob@@@Z 000000018005c5c0     njsIntLob.obj
 0002:00017600       $unwind$?catch$0@?0??setILob@ILob@@QEAAXPEAUeBaton@@PEAVProtoILob@@@Z@4HA 000000018005c600     njsIntLob.obj
 0002:00017614       $unwind$?Init@ILob@@SAXV?$Local@VObject@v8@@@v8@@@Z 000000018005c614     njsIntLob.obj
 0002:00017630       $ip2state$?Init@ILob@@SAXV?$Local@VObject@v8@@@v8@@@Z 000000018005c630     njsIntLob.obj
 0002:00017648       $unwind$?Release@ILob@@CAXAEBV?$FunctionCallbackInfo@VValue@v8@@@Nan@@@Z 000000018005c648     njsIntLob.obj
 0002:00017664       $stateUnwindMap$?Release@ILob@@CAXAEBV?$FunctionCallbackInfo@VValue@v8@@@Nan@@@Z 000000018005c664     njsIntLob.obj
 0002:00017680       $ip2state$?Release@ILob@@CAXAEBV?$FunctionCallbackInfo@VValue@v8@@@Nan@@@Z 000000018005c680     njsIntLob.obj
 0002:000176b8       $unwind$?lobPropertyException@ILob@@CAXPEAV1@W4NJSErrorType@@V?$basic_string@DU?$char_traits@D@std@@V?$allocator@D@2@@std@@@Z 000000018005c6b8     njsIntLob.obj
 0002:000176e0       $ip2state$?lobPropertyException@ILob@@CAXPEAV1@W4NJSErrorType@@V?$basic_string@DU?$char_traits@D@std@@V?$allocator@D@2@@std@@@Z 000000018005c6e0     njsIntLob.obj
 0002:00017738       $unwind$?GetChunkSize@ILob@@CAXV?$Local@VString@v8@@@v8@@AEBV?$PropertyCallbackInfo@VValue@v8@@@Nan@@@Z 000000018005c738     njsIntLob.obj
 0002:00017758       $stateUnwindMap$?GetChunkSize@ILob@@CAXV?$Local@VString@v8@@@v8@@AEBV?$PropertyCallbackInfo@VValue@v8@@@Nan@@@Z 000000018005c758     njsIntLob.obj
 0002:00017780       $tryMap$?GetChunkSize@ILob@@CAXV?$Local@VString@v8@@@v8@@AEBV?$PropertyCallbackInfo@VValue@v8@@@Nan@@@Z 000000018005c780     njsIntLob.obj
 0002:00017794       $handlerMap$0$?GetChunkSize@ILob@@CAXV?$Local@VString@v8@@@v8@@AEBV?$PropertyCallbackInfo@VValue@v8@@@Nan@@@Z 000000018005c794     njsIntLob.obj
 0002:000177b0       $ip2state$?GetChunkSize@ILob@@CAXV?$Local@VString@v8@@@v8@@AEBV?$PropertyCallbackInfo@VValue@v8@@@Nan@@@Z 000000018005c7b0     njsIntLob.obj
 0002:00017818       $unwind$?catch$0@?0??GetChunkSize@ILob@@CAXV?$Local@VString@v8@@@v8@@AEBV?$PropertyCallbackInfo@VValue@v8@@@Nan@@@Z@4HA 000000018005c818     njsIntLob.obj
 0002:0001782c       $unwind$?SetChunkSize@ILob@@CAXV?$Local@VString@v8@@@v8@@V?$Local@VValue@v8@@@3@AEBV?$PropertyCallbackInfo@X@Nan@@@Z 000000018005c82c     njsIntLob.obj
 0002:00017840       $ip2state$?SetChunkSize@ILob@@CAXV?$Local@VString@v8@@@v8@@V?$Local@VValue@v8@@@3@AEBV?$PropertyCallbackInfo@X@Nan@@@Z 000000018005c840     njsIntLob.obj
 0002:00017858       $unwind$?GetLength@ILob@@CAXV?$Local@VString@v8@@@v8@@AEBV?$PropertyCallbackInfo@VValue@v8@@@Nan@@@Z 000000018005c858     njsIntLob.obj
 0002:00017878       $stateUnwindMap$?GetLength@ILob@@CAXV?$Local@VString@v8@@@v8@@AEBV?$PropertyCallbackInfo@VValue@v8@@@Nan@@@Z 000000018005c878     njsIntLob.obj
 0002:000178a0       $tryMap$?GetLength@ILob@@CAXV?$Local@VString@v8@@@v8@@AEBV?$PropertyCallbackInfo@VValue@v8@@@Nan@@@Z 000000018005c8a0     njsIntLob.obj
 0002:000178b4       $handlerMap$0$?GetLength@ILob@@CAXV?$Local@VString@v8@@@v8@@AEBV?$PropertyCallbackInfo@VValue@v8@@@Nan@@@Z 000000018005c8b4     njsIntLob.obj
 0002:000178d0       $ip2state$?GetLength@ILob@@CAXV?$Local@VString@v8@@@v8@@AEBV?$PropertyCallbackInfo@VValue@v8@@@Nan@@@Z 000000018005c8d0     njsIntLob.obj
 0002:00017938       $unwind$?catch$0@?0??GetLength@ILob@@CAXV?$Local@VString@v8@@@v8@@AEBV?$PropertyCallbackInfo@VValue@v8@@@Nan@@@Z@4HA 000000018005c938     njsIntLob.obj
 0002:0001794c       $unwind$?SetLength@ILob@@CAXV?$Local@VString@v8@@@v8@@V?$Local@VValue@v8@@@3@AEBV?$PropertyCallbackInfo@X@Nan@@@Z 000000018005c94c     njsIntLob.obj
 0002:00017960       $ip2state$?SetLength@ILob@@CAXV?$Local@VString@v8@@@v8@@V?$Local@VValue@v8@@@3@AEBV?$PropertyCallbackInfo@X@Nan@@@Z 000000018005c960     njsIntLob.obj
 0002:00017978       $unwind$?GetPieceSize@ILob@@CAXV?$Local@VString@v8@@@v8@@AEBV?$PropertyCallbackInfo@VValue@v8@@@Nan@@@Z 000000018005c978     njsIntLob.obj
 0002:00017998       $stateUnwindMap$?GetPieceSize@ILob@@CAXV?$Local@VString@v8@@@v8@@AEBV?$PropertyCallbackInfo@VValue@v8@@@Nan@@@Z 000000018005c998     njsIntLob.obj
 0002:000179c0       $tryMap$?GetPieceSize@ILob@@CAXV?$Local@VString@v8@@@v8@@AEBV?$PropertyCallbackInfo@VValue@v8@@@Nan@@@Z 000000018005c9c0     njsIntLob.obj
 0002:000179d4       $handlerMap$0$?GetPieceSize@ILob@@CAXV?$Local@VString@v8@@@v8@@AEBV?$PropertyCallbackInfo@VValue@v8@@@Nan@@@Z 000000018005c9d4     njsIntLob.obj
 0002:000179f0       $ip2state$?GetPieceSize@ILob@@CAXV?$Local@VString@v8@@@v8@@AEBV?$PropertyCallbackInfo@VValue@v8@@@Nan@@@Z 000000018005c9f0     njsIntLob.obj
 0002:00017a58       $unwind$?catch$0@?0??GetPieceSize@ILob@@CAXV?$Local@VString@v8@@@v8@@AEBV?$PropertyCallbackInfo@VValue@v8@@@Nan@@@Z@4HA 000000018005ca58     njsIntLob.obj
 0002:00017a6c       $unwind$?SetPieceSize@ILob@@CAXV?$Local@VString@v8@@@v8@@V?$Local@VValue@v8@@@3@AEBV?$PropertyCallbackInfo@X@Nan@@@Z 000000018005ca6c     njsIntLob.obj
 0002:00017a8c       $stateUnwindMap$?SetPieceSize@ILob@@CAXV?$Local@VString@v8@@@v8@@V?$Local@VValue@v8@@@3@AEBV?$PropertyCallbackInfo@X@Nan@@@Z 000000018005ca8c     njsIntLob.obj
 0002:00017acc       $tryMap$?SetPieceSize@ILob@@CAXV?$Local@VString@v8@@@v8@@V?$Local@VValue@v8@@@3@AEBV?$PropertyCallbackInfo@X@Nan@@@Z 000000018005cacc     njsIntLob.obj
 0002:00017ae0       $handlerMap$0$?SetPieceSize@ILob@@CAXV?$Local@VString@v8@@@v8@@V?$Local@VValue@v8@@@3@AEBV?$PropertyCallbackInfo@X@Nan@@@Z 000000018005cae0     njsIntLob.obj
 0002:00017b00       $ip2state$?SetPieceSize@ILob@@CAXV?$Local@VString@v8@@@v8@@V?$Local@VValue@v8@@@3@AEBV?$PropertyCallbackInfo@X@Nan@@@Z 000000018005cb00     njsIntLob.obj
 0002:00017b90       $unwind$?catch$0@?0??SetPieceSize@ILob@@CAXV?$Local@VString@v8@@@v8@@V?$Local@VValue@v8@@@3@AEBV?$PropertyCallbackInfo@X@Nan@@@Z@4HA 000000018005cb90     njsIntLob.obj
 0002:00017ba4       $unwind$?GetOffset@ILob@@CAXV?$Local@VString@v8@@@v8@@AEBV?$PropertyCallbackInfo@VValue@v8@@@Nan@@@Z 000000018005cba4     njsIntLob.obj
 0002:00017bc4       $stateUnwindMap$?GetOffset@ILob@@CAXV?$Local@VString@v8@@@v8@@AEBV?$PropertyCallbackInfo@VValue@v8@@@Nan@@@Z 000000018005cbc4     njsIntLob.obj
 0002:00017bec       $tryMap$?GetOffset@ILob@@CAXV?$Local@VString@v8@@@v8@@AEBV?$PropertyCallbackInfo@VValue@v8@@@Nan@@@Z 000000018005cbec     njsIntLob.obj
 0002:00017c00       $handlerMap$0$?GetOffset@ILob@@CAXV?$Local@VString@v8@@@v8@@AEBV?$PropertyCallbackInfo@VValue@v8@@@Nan@@@Z 000000018005cc00     njsIntLob.obj
 0002:00017c20       $ip2state$?GetOffset@ILob@@CAXV?$Local@VString@v8@@@v8@@AEBV?$PropertyCallbackInfo@VValue@v8@@@Nan@@@Z 000000018005cc20     njsIntLob.obj
 0002:00017c88       $unwind$?catch$0@?0??GetOffset@ILob@@CAXV?$Local@VString@v8@@@v8@@AEBV?$PropertyCallbackInfo@VValue@v8@@@Nan@@@Z@4HA 000000018005cc88     njsIntLob.obj
 0002:00017c9c       $unwind$?SetOffset@ILob@@CAXV?$Local@VString@v8@@@v8@@V?$Local@VValue@v8@@@3@AEBV?$PropertyCallbackInfo@X@Nan@@@Z 000000018005cc9c     njsIntLob.obj
 0002:00017cc4       $stateUnwindMap$?SetOffset@ILob@@CAXV?$Local@VString@v8@@@v8@@V?$Local@VValue@v8@@@3@AEBV?$PropertyCallbackInfo@X@Nan@@@Z 000000018005ccc4     njsIntLob.obj
 0002:00017d00       $ip2state$?SetOffset@ILob@@CAXV?$Local@VString@v8@@@v8@@V?$Local@VValue@v8@@@3@AEBV?$PropertyCallbackInfo@X@Nan@@@Z 000000018005cd00     njsIntLob.obj
 0002:00017d78       $unwind$?GetType@ILob@@CAXV?$Local@VString@v8@@@v8@@AEBV?$PropertyCallbackInfo@VValue@v8@@@Nan@@@Z 000000018005cd78     njsIntLob.obj
 0002:00017d90       $stateUnwindMap$?GetType@ILob@@CAXV?$Local@VString@v8@@@v8@@AEBV?$PropertyCallbackInfo@VValue@v8@@@Nan@@@Z 000000018005cd90     njsIntLob.obj
 0002:00017da8       $tryMap$?GetType@ILob@@CAXV?$Local@VString@v8@@@v8@@AEBV?$PropertyCallbackInfo@VValue@v8@@@Nan@@@Z 000000018005cda8     njsIntLob.obj
 0002:00017dbc       $handlerMap$0$?GetType@ILob@@CAXV?$Local@VString@v8@@@v8@@AEBV?$PropertyCallbackInfo@VValue@v8@@@Nan@@@Z 000000018005cdbc     njsIntLob.obj
 0002:00017dd0       $ip2state$?GetType@ILob@@CAXV?$Local@VString@v8@@@v8@@AEBV?$PropertyCallbackInfo@VValue@v8@@@Nan@@@Z 000000018005cdd0     njsIntLob.obj
 0002:00017e18       $unwind$?catch$0@?0??GetType@ILob@@CAXV?$Local@VString@v8@@@v8@@AEBV?$PropertyCallbackInfo@VValue@v8@@@Nan@@@Z@4HA 000000018005ce18     njsIntLob.obj
 0002:00017e28       $unwind$?SetType@ILob@@CAXV?$Local@VString@v8@@@v8@@V?$Local@VValue@v8@@@3@AEBV?$PropertyCallbackInfo@X@Nan@@@Z 000000018005ce28     njsIntLob.obj
 0002:00017e40       $ip2state$?SetType@ILob@@CAXV?$Local@VString@v8@@@v8@@V?$Local@VValue@v8@@@3@AEBV?$PropertyCallbackInfo@X@Nan@@@Z 000000018005ce40     njsIntLob.obj
 0002:00017e58       $unwind$?Read@ILob@@CAXAEBV?$FunctionCallbackInfo@VValue@v8@@@Nan@@@Z 000000018005ce58     njsIntLob.obj
 0002:00017e78       $stateUnwindMap$?Read@ILob@@CAXAEBV?$FunctionCallbackInfo@VValue@v8@@@Nan@@@Z 000000018005ce78     njsIntLob.obj
 0002:00017ec0       $ip2state$?Read@ILob@@CAXAEBV?$FunctionCallbackInfo@VValue@v8@@@Nan@@@Z 000000018005cec0     njsIntLob.obj
 0002:00017f58       $unwind$?Async_Read@ILob@@CAXPEAUuv_work_s@@@Z 000000018005cf58     njsIntLob.obj
 0002:00017f78       $stateUnwindMap$?Async_Read@ILob@@CAXPEAUuv_work_s@@@Z 000000018005cf78     njsIntLob.obj
 0002:00017f90       $tryMap$?Async_Read@ILob@@CAXPEAUuv_work_s@@@Z 000000018005cf90     njsIntLob.obj
 0002:00017fa4       $handlerMap$0$?Async_Read@ILob@@CAXPEAUuv_work_s@@@Z 000000018005cfa4     njsIntLob.obj
 0002:00017fc0       $ip2state$?Async_Read@ILob@@CAXPEAUuv_work_s@@@Z 000000018005cfc0     njsIntLob.obj
 0002:00018000       $unwind$?catch$0@?0??Async_Read@ILob@@CAXPEAUuv_work_s@@@Z@4HA 000000018005d000     njsIntLob.obj
 0002:00018014       $unwind$?Async_AfterRead@ILob@@CAXPEAUuv_work_s@@@Z 000000018005d014     njsIntLob.obj
 0002:00018038       $ip2state$?Async_AfterRead@ILob@@CAXPEAUuv_work_s@@@Z 000000018005d038     njsIntLob.obj
 0002:00018060       $unwind$?Write@ILob@@CAXAEBV?$FunctionCallbackInfo@VValue@v8@@@Nan@@@Z 000000018005d060     njsIntLob.obj
 0002:00018084       $stateUnwindMap$?Write@ILob@@CAXAEBV?$FunctionCallbackInfo@VValue@v8@@@Nan@@@Z 000000018005d084     njsIntLob.obj
 0002:000180d0       $ip2state$?Write@ILob@@CAXAEBV?$FunctionCallbackInfo@VValue@v8@@@Nan@@@Z 000000018005d0d0     njsIntLob.obj
 0002:00018168       $unwind$?Async_Write@ILob@@CAXPEAUuv_work_s@@@Z 000000018005d168     njsIntLob.obj
 0002:00018188       $stateUnwindMap$?Async_Write@ILob@@CAXPEAUuv_work_s@@@Z 000000018005d188     njsIntLob.obj
 0002:000181a0       $tryMap$?Async_Write@ILob@@CAXPEAUuv_work_s@@@Z 000000018005d1a0     njsIntLob.obj
 0002:000181b4       $handlerMap$0$?Async_Write@ILob@@CAXPEAUuv_work_s@@@Z 000000018005d1b4     njsIntLob.obj
 0002:000181d0       $ip2state$?Async_Write@ILob@@CAXPEAUuv_work_s@@@Z 000000018005d1d0     njsIntLob.obj
 0002:00018210       $unwind$?catch$0@?0??Async_Write@ILob@@CAXPEAUuv_work_s@@@Z@4HA 000000018005d210     njsIntLob.obj
 0002:00018224       $unwind$?Async_AfterWrite@ILob@@CAXPEAUuv_work_s@@@Z 000000018005d224     njsIntLob.obj
 0002:00018240       $ip2state$?Async_AfterWrite@ILob@@CAXPEAUuv_work_s@@@Z 000000018005d240     njsIntLob.obj
 0002:00018268       $unwind$??0ProtoILob@@QEAA@PEAUeBaton@@PEAUDescriptor@dpi@@G@Z 000000018005d268     njsIntLob.obj
 0002:00018288       $stateUnwindMap$??0ProtoILob@@QEAA@PEAUeBaton@@PEAUDescriptor@dpi@@G@Z 000000018005d288     njsIntLob.obj
 0002:000182a0       $tryMap$??0ProtoILob@@QEAA@PEAUeBaton@@PEAUDescriptor@dpi@@G@Z 000000018005d2a0     njsIntLob.obj
 0002:000182b4       $handlerMap$0$??0ProtoILob@@QEAA@PEAUeBaton@@PEAUDescriptor@dpi@@G@Z 000000018005d2b4     njsIntLob.obj
 0002:000182c8       $ip2state$??0ProtoILob@@QEAA@PEAUeBaton@@PEAUDescriptor@dpi@@G@Z 000000018005d2c8     njsIntLob.obj
 0002:00018300       $unwind$?catch$0@?0???0ProtoILob@@QEAA@PEAUeBaton@@PEAUDescriptor@dpi@@G@Z@4HA 000000018005d300     njsIntLob.obj
 0002:00018314       $unwind$??0EnvImpl@@QEAA@AEBV?$basic_string@DU?$char_traits@D@std@@V?$allocator@D@2@@std@@II@Z 000000018005d314     dpiEnvImpl.obj
 0002:00018334       $stateUnwindMap$??0EnvImpl@@QEAA@AEBV?$basic_string@DU?$char_traits@D@std@@V?$allocator@D@2@@std@@II@Z 000000018005d334     dpiEnvImpl.obj
 0002:00018354       $tryMap$??0EnvImpl@@QEAA@AEBV?$basic_string@DU?$char_traits@D@std@@V?$allocator@D@2@@std@@II@Z 000000018005d354     dpiEnvImpl.obj
 0002:00018368       $handlerMap$0$??0EnvImpl@@QEAA@AEBV?$basic_string@DU?$char_traits@D@std@@V?$allocator@D@2@@std@@II@Z 000000018005d368     dpiEnvImpl.obj
 0002:00018380       $ip2state$??0EnvImpl@@QEAA@AEBV?$basic_string@DU?$char_traits@D@std@@V?$allocator@D@2@@std@@II@Z 000000018005d380     dpiEnvImpl.obj
 0002:000183b0       $unwind$?catch$0@?0???0EnvImpl@@QEAA@AEBV?$basic_string@DU?$char_traits@D@std@@V?$allocator@D@2@@std@@II@Z@4HA 000000018005d3b0     dpiEnvImpl.obj
 0002:000183c4       $unwind$??0ExceptionImpl@@QEAA@AEBV0@@Z 000000018005d3c4     dpiEnvImpl.obj
 0002:000183d8       $stateUnwindMap$??0ExceptionImpl@@QEAA@AEBV0@@Z 000000018005d3d8     dpiEnvImpl.obj
 0002:000183e8       $ip2state$??0ExceptionImpl@@QEAA@AEBV0@@Z 000000018005d3e8     dpiEnvImpl.obj
 0002:00018408       $unwind$?createPool@EnvImpl@@UEAAPEAVSPool@dpi@@AEBV?$basic_string@DU?$char_traits@D@std@@V?$allocator@D@2@@std@@00HHHHH_N1@Z 000000018005d408     dpiEnvImpl.obj
 0002:00018424       $stateUnwindMap$?createPool@EnvImpl@@UEAAPEAVSPool@dpi@@AEBV?$basic_string@DU?$char_traits@D@std@@V?$allocator@D@2@@std@@00HHHHH_N1@Z 000000018005d424     dpiEnvImpl.obj
 0002:00018430       $ip2state$?createPool@EnvImpl@@UEAAPEAVSPool@dpi@@AEBV?$basic_string@DU?$char_traits@D@std@@V?$allocator@D@2@@std@@00HHHHH_N1@Z 000000018005d430     dpiEnvImpl.obj
 0002:00018448       $unwind$?getConnection@EnvImpl@@UEAAPEAVConn@dpi@@AEBV?$basic_string@DU?$char_traits@D@std@@V?$allocator@D@2@@std@@00H0_NW4DBPrivileges@3@@Z 000000018005d448     dpiEnvImpl.obj
 0002:00018464       $stateUnwindMap$?getConnection@EnvImpl@@UEAAPEAVConn@dpi@@AEBV?$basic_string@DU?$char_traits@D@std@@V?$allocator@D@2@@std@@00H0_NW4DBPrivileges@3@@Z 000000018005d464     dpiEnvImpl.obj
 0002:00018470       $ip2state$?getConnection@EnvImpl@@UEAAPEAVConn@dpi@@AEBV?$basic_string@DU?$char_traits@D@std@@V?$allocator@D@2@@std@@00H0_NW4DBPrivileges@3@@Z 000000018005d470     dpiEnvImpl.obj
 0002:00018488       $unwind$__acrt_is_packaged_app 000000018005d488     libucrt:winapi_thunks.obj
 0002:00018488       $unwind$?getDateTimeArray@EnvImpl@@UEBAPEAVDateTimeArray@dpi@@PEAUOCIError@@@Z 000000018005d488     dpiEnvImpl.obj
 0002:00018488       $unwind$iswctype           000000018005d488     libucrt:iswctype.obj
 0002:00018494       $unwind$??0ExceptionImpl@@QEAA@W4DpiError@dpi@@@Z 000000018005d494     dpiExceptionImpl.obj
 0002:000184b4       $stateUnwindMap$??0ExceptionImpl@@QEAA@W4DpiError@dpi@@@Z 000000018005d4b4     dpiExceptionImpl.obj
 0002:000184e0       $ip2state$??0ExceptionImpl@@QEAA@W4DpiError@dpi@@@Z 000000018005d4e0     dpiExceptionImpl.obj
 0002:00018528       $unwind$??$?6DU?$char_traits@D@std@@V?$allocator@D@1@@std@@YAAEAV?$basic_ostream@DU?$char_traits@D@std@@@0@AEAV10@AEBV?$basic_string@DU?$char_traits@D@std@@V?$allocator@D@2@@0@@Z 000000018005d528     dpiExceptionImpl.obj
 0002:00018548       $ip2state$??$?6DU?$char_traits@D@std@@V?$allocator@D@1@@std@@YAAEAV?$basic_ostream@DU?$char_traits@D@std@@@0@AEAV10@AEBV?$basic_string@DU?$char_traits@D@std@@V?$allocator@D@2@@0@@Z 000000018005d548     dpiExceptionImpl.obj
 0002:00018568       $unwind$??0ConnImpl@@QEAA@PEAVEnvImpl@@PEAUOCIEnv@@_NIAEBV?$basic_string@DU?$char_traits@D@std@@V?$allocator@D@2@@std@@333W4DBPrivileges@dpi@@@Z 000000018005d568     dpiConnImpl.obj
 0002:00018590       $stateUnwindMap$??0ConnImpl@@QEAA@PEAVEnvImpl@@PEAUOCIEnv@@_NIAEBV?$basic_string@DU?$char_traits@D@std@@V?$allocator@D@2@@std@@333W4DBPrivileges@dpi@@@Z 000000018005d590     dpiConnImpl.obj
 0002:000185b8       $tryMap$??0ConnImpl@@QEAA@PEAVEnvImpl@@PEAUOCIEnv@@_NIAEBV?$basic_string@DU?$char_traits@D@std@@V?$allocator@D@2@@std@@333W4DBPrivileges@dpi@@@Z 000000018005d5b8     dpiConnImpl.obj
 0002:000185cc       $handlerMap$0$??0ConnImpl@@QEAA@PEAVEnvImpl@@PEAUOCIEnv@@_NIAEBV?$basic_string@DU?$char_traits@D@std@@V?$allocator@D@2@@std@@333W4DBPrivileges@dpi@@@Z 000000018005d5cc     dpiConnImpl.obj
 0002:000185e0       $ip2state$??0ConnImpl@@QEAA@PEAVEnvImpl@@PEAUOCIEnv@@_NIAEBV?$basic_string@DU?$char_traits@D@std@@V?$allocator@D@2@@std@@333W4DBPrivileges@dpi@@@Z 000000018005d5e0     dpiConnImpl.obj
 0002:00018620       $unwind$?catch$0@?0???0ConnImpl@@QEAA@PEAVEnvImpl@@PEAUOCIEnv@@_NIAEBV?$basic_string@DU?$char_traits@D@std@@V?$allocator@D@2@@std@@333W4DBPrivileges@dpi@@@Z@4HA 000000018005d620     dpiConnImpl.obj
 0002:00018630       $unwind$??0ConnImpl@@QEAA@PEAVPoolImpl@@PEAUOCIEnv@@_NPEAEIAEBV?$basic_string@DU?$char_traits@D@std@@V?$allocator@D@2@@std@@444HW4DBPrivileges@dpi@@@Z 000000018005d630     dpiConnImpl.obj
 0002:00018648       $stateUnwindMap$??0ConnImpl@@QEAA@PEAVPoolImpl@@PEAUOCIEnv@@_NPEAEIAEBV?$basic_string@DU?$char_traits@D@std@@V?$allocator@D@2@@std@@444HW4DBPrivileges@dpi@@@Z 000000018005d648     dpiConnImpl.obj
 0002:00018668       $tryMap$??0ConnImpl@@QEAA@PEAVPoolImpl@@PEAUOCIEnv@@_NPEAEIAEBV?$basic_string@DU?$char_traits@D@std@@V?$allocator@D@2@@std@@444HW4DBPrivileges@dpi@@@Z 000000018005d668     dpiConnImpl.obj
 0002:0001867c       $handlerMap$0$??0ConnImpl@@QEAA@PEAVPoolImpl@@PEAUOCIEnv@@_NPEAEIAEBV?$basic_string@DU?$char_traits@D@std@@V?$allocator@D@2@@std@@444HW4DBPrivileges@dpi@@@Z 000000018005d67c     dpiConnImpl.obj
 0002:00018690       $ip2state$??0ConnImpl@@QEAA@PEAVPoolImpl@@PEAUOCIEnv@@_NPEAEIAEBV?$basic_string@DU?$char_traits@D@std@@V?$allocator@D@2@@std@@444HW4DBPrivileges@dpi@@@Z 000000018005d690     dpiConnImpl.obj
 0002:000186c0       $unwind$?catch$0@?0???0ConnImpl@@QEAA@PEAVPoolImpl@@PEAUOCIEnv@@_NPEAEIAEBV?$basic_string@DU?$char_traits@D@std@@V?$allocator@D@2@@std@@444HW4DBPrivileges@dpi@@@Z@4HA 000000018005d6c0     dpiConnImpl.obj
 0002:000186d0       $unwind$??1ConnImpl@@UEAA@XZ 000000018005d6d0     dpiConnImpl.obj
 0002:000186e8       $ip2state$??1ConnImpl@@UEAA@XZ 000000018005d6e8     dpiConnImpl.obj
 0002:000186f0       $unwind$?release@ConnImpl@@UEAAXAEBV?$basic_string@DU?$char_traits@D@std@@V?$allocator@D@2@@std@@H@Z 000000018005d6f0     dpiConnImpl.obj
 0002:00018708       $unwind$?stmtCacheSize@ConnImpl@@UEAAXI@Z 000000018005d708     dpiConnImpl.obj
 0002:00018708       $unwind$?poolTimeout@PoolImpl@@UEAAXI@Z 000000018005d708     dpiPoolImpl.obj
 0002:00018708       $unwind$?stmtCacheSize@PoolImpl@@UEAAXI@Z 000000018005d708     dpiPoolImpl.obj
 0002:00018708       $unwind$?prefetchRows@StmtImpl@@UEAAXI@Z 000000018005d708     dpiStmtImpl.obj
 0002:00018710       $unwind$?getStmt@ConnImpl@@UEAAPEAVStmt@dpi@@AEBV?$basic_string@DU?$char_traits@D@std@@V?$allocator@D@2@@std@@@Z 000000018005d710     dpiConnImpl.obj
 0002:00018724       $stateUnwindMap$?getStmt@ConnImpl@@UEAAPEAVStmt@dpi@@AEBV?$basic_string@DU?$char_traits@D@std@@V?$allocator@D@2@@std@@@Z 000000018005d724     dpiConnImpl.obj
 0002:00018730       $ip2state$?getStmt@ConnImpl@@UEAAPEAVStmt@dpi@@AEBV?$basic_string@DU?$char_traits@D@std@@V?$allocator@D@2@@std@@@Z 000000018005d730     dpiConnImpl.obj
 0002:00018748       $chain$0$?breakExecution@ConnImpl@@UEAAXXZ 000000018005d748     dpiConnImpl.obj
 0002:0001875c       $chain$1$?breakExecution@ConnImpl@@UEAAXXZ 000000018005d75c     dpiConnImpl.obj
 0002:0001875c       $chain$2$?breakExecution@ConnImpl@@UEAAXXZ 000000018005d75c     dpiConnImpl.obj
 0002:0001876c       $unwind$?getServerVersion@ConnImpl@@UEAAIXZ 000000018005d76c     dpiConnImpl.obj
 0002:00018780       $unwind$?initConnImpl@ConnImpl@@AEAAX_N0AEBV?$basic_string@DU?$char_traits@D@std@@V?$allocator@D@2@@std@@PEAEI111HW4DBPrivileges@dpi@@@Z 000000018005d780     dpiConnImpl.obj
 0002:000187a0       $chain$0$?initConnImpl@ConnImpl@@AEAAX_N0AEBV?$basic_string@DU?$char_traits@D@std@@V?$allocator@D@2@@std@@PEAEI111HW4DBPrivileges@dpi@@@Z 000000018005d7a0     dpiConnImpl.obj
 0002:000187b4       $chain$1$?initConnImpl@ConnImpl@@AEAAX_N0AEBV?$basic_string@DU?$char_traits@D@std@@V?$allocator@D@2@@std@@PEAEI111HW4DBPrivileges@dpi@@@Z 000000018005d7b4     dpiConnImpl.obj
 0002:000187c4       $unwind$?cleanup@ConnImpl@@AEAAXXZ 000000018005d7c4     dpiConnImpl.obj
 0002:000187c4       $unwind$?numCols@StmtImpl@@UEAAIXZ 000000018005d7c4     dpiStmtImpl.obj
 0002:000187c4       $unwind$?stmtType@StmtImpl@@UEBA?AW4DpiStmtType@dpi@@XZ 000000018005d7c4     dpiStmtImpl.obj
 0002:000187c4       $unwind$?isReturning@StmtImpl@@UEAA_NXZ 000000018005d7c4     dpiStmtImpl.obj
 0002:000187c4       $unwind$?getState@StmtImpl@@UEAAIXZ 000000018005d7c4     dpiStmtImpl.obj
 0002:000187cc       $chain$0$?cleanup@ConnImpl@@AEAAXXZ 000000018005d7cc     dpiConnImpl.obj
 0002:000187e0       $chain$1$?cleanup@ConnImpl@@AEAAXXZ 000000018005d7e0     dpiConnImpl.obj
 0002:000187f4       $chain$2$?cleanup@ConnImpl@@AEAAXXZ 000000018005d7f4     dpiConnImpl.obj
 0002:00018804       $chain$3$?cleanup@ConnImpl@@AEAAXXZ 000000018005d804     dpiConnImpl.obj
 0002:00018814       $unwind$??_GDateTimeArrayImpl@dpi@@UEAAPEAXI@Z 000000018005d814     dpiDateTimeArrayImpl.obj
 0002:00018828       $ip2state$??_GDateTimeArrayImpl@dpi@@UEAAPEAXI@Z 000000018005d828     dpiDateTimeArrayImpl.obj
 0002:00018840       $unwind$?init@DateTimeArrayImpl@dpi@@UEAAPEAXH@Z 000000018005d840     dpiDateTimeArrayImpl.obj
 0002:00018858       $unwind$?getDateTime@DateTimeArrayImpl@dpi@@UEAAOH@Z 000000018005d858     dpiDateTimeArrayImpl.obj
 0002:00018874       $unwind$?setDateTime@DateTimeArrayImpl@dpi@@UEAAXHO@Z 000000018005d874     dpiDateTimeArrayImpl.obj
 0002:0001888c       $chain$3$?setDateTime@DateTimeArrayImpl@dpi@@UEAAXHO@Z 000000018005d88c     dpiDateTimeArrayImpl.obj
 0002:000188ac       $chain$4$?setDateTime@DateTimeArrayImpl@dpi@@UEAAXHO@Z 000000018005d8ac     dpiDateTimeArrayImpl.obj
 0002:000188c0       $chain$5$?setDateTime@DateTimeArrayImpl@dpi@@UEAAXHO@Z 000000018005d8c0     dpiDateTimeArrayImpl.obj
 0002:000188d0       $chain$7$?setDateTime@DateTimeArrayImpl@dpi@@UEAAXHO@Z 000000018005d8d0     dpiDateTimeArrayImpl.obj
 0002:000188f0       $chain$8$?setDateTime@DateTimeArrayImpl@dpi@@UEAAXHO@Z 000000018005d8f0     dpiDateTimeArrayImpl.obj
 0002:00018900       $unwind$?initBaseDate@DateTimeArrayImpl@dpi@@SAXPEAUOCIEnv@@@Z 000000018005d900     dpiDateTimeArrayImpl.obj
 0002:00018918       $chain$0$?initBaseDate@DateTimeArrayImpl@dpi@@SAXPEAUOCIEnv@@@Z 000000018005d918     dpiDateTimeArrayImpl.obj
 0002:0001892c       $chain$1$?initBaseDate@DateTimeArrayImpl@dpi@@SAXPEAUOCIEnv@@@Z 000000018005d92c     dpiDateTimeArrayImpl.obj
 0002:0001893c       $unwind$??0PoolImpl@@QEAA@PEAVEnvImpl@@PEAUOCIEnv@@AEBV?$basic_string@DU?$char_traits@D@std@@V?$allocator@D@2@@std@@22HHHH_NH3@Z 000000018005d93c     dpiPoolImpl.obj
 0002:00018964       $stateUnwindMap$??0PoolImpl@@QEAA@PEAVEnvImpl@@PEAUOCIEnv@@AEBV?$basic_string@DU?$char_traits@D@std@@V?$allocator@D@2@@std@@22HHHH_NH3@Z 000000018005d964     dpiPoolImpl.obj
 0002:0001897c       $tryMap$??0PoolImpl@@QEAA@PEAVEnvImpl@@PEAUOCIEnv@@AEBV?$basic_string@DU?$char_traits@D@std@@V?$allocator@D@2@@std@@22HHHH_NH3@Z 000000018005d97c     dpiPoolImpl.obj
 0002:00018990       $handlerMap$0$??0PoolImpl@@QEAA@PEAVEnvImpl@@PEAUOCIEnv@@AEBV?$basic_string@DU?$char_traits@D@std@@V?$allocator@D@2@@std@@22HHHH_NH3@Z 000000018005d990     dpiPoolImpl.obj
 0002:000189a8       $ip2state$??0PoolImpl@@QEAA@PEAVEnvImpl@@PEAUOCIEnv@@AEBV?$basic_string@DU?$char_traits@D@std@@V?$allocator@D@2@@std@@22HHHH_NH3@Z 000000018005d9a8     dpiPoolImpl.obj
 0002:000189d0       $unwind$?catch$0@?0???0PoolImpl@@QEAA@PEAVEnvImpl@@PEAUOCIEnv@@AEBV?$basic_string@DU?$char_traits@D@std@@V?$allocator@D@2@@std@@22HHHH_NH3@Z@4HA 000000018005d9d0     dpiPoolImpl.obj
 0002:000189e0       $chain$0$?terminate@PoolImpl@@UEAAXXZ 000000018005d9e0     dpiPoolImpl.obj
 0002:000189f4       $chain$1$?terminate@PoolImpl@@UEAAXXZ 000000018005d9f4     dpiPoolImpl.obj
 0002:00018a04       $unwind$?getConnection@PoolImpl@@UEAAPEAVConn@dpi@@AEBV?$basic_string@DU?$char_traits@D@std@@V?$allocator@D@2@@std@@000HW4DBPrivileges@3@@Z 000000018005da04     dpiPoolImpl.obj
 0002:00018a20       $stateUnwindMap$?getConnection@PoolImpl@@UEAAPEAVConn@dpi@@AEBV?$basic_string@DU?$char_traits@D@std@@V?$allocator@D@2@@std@@000HW4DBPrivileges@3@@Z 000000018005da20     dpiPoolImpl.obj
 0002:00018a28       $ip2state$?getConnection@PoolImpl@@UEAAPEAVConn@dpi@@AEBV?$basic_string@DU?$char_traits@D@std@@V?$allocator@D@2@@std@@000HW4DBPrivileges@3@@Z 000000018005da28     dpiPoolImpl.obj
 0002:00018a40       $unwind$??0StmtImpl@@QEAA@PEAVEnvImpl@@PEAUOCIEnv@@PEAVConnImpl@@PEAUOCISvcCtx@@AEBV?$basic_string@DU?$char_traits@D@std@@V?$allocator@D@2@@std@@@Z 000000018005da40     dpiStmtImpl.obj
 0002:00018a5c       $stateUnwindMap$??0StmtImpl@@QEAA@PEAVEnvImpl@@PEAUOCIEnv@@PEAVConnImpl@@PEAUOCISvcCtx@@AEBV?$basic_string@DU?$char_traits@D@std@@V?$allocator@D@2@@std@@@Z 000000018005da5c     dpiStmtImpl.obj
 0002:00018a74       $tryMap$??0StmtImpl@@QEAA@PEAVEnvImpl@@PEAUOCIEnv@@PEAVConnImpl@@PEAUOCISvcCtx@@AEBV?$basic_string@DU?$char_traits@D@std@@V?$allocator@D@2@@std@@@Z 000000018005da74     dpiStmtImpl.obj
 0002:00018a88       $handlerMap$0$??0StmtImpl@@QEAA@PEAVEnvImpl@@PEAUOCIEnv@@PEAVConnImpl@@PEAUOCISvcCtx@@AEBV?$basic_string@DU?$char_traits@D@std@@V?$allocator@D@2@@std@@@Z 000000018005da88     dpiStmtImpl.obj
 0002:00018aa0       $ip2state$??0StmtImpl@@QEAA@PEAVEnvImpl@@PEAUOCIEnv@@PEAVConnImpl@@PEAUOCISvcCtx@@AEBV?$basic_string@DU?$char_traits@D@std@@V?$allocator@D@2@@std@@@Z 000000018005daa0     dpiStmtImpl.obj
 0002:00018ac8       $unwind$?catch$0@?0???0StmtImpl@@QEAA@PEAVEnvImpl@@PEAUOCIEnv@@PEAVConnImpl@@PEAUOCISvcCtx@@AEBV?$basic_string@DU?$char_traits@D@std@@V?$allocator@D@2@@std@@@Z@4HA 000000018005dac8     dpiStmtImpl.obj
 0002:00018ad8       $unwind$??_GStmtImpl@@UEAAPEAXI@Z 000000018005dad8     dpiStmtImpl.obj
 0002:00018af0       $ip2state$??_GStmtImpl@@UEAAPEAXI@Z 000000018005daf0     dpiStmtImpl.obj
 0002:00018b08       $chain$0$?stmtType@StmtImpl@@UEBA?AW4DpiStmtType@dpi@@XZ 000000018005db08     dpiStmtImpl.obj
 0002:00018b1c       $chain$1$?stmtType@StmtImpl@@UEBA?AW4DpiStmtType@dpi@@XZ 000000018005db1c     dpiStmtImpl.obj
 0002:00018b2c       $chain$0$?numCols@StmtImpl@@UEAAIXZ 000000018005db2c     dpiStmtImpl.obj
 0002:00018b40       $chain$1$?numCols@StmtImpl@@UEAAIXZ 000000018005db40     dpiStmtImpl.obj
 0002:00018b50       $unwind$?bind@StmtImpl@@UEAAXIGPEAX_JPEAFPEAII30P6AH01IKKPEAPEAX44PEAPEAGPEAE@Z@Z 000000018005db50     dpiStmtImpl.obj
 0002:00018b64       $unwind$?bind@StmtImpl@@UEAAXPEBEHIGPEAX_JPEAFPEAII41P6AH12IKKPEAPEAX55PEAPEAGPEAE@Z@Z 000000018005db64     dpiStmtImpl.obj
 0002:00018b7c       $unwind$?getSystemCP@@YAHH@Z 000000018005db7c     libucrt:mbctype.obj
 0002:00018b7c       $unwind$?execute@StmtImpl@@UEAAXH_N@Z 000000018005db7c     dpiStmtImpl.obj
 0002:00018b7c       $unwind$_isleadbyte_l      000000018005db7c     libucrt:_wctype.obj
 0002:00018b7c       $unwind$isdigit            000000018005db7c     libucrt:_ctype.obj
 0002:00018b7c       $unwind$isupper            000000018005db7c     libucrt:_ctype.obj
 0002:00018b7c       $unwind$islower            000000018005db7c     libucrt:_ctype.obj
 0002:00018b7c       $unwind$?_TlgWrite@__vcrt_trace_logging_provider@@YAJPEBU_TlgProvider_t@1@PEFBXPEBU_GUID@@2IPEAU_EVENT_DATA_DESCRIPTOR@@@Z 000000018005db7c     libvcruntime:telemetry.obj
 0002:00018b84       $unwind$?define@StmtImpl@@UEAAXIGPEAX_JPEAFPEAI@Z 000000018005db84     dpiStmtImpl.obj
 0002:00018b94       $unwind$?getMetaData@StmtImpl@@UEAAPEBUMetaData@dpi@@_N@Z 000000018005db94     dpiStmtImpl.obj
 0002:00018bb0       $chain$0$?getMetaData@StmtImpl@@UEAAPEBUMetaData@dpi@@_N@Z 000000018005dbb0     dpiStmtImpl.obj
 0002:00018bc4       $chain$1$?getMetaData@StmtImpl@@UEAAPEBUMetaData@dpi@@_N@Z 000000018005dbc4     dpiStmtImpl.obj
 0002:00018bd4       $unwind$?cleanup@StmtImpl@@AEAAXXZ 000000018005dbd4     dpiStmtImpl.obj
 0002:00018be0       $chain$0$?cleanup@StmtImpl@@AEAAXXZ 000000018005dbe0     dpiStmtImpl.obj
 0002:00018bf4       $chain$1$?cleanup@StmtImpl@@AEAAXXZ 000000018005dbf4     dpiStmtImpl.obj
 0002:00018c04       $unwind$?outbindCallback@StmtImpl@@SAHPEAXPEAUOCIBind@@IIPEAPEAXPEAPEAIPEAE2PEAPEAG@Z 000000018005dc04     dpiStmtImpl.obj
 0002:00018c18       $chain$0$?isReturning@StmtImpl@@UEAA_NXZ 000000018005dc18     dpiStmtImpl.obj
 0002:00018c2c       $chain$1$?isReturning@StmtImpl@@UEAA_NXZ 000000018005dc2c     dpiStmtImpl.obj
 0002:00018c3c       $chain$0$?getState@StmtImpl@@UEAAIXZ 000000018005dc3c     dpiStmtImpl.obj
 0002:00018c50       $chain$1$?getState@StmtImpl@@UEAAIXZ 000000018005dc50     dpiStmtImpl.obj
 0002:00018c60       $unwind$?ociCallCommon@@YAXHPEAXI@Z 000000018005dc60     dpiUtils.obj
 0002:00018c80       $stateUnwindMap$?ociCallCommon@@YAXHPEAXI@Z 000000018005dc80     dpiUtils.obj
 0002:00018c90       $ip2state$?ociCallCommon@@YAXHPEAXI@Z 000000018005dc90     dpiUtils.obj
 0002:00018cb0       xdata                      000000018005dcb0     node:node.exe
 0002:00018cb8       $unwind$??_G_Fac_node@std@@QEAAPEAXI@Z 000000018005dcb8     libcpmt:locale0.obj
 0002:00018cd8       $ip2state$??_G_Fac_node@std@@QEAAPEAXI@Z 000000018005dcd8     libcpmt:locale0.obj
 0002:00018cf0       $unwind$?_Locimp_dtor@_Locimp@locale@std@@CAXPEAV123@@Z 000000018005dcf0     libcpmt:locale0.obj
 0002:00018d0c       $stateUnwindMap$?_Locimp_dtor@_Locimp@locale@std@@CAXPEAV123@@Z 000000018005dd0c     libcpmt:locale0.obj
 0002:00018d0c       $stateUnwindMap$?_Init@locale@std@@CAPEAV_Locimp@12@_N@Z 000000018005dd0c     libcpmt:locale0.obj
 0002:00018d18       $ip2state$?_Locimp_dtor@_Locimp@locale@std@@CAXPEAV123@@Z 000000018005dd18     libcpmt:locale0.obj
 0002:00018d30       $unwind$??_G_Locimp@locale@std@@MEAAPEAXI@Z 000000018005dd30     libcpmt:locale0.obj
 0002:00018d48       $ip2state$??_G_Locimp@locale@std@@MEAAPEAXI@Z 000000018005dd48     libcpmt:locale0.obj
 0002:00018d60       $unwind$?_Init@locale@std@@CAPEAV_Locimp@12@_N@Z 000000018005dd60     libcpmt:locale0.obj
 0002:00018d78       $ip2state$?_Init@locale@std@@CAPEAV_Locimp@12@_N@Z 000000018005dd78     libcpmt:locale0.obj
 0002:00018d90       $unwind$??__Fclassic_locale@std@@YAXXZ 000000018005dd90     libcpmt:locale0.obj
 0002:00018da8       $ip2state$??__Fclassic_locale@std@@YAXXZ 000000018005dda8     libcpmt:locale0.obj
 0002:00018dc0       $unwind$?__scrt_throw_std_bad_array_new_length@@YAXXZ 000000018005ddc0     LIBCMT:throw_bad_alloc.obj
 0002:00018dc0       $unwind$?_Xlength_error@std@@YAXPEBD@Z 000000018005ddc0     libcpmt:xthrow.obj
 0002:00018dc0       $unwind$__dcrt_lowio_initialize_console_output 000000018005ddc0     libucrt:initcon.obj
 0002:00018dc0       $unwind$?_Xbad_alloc@std@@YAXXZ 000000018005ddc0     libcpmt:xthrow.obj
 0002:00018dc0       $unwind$_raise_exc         000000018005ddc0     libucrt:fpexcept.obj
 0002:00018dc0       $unwind$?__scrt_throw_std_bad_alloc@@YAXXZ 000000018005ddc0     LIBCMT:throw_bad_alloc.obj
 0002:00018dc0       $unwind$?_Xout_of_range@std@@YAXPEBD@Z 000000018005ddc0     libcpmt:xthrow.obj
 0002:00018dc8       $unwind$_Tolower           000000018005ddc8     libcpmt:_tolower.obj
 0002:00018dd8       $unwind$_Toupper           000000018005ddd8     libcpmt:_toupper.obj
 0002:00018dec       $unwind$??__Finit_atexit@@YAXXZ 000000018005ddec     libcpmt:iosptrs.obj
 0002:00018e00       $ip2state$??__Finit_atexit@@YAXXZ 000000018005de00     libcpmt:iosptrs.obj
 0002:00018e18       $unwind$__crtLCMapStringA  000000018005de18     libcpmt:StlLCMapStringA.obj
 0002:00018e40       $xdatasym                  000000018005de40     LIBCMT:_amdsecgs_.obj
 0002:00018e44       $unwind$__scrt_is_nonwritable_in_current_image 000000018005de44     LIBCMT:utility.obj
 0002:00018e64       $unwind$__scrt_is_nonwritable_in_current_image$filt$0 000000018005de64     LIBCMT:utility.obj
 0002:00018e6c       $unwind$__scrt_initialize_onexit_tables 000000018005de6c     LIBCMT:utility.obj
 0002:00018e78       $unwind$??_M@YAXPEAX_K1P6AX0@Z@Z 000000018005de78     LIBCMT:ehvecdtr.obj
 0002:00018ea0       $unwind$?__ArrayUnwind@@YAXPEAX_K1P6AX0@Z@Z 000000018005dea0     LIBCMT:ehvecdtr.obj
 0002:00018ecc       $unwind$??_L@YAXPEAX_K1P6AX0@Z2@Z 000000018005decc     LIBCMT:ehvecctr.obj
 0002:00018ef8       $unwind$__report_securityfailure 000000018005def8     LIBCMT:gs_report.obj
 0002:00018f00       $unwind$__report_gsfailure 000000018005df00     LIBCMT:gs_report.obj
 0002:00018f00       $unwind$_putwch_nolock     000000018005df00     libucrt:putwch.obj
 0002:00018f08       $unwind$capture_current_context 000000018005df08     LIBCMT:gs_report.obj
 0002:00018f14       $unwind$capture_previous_context 000000018005df14     LIBCMT:gs_report.obj
 0002:00018f20       $unwind$?dllmain_crt_process_attach@@YAHQEAUHINSTANCE__@@QEAX@Z 000000018005df20     LIBCMT:dll_dllmain.obj
 0002:00018f4c       $unwind$?dllmain_crt_process_detach@@YAH_N@Z 000000018005df4c     LIBCMT:dll_dllmain.obj
 0002:00018f74       $unwind$?dllmain_dispatch@@YAHQEAUHINSTANCE__@@KQEAX@Z 000000018005df74     LIBCMT:dll_dllmain.obj
 0002:00018f9c       $unwind$setlocale$fin$0    000000018005df9c     libucrt:setlocale.obj
 0002:00018f9c       $unwind$?filt$0@?0??dllmain_dispatch@@YAHQEAUHINSTANCE__@@KQEAX@Z@4HA 000000018005df9c     LIBCMT:dll_dllmain.obj
 0002:00018fa4       $unwind$__GSHandlerCheckCommon 000000018005dfa4     LIBCMT:_gshandler_.obj
 0002:00018fb0       $xdatasym                  000000018005dfb0     LIBCMT:_chkstk_.obj
 0002:00018fb8       $unwind$__scrt_fastfail    000000018005dfb8     LIBCMT:utility_desktop.obj
 0002:00018fc8       $unwind$__isa_available_init 000000018005dfc8     LIBCMT:_cpu_disp_.obj
 0002:00018fd4       $unwind$__security_init_cookie 000000018005dfd4     LIBCMT:gs_support.obj
 0002:00018fe0       $xdatasym                  000000018005dfe0     LIBCMT:_guard_dispatch_.obj
 0002:00018fe8       $xdatasym                  000000018005dfe8     libvcruntime:memcpy.obj
 0002:00018fec       $unwind$__CxxCallCatchBlock 000000018005dfec     libvcruntime:frame.obj
 0002:00019028       $unwind$__FrameUnwindToState 000000018005e028     libvcruntime:frame.obj
 0002:00019064       $unwind$?FindHandler@@YAXPEAUEHExceptionRecord@@PEA_KPEAU_CONTEXT@@PEAU_xDISPATCHER_CONTEXT@@PEBU_s_FuncInfo@@EH1@Z 000000018005e064     libvcruntime:frame.obj
 0002:00019084       $unwind$?CatchIt@@YAXPEAUEHExceptionRecord@@PEA_KPEAU_CONTEXT@@PEAU_xDISPATCHER_CONTEXT@@PEBU_s_FuncInfo@@PEBU_s_HandlerType@@PEBU_s_CatchableType@@PEBU_s_TryBlockMapEntry@@H1EE@Z 000000018005e084     libvcruntime:frame.obj
 0002:0001909c       $unwind$__BuildCatchObject 000000018005e09c     libvcruntime:frame.obj
 0002:000190c8       $unwind$?FindHandlerForForeignException@@YAXPEAUEHExceptionRecord@@PEA_KPEAU_CONTEXT@@PEAU_xDISPATCHER_CONTEXT@@PEBU_s_FuncInfo@@HH1@Z 000000018005e0c8     libvcruntime:frame.obj
 0002:000190e0       $unwind$__DestructExceptionObject 000000018005e0e0     libvcruntime:frame.obj
 0002:00019104       $unwind$?try_get_function@@YAPEAXW4function_id@?A0x63058377@@QEBDQEBW4module_id@2@2@Z 000000018005e104     libucrt:winapi_thunks.obj
 0002:00019104       $unwind$?try_get_function@@YAPEAXW4function_id@?A0x61ce2399@@QEBDQEBW4module_id@2@2@Z 000000018005e104     libvcruntime:winapi_downlevel.obj
 0002:00019104       $unwind$?write_string@?$string_output_adapter@_W@__crt_stdio_output@@QEBAXQEB_WHQEAH1@Z 000000018005e104     libucrt:output.obj
 0002:00019104       $unwind$?IsInExceptionSpec@@YAEPEAUEHExceptionRecord@@PEBU_s_ESTypeList@@@Z 000000018005e104     libvcruntime:frame.obj
 0002:00019120       $unwind$__BuildCatchObjectHelper 000000018005e120     libvcruntime:frame.obj
 0002:00019160       $unwind$?_GetEstablisherFrame@@YAPEA_KPEA_KPEAU_xDISPATCHER_CONTEXT@@PEBU_s_FuncInfo@@0@Z 000000018005e160     libvcruntime:trnsctrl.obj
 0002:00019178       $unwind$?__FrameUnwindToEmptyState@@YAXPEA_KPEAU_xDISPATCHER_CONTEXT@@PEBU_s_FuncInfo@@@Z 000000018005e178     libvcruntime:trnsctrl.obj
 0002:0001918c       $unwind$_CallSETranslator  000000018005e18c     libvcruntime:trnsctrl.obj
 0002:000191b0       $unwind$_CallSETranslator$filt$0 000000018005e1b0     libvcruntime:trnsctrl.obj
 0002:000191b8       $unwind$_UnwindNestedFrames 000000018005e1b8     libvcruntime:trnsctrl.obj
 0002:000191cc       $unwind$__CxxFrameHandler3 000000018005e1cc     libvcruntime:trnsctrl.obj
 0002:000191dc       $unwind$?__SehTransFilter@@YAHPEAU_EXCEPTION_POINTERS@@PEAUEHExceptionRecord@@PEA_KPEAU_CONTEXT@@PEAU_xDISPATCHER_CONTEXT@@PEBU_s_FuncInfo@@PEAH@Z 000000018005e1dc     libvcruntime:trnsctrl.obj
 0002:000191dc       $unwind$_wcsicmp_l         000000018005e1dc     libucrt:wcsicmp.obj
 0002:000191f0       $unwind$_CxxThrowException 000000018005e1f0     libvcruntime:throw.obj
 0002:00019208       $xdatasym                  000000018005e208     libvcruntime:memset.obj
 0002:00019210       $xdatasym                  000000018005e210     libvcruntime:memcmp.obj
 0002:00019214       $unwind$__vcrt_initialize_winapi_thunks 000000018005e214     libvcruntime:winapi_downlevel.obj
 0002:00019214       $unwind$__acrt_initialize_winapi_thunks 000000018005e214     libucrt:winapi_thunks.obj
 0002:0001921c       $unwind$__acrt_stdio_end_temporary_buffering_nolock 000000018005e21c     libucrt:_sftbuf.obj
 0002:0001921c       $unwind$__vcrt_uninitialize_winapi_thunks 000000018005e21c     libvcruntime:winapi_downlevel.obj
 0002:00019224       $unwind$__telemetry_main_invoke_trigger 000000018005e224     libvcruntime:telemetry.obj
 0002:00019224       $unwind$__telemetry_main_return_trigger 000000018005e224     libvcruntime:telemetry.obj
 0002:0001923c       $unwind$?_TlgEnableCallback@__vcrt_trace_logging_provider@@YAXPEBU_GUID@@KE_K1PEAU_EVENT_FILTER_DESCRIPTOR@@PEAX@Z 000000018005e23c     libvcruntime:telemetry.obj
 0002:00019258       $xdatasym                  000000018005e258     libvcruntime:handlers.obj
 0002:00019260       $xdatasym                  000000018005e260     libvcruntime:_jmpuwind_.obj
 0002:00019274       $unwind$__acrt_call_reportfault 000000018005e274     libucrt:invalid_parameter.obj
 0002:00019294       $unwind$__vcrt_EventWriteTransfer 000000018005e294     libvcruntime:winapi_downlevel.obj
 0002:00019294       $unwind$_invalid_parameter 000000018005e294     libucrt:invalid_parameter.obj
 0002:000192ac       $unwind$strcspn            000000018005e2ac     libucrt:strcspn.obj
 0002:000192bc       $unwind$__stdio_common_vfwprintf 000000018005e2bc     libucrt:output.obj
 0002:000192c4       $unwind$__stdio_common_vsprintf 000000018005e2c4     libucrt:output.obj
 0002:000192c4       $unwind$__stdio_common_vswprintf 000000018005e2c4     libucrt:output.obj
 0002:000192e8       $unwind$?write_string@?$stream_output_adapter@_W@__crt_stdio_output@@QEBAXQEB_WHQEAH1@Z 000000018005e2e8     libucrt:output.obj
 0002:00019300       $unwind$?process@?$output_processor@_WV?$stream_output_adapter@_W@__crt_stdio_output@@V?$standard_base@_WV?$stream_output_adapter@_W@__crt_stdio_output@@@2@@__crt_stdio_output@@QEAAHXZ 000000018005e300     libucrt:output.obj
 0002:00019318       $unwind$?parse_int_from_format_string@?$output_processor@_WV?$string_output_adapter@_W@__crt_stdio_output@@V?$standard_base@_WV?$string_output_adapter@_W@__crt_stdio_output@@@2@@__crt_stdio_output@@AEAA_NQEAH@Z 000000018005e318     libucrt:output.obj
 0002:00019318       $unwind$?parse_int_from_format_string@?$output_processor@_WV?$stream_output_adapter@_W@__crt_stdio_output@@V?$standard_base@_WV?$stream_output_adapter@_W@__crt_stdio_output@@@2@@__crt_stdio_output@@AEAA_NQEAH@Z 000000018005e318     libucrt:output.obj
 0002:0001932c       $unwind$?write_stored_string_tchar@?$output_processor@_WV?$stream_output_adapter@_W@__crt_stdio_output@@V?$standard_base@_WV?$stream_output_adapter@_W@__crt_stdio_output@@@2@@__crt_stdio_output@@AEAA_N_W@Z 000000018005e32c     libucrt:output.obj
 0002:00019340       $unwind$??R<lambda_dd75445284c072d0bd3768540cc698fa>@@QEBAHXZ 000000018005e340     libucrt:output.obj
 0002:0001935c       $unwind$?process@?$output_processor@DV?$string_output_adapter@D@__crt_stdio_output@@V?$standard_base@DV?$string_output_adapter@D@__crt_stdio_output@@@2@@__crt_stdio_output@@QEAAHXZ 000000018005e35c     libucrt:output.obj
 0002:0001936c       $unwind$?parse_int_from_format_string@?$output_processor@DV?$string_output_adapter@D@__crt_stdio_output@@V?$format_validation_base@DV?$string_output_adapter@D@__crt_stdio_output@@@2@@__crt_stdio_output@@AEAA_NQEAH@Z 000000018005e36c     libucrt:output.obj
 0002:0001936c       $unwind$?parse_int_from_format_string@?$output_processor@DV?$string_output_adapter@D@__crt_stdio_output@@V?$standard_base@DV?$string_output_adapter@D@__crt_stdio_output@@@2@@__crt_stdio_output@@AEAA_NQEAH@Z 000000018005e36c     libucrt:output.obj
 0002:00019380       $unwind$?state_case_type@?$output_processor@_WV?$string_output_adapter@_W@__crt_stdio_output@@V?$standard_base@_WV?$string_output_adapter@_W@__crt_stdio_output@@@2@@__crt_stdio_output@@AEAA_NXZ 000000018005e380     libucrt:output.obj
 0002:00019380       $unwind$?state_case_type@?$output_processor@_WV?$stream_output_adapter@_W@__crt_stdio_output@@V?$standard_base@_WV?$stream_output_adapter@_W@__crt_stdio_output@@@2@@__crt_stdio_output@@AEAA_NXZ 000000018005e380     libucrt:output.obj
 0002:000193a4       $unwind$?type_case_a@?$output_processor@_WV?$stream_output_adapter@_W@__crt_stdio_output@@V?$standard_base@_WV?$stream_output_adapter@_W@__crt_stdio_output@@@2@@__crt_stdio_output@@AEAA_NXZ 000000018005e3a4     libucrt:output.obj
 0002:000193a4       $unwind$?type_case_a@?$output_processor@_WV?$string_output_adapter@_W@__crt_stdio_output@@V?$standard_base@_WV?$string_output_adapter@_W@__crt_stdio_output@@@2@@__crt_stdio_output@@AEAA_NXZ 000000018005e3a4     libucrt:output.obj
 0002:000193b4       $unwind$?write_stored_string_tchar@?$output_processor@_WV?$string_output_adapter@_W@__crt_stdio_output@@V?$standard_base@_WV?$string_output_adapter@_W@__crt_stdio_output@@@2@@__crt_stdio_output@@AEAA_N_W@Z 000000018005e3b4     libucrt:output.obj
 0002:000193c8       $unwind$??$common_vsprintf@Vformat_validation_base@__crt_stdio_output@@D@@YAH_KQEAD0QEBDQEAU__crt_locale_pointers@@1@Z 000000018005e3c8     libucrt:output.obj
 0002:000193e8       $unwind$??$write_multiple_characters@V?$stream_output_adapter@_W@__crt_stdio_output@@D@__crt_stdio_output@@YAXAEBV?$stream_output_adapter@_W@0@DHQEAH@Z 000000018005e3e8     libucrt:output.obj
 0002:00019400       $unwind$??$write_multiple_characters@V?$string_output_adapter@_W@__crt_stdio_output@@D@__crt_stdio_output@@YAXAEBV?$string_output_adapter@_W@0@DHQEAH@Z 000000018005e400     libucrt:output.obj
 0002:0001940c       $unwind$??$type_case_integer_parse_into_buffer@_K@?$output_processor@DV?$string_output_adapter@D@__crt_stdio_output@@V?$standard_base@DV?$string_output_adapter@D@__crt_stdio_output@@@2@@__crt_stdio_output@@AEAAX_KI_N@Z 000000018005e40c     libucrt:output.obj
 0002:0001940c       $unwind$??$type_case_integer_parse_into_buffer@I@?$output_processor@_WV?$string_output_adapter@_W@__crt_stdio_output@@V?$standard_base@_WV?$string_output_adapter@_W@__crt_stdio_output@@@2@@__crt_stdio_output@@AEAAXII_N@Z 000000018005e40c     libucrt:output.obj
 0002:0001940c       $unwind$??$type_case_integer_parse_into_buffer@I@?$output_processor@DV?$string_output_adapter@D@__crt_stdio_output@@V?$standard_base@DV?$string_output_adapter@D@__crt_stdio_output@@@2@@__crt_stdio_output@@AEAAXII_N@Z 000000018005e40c     libucrt:output.obj
 0002:0001940c       $unwind$??$type_case_integer_parse_into_buffer@_K@?$output_processor@_WV?$stream_output_adapter@_W@__crt_stdio_output@@V?$standard_base@_WV?$stream_output_adapter@_W@__crt_stdio_output@@@2@@__crt_stdio_output@@AEAAX_KI_N@Z 000000018005e40c     libucrt:output.obj
 0002:0001940c       $unwind$??$type_case_integer_parse_into_buffer@_K@?$output_processor@DV?$string_output_adapter@D@__crt_stdio_output@@V?$format_validation_base@DV?$string_output_adapter@D@__crt_stdio_output@@@2@@__crt_stdio_output@@AEAAX_KI_N@Z 000000018005e40c     libucrt:output.obj
 0002:0001940c       $unwind$??$write_multiple_characters@V?$string_output_adapter@D@__crt_stdio_output@@D@__crt_stdio_output@@YAXAEBV?$string_output_adapter@D@0@DHQEAH@Z 000000018005e40c     libucrt:output.obj
 0002:0001940c       $unwind$??$type_case_integer_parse_into_buffer@I@?$output_processor@_WV?$stream_output_adapter@_W@__crt_stdio_output@@V?$standard_base@_WV?$stream_output_adapter@_W@__crt_stdio_output@@@2@@__crt_stdio_output@@AEAAXII_N@Z 000000018005e40c     libucrt:output.obj
 0002:0001940c       $unwind$??$type_case_integer_parse_into_buffer@_K@?$output_processor@_WV?$string_output_adapter@_W@__crt_stdio_output@@V?$standard_base@_WV?$string_output_adapter@_W@__crt_stdio_output@@@2@@__crt_stdio_output@@AEAAX_KI_N@Z 000000018005e40c     libucrt:output.obj
 0002:0001940c       $unwind$??$type_case_integer_parse_into_buffer@I@?$output_processor@DV?$string_output_adapter@D@__crt_stdio_output@@V?$format_validation_base@DV?$string_output_adapter@D@__crt_stdio_output@@@2@@__crt_stdio_output@@AEAAXII_N@Z 000000018005e40c     libucrt:output.obj
 0002:00019414       $unwind$??$?RV<lambda_7b91131dde12e1c3dfc74ff76b3f2eac>@@AEAV<lambda_dd75445284c072d0bd3768540cc698fa>@@V<lambda_16bc4ecb55b4718497c16bceaea2ceaf>@@@?$__crt_seh_guarded_call@H@@QEAAH$$QEAV<lambda_7b91131dde12e1c3dfc74ff76b3f2eac>@@AEAV<lambda_dd75445284c072d0bd3768540cc698fa>@@$$QEAV<lambda_16bc4ecb55b4718497c16bceaea2ceaf>@@@Z 000000018005e414     libucrt:output.obj
 0002:00019438       $unwind$?state_case_type@?$output_processor@DV?$string_output_adapter@D@__crt_stdio_output@@V?$format_validation_base@DV?$string_output_adapter@D@__crt_stdio_output@@@2@@__crt_stdio_output@@AEAA_NXZ 000000018005e438     libucrt:output.obj
 0002:00019438       $unwind$?state_case_type@?$output_processor@DV?$string_output_adapter@D@__crt_stdio_output@@V?$standard_base@DV?$string_output_adapter@D@__crt_stdio_output@@@2@@__crt_stdio_output@@AEAA_NXZ 000000018005e438     libucrt:output.obj
 0002:00019450       $unwind$?type_case_a@?$output_processor@DV?$string_output_adapter@D@__crt_stdio_output@@V?$format_validation_base@DV?$string_output_adapter@D@__crt_stdio_output@@@2@@__crt_stdio_output@@AEAA_NXZ 000000018005e450     libucrt:output.obj
 0002:00019450       $unwind$?type_case_a@?$output_processor@DV?$string_output_adapter@D@__crt_stdio_output@@V?$standard_base@DV?$string_output_adapter@D@__crt_stdio_output@@@2@@__crt_stdio_output@@AEAA_NXZ 000000018005e450     libucrt:output.obj
 0002:0001945c       $unwind$?write_stored_string_tchar@?$output_processor@DV?$string_output_adapter@D@__crt_stdio_output@@V?$standard_base@DV?$string_output_adapter@D@__crt_stdio_output@@@2@@__crt_stdio_output@@AEAA_ND@Z 000000018005e45c     libucrt:output.obj
 0002:0001945c       $unwind$?write_stored_string_tchar@?$output_processor@DV?$string_output_adapter@D@__crt_stdio_output@@V?$format_validation_base@DV?$string_output_adapter@D@__crt_stdio_output@@@2@@__crt_stdio_output@@AEAA_ND@Z 000000018005e45c     libucrt:output.obj
 0002:00019474       $unwind$frexp              000000018005e474     libucrt:frexp.obj
 0002:00019488       $unwind$fwprintf           000000018005e488     libucrt:assert.obj
 0002:00019494       $unwind$??$common_assert_to_stderr@_W@@YAXQEB_W0I@Z 000000018005e494     libucrt:assert.obj
 0002:000194b0       $unwind$??$common_assert_to_message_box@_W@@YAXQEB_W0IQEAX@Z 000000018005e4b0     libucrt:assert.obj
 0002:000194cc       $unwind$??$common_assert_to_message_box_build_string@_W@@YAXQEA_W_KQEB_W2IQEAX@Z 000000018005e4cc     libucrt:assert.obj
 0002:000194ec       $unwind$setlocale          000000018005e4ec     libucrt:setlocale.obj
 0002:0001951c       $unwind$call_wsetlocale    000000018005e51c     libucrt:setlocale.obj
 0002:00019530       $unwind$__acrt_locale_initialize_ctype 000000018005e530     libucrt:initctype.obj
 0002:00019558       $unwind$?x_ismbbtype_l@@YAHPEAU__crt_locale_pointers@@IHH@Z 000000018005e558     libucrt:ismbbyte.obj
 0002:00019558       $unwind$_stricmp_l         000000018005e558     libucrt:stricmp.obj
 0002:00019568       $unwind$_tolower_l         000000018005e568     libucrt:tolower_toupper.obj
 0002:00019578       $unwind$strnlen            000000018005e578     libucrt:strnlen.obj
 0002:00019578       $unwind$wcsnlen            000000018005e578     libucrt:strnlen.obj
 0002:00019580       $unwind$_query_new_handler 000000018005e580     libucrt:new_handler.obj
 0002:000195a0       $unwind$?common_exit@@YAXHW4_crt_exit_cleanup_mode@@W4_crt_exit_return_mode@@@Z 000000018005e5a0     libucrt:exit.obj
 0002:000195e0       $unwind$__lc_wcstolc       000000018005e5e0     libucrt:wsetlocale.obj
 0002:000195e0       $unwind$??$create_environment@D@@YAQEAPEADQEAD@Z 000000018005e5e0     libucrt:environment_initialization.obj
 0002:000195f8       $unwind$_register_onexit_function 000000018005e5f8     libucrt:onexit.obj
 0002:00019600       $unwind$_execute_onexit_table 000000018005e600     libucrt:onexit.obj
 0002:00019608       $unwind$TranslateName      000000018005e608     libucrt:get_qualified_locale.obj
 0002:00019608       $unwind$?write_string@?$string_output_adapter@D@__crt_stdio_output@@QEBAXQEBDHQEAH1@Z 000000018005e608     libucrt:output.obj
 0002:00019608       $unwind$??R<lambda_4e60a939b0d047cfe11ddc22648dfba9>@@QEBAHXZ 000000018005e608     libucrt:onexit.obj
 0002:00019608       $unwind$?_GetRangeOfTrysToCheck@@YAPEBU_s_TryBlockMapEntry@@PEA_KPEBU_s_FuncInfo@@HHPEAI2PEAU_xDISPATCHER_CONTEXT@@@Z 000000018005e608     libvcruntime:trnsctrl.obj
 0002:00019624       $unwind$??$?RV<lambda_b8c45f8f788dd370798f47cfe8ac3a86>@@AEAV<lambda_4e60a939b0d047cfe11ddc22648dfba9>@@V<lambda_332c3edc96d0294ec56c57d38c1cdfd5>@@@?$__crt_seh_guarded_call@H@@QEAAH$$QEAV<lambda_b8c45f8f788dd370798f47cfe8ac3a86>@@AEAV<lambda_4e60a939b0d047cfe11ddc22648dfba9>@@$$QEAV<lambda_332c3edc96d0294ec56c57d38c1cdfd5>@@@Z 000000018005e624     libucrt:onexit.obj
 0002:00019648       $unwind$??$?RV<lambda_e24bbb7b643b32fcea6fa61b31d4c984>@@AEAV<lambda_275893d493268fdec8709772e3fcec0e>@@V<lambda_9d71df4d7cf3f480f8d633942495c3b0>@@@?$__crt_seh_guarded_call@H@@QEAAH$$QEAV<lambda_e24bbb7b643b32fcea6fa61b31d4c984>@@AEAV<lambda_275893d493268fdec8709772e3fcec0e>@@$$QEAV<lambda_9d71df4d7cf3f480f8d633942495c3b0>@@@Z 000000018005e648     libucrt:onexit.obj
 0002:00019678       $unwind$terminate          000000018005e678     libucrt:terminate.obj
 0002:00019698       $unwind$??$parse_integer@KV?$c_string_character_source@D@__crt_strtox@@@__crt_strtox@@YAKQEAU__crt_locale_pointers@@V?$c_string_character_source@D@0@H_N@Z 000000018005e698     libucrt:atox.obj
 0002:000196b4       $unwind$??$parse_integer@KV?$c_string_character_source@_W@__crt_strtox@@@__crt_strtox@@YAKQEAU__crt_locale_pointers@@V?$c_string_character_source@_W@0@H_N@Z 000000018005e6b4     libucrt:atox.obj
 0002:000196d0       $unwind$__acrt_get_sigabrt_handler 000000018005e6d0     libucrt:signal.obj
 0002:000196d8       $unwind$raise              000000018005e6d8     libucrt:signal.obj
 0002:00019704       $unwind$??$?RV<lambda_c36588078e9f5dfd39652860aa6b3aaf>@@AEAV<lambda_ec61778202f4f5fc7e7711acc23c3bca>@@V<lambda_dc9d2797ccde5d239b4a0efae8ebd7db>@@@?$__crt_seh_guarded_call@P6AXH@Z@@QEAAP6AXH@Z$$QEAV<lambda_c36588078e9f5dfd39652860aa6b3aaf>@@AEAV<lambda_ec61778202f4f5fc7e7711acc23c3bca>@@$$QEAV<lambda_dc9d2797ccde5d239b4a0efae8ebd7db>@@@Z 000000018005e704     libucrt:signal.obj
 0002:00019728       $unwind$?construct_ptd_array@@YAXQEAU__acrt_ptd@@@Z 000000018005e728     libucrt:per_thread_data.obj
 0002:00019730       $unwind$?destroy_ptd_array@@YAXQEAU__acrt_ptd@@@Z 000000018005e730     libucrt:per_thread_data.obj
 0002:00019738       $unwind$??$?RV<lambda_72d1df2b273a38828b1ce30cbf4cdab5>@@AEAV<lambda_876a65b173b8412d3a47c70a915b0cf4>@@V<lambda_41932305e351933ebe8f8be3ed8bb5dc>@@@?$__crt_seh_guarded_call@X@@QEAAX$$QEAV<lambda_72d1df2b273a38828b1ce30cbf4cdab5>@@AEAV<lambda_876a65b173b8412d3a47c70a915b0cf4>@@$$QEAV<lambda_41932305e351933ebe8f8be3ed8bb5dc>@@@Z 000000018005e738     libucrt:per_thread_data.obj
 0002:0001975c       $unwind$??$?RV<lambda_5e887d1dcbef67a5eb4283622ba103bf>@@AEAV<lambda_4466841279450cc726390878d4a41900>@@V<lambda_341c25c0346d94847f1f3c463c57e077>@@@?$__crt_seh_guarded_call@X@@QEAAX$$QEAV<lambda_5e887d1dcbef67a5eb4283622ba103bf>@@AEAV<lambda_4466841279450cc726390878d4a41900>@@$$QEAV<lambda_341c25c0346d94847f1f3c463c57e077>@@@Z 000000018005e75c     libucrt:per_thread_data.obj
 0002:00019780       $unwind$??$?RV<lambda_46352004c1216016012b18bd6f87e700>@@AEAV<lambda_3bd07e1a1191394380780325891bf33f>@@V<lambda_334532d3f185bcaa59b5be82d7d22bff>@@@?$__crt_seh_guarded_call@X@@QEAAX$$QEAV<lambda_46352004c1216016012b18bd6f87e700>@@AEAV<lambda_3bd07e1a1191394380780325891bf33f>@@$$QEAV<lambda_334532d3f185bcaa59b5be82d7d22bff>@@@Z 000000018005e780     libucrt:per_thread_data.obj
 0002:000197a4       $unwind$??$?RV<lambda_fb3a7dec4e47f37f22dae91bb15c9095>@@AEAV<lambda_698284760c8add0bfb0756c19673e34b>@@V<lambda_dfb8eca1e75fef3034a8fb18dd509707>@@@?$__crt_seh_guarded_call@X@@QEAAX$$QEAV<lambda_fb3a7dec4e47f37f22dae91bb15c9095>@@AEAV<lambda_698284760c8add0bfb0756c19673e34b>@@$$QEAV<lambda_dfb8eca1e75fef3034a8fb18dd509707>@@@Z 000000018005e7a4     libucrt:per_thread_data.obj
 0002:000197c8       $unwind$_mbtowc_l          000000018005e7c8     libucrt:mbtowc.obj
 0002:000197c8       $unwind$__crtLCMapStringEx 000000018005e7c8     libcpmt:winapinls.obj
 0002:000197c8       $unwind$__acrt_LCMapStringEx 000000018005e7c8     libucrt:winapi_thunks.obj
 0002:000197c8       $unwind$__acrt_show_wide_message_box 000000018005e7c8     libucrt:crtmbox.obj
 0002:000197e0       $unwind$_wctomb_s_l        000000018005e7e0     libucrt:wctomb.obj
 0002:000197f0       $unwind$__acrt_fp_format   000000018005e7f0     libucrt:cvt.obj
 0002:0001980c       $unwind$?fp_format_nan_or_infinity@@YAHW4__acrt_fp_class@@_NPEAD_K1@Z 000000018005e80c     libucrt:cvt.obj
 0002:00019820       $unwind$?fp_format_e_internal@@YAHQEAD_KH_NIQEAU_strflt@@2QEAU__crt_locale_pointers@@@Z 000000018005e820     libucrt:cvt.obj
 0002:00019838       $unwind$?fp_format_a@@YAHQEBNPEAD_KQEAD2H_NIQEAU__crt_locale_pointers@@@Z 000000018005e838     libucrt:cvt.obj
 0002:00019854       $unwind$?fp_format_g@@YAHQEBNQEAD_K12H_NIQEAU__crt_locale_pointers@@@Z 000000018005e854     libucrt:cvt.obj
 0002:00019868       $unwind$_fputwc_nolock     000000018005e868     libucrt:fputwc.obj
 0002:00019884       $unwind$__acrt_copy_locale_name 000000018005e884     libucrt:wsetlocale.obj
 0002:00019894       $unwind$_wsetlocale        000000018005e894     libucrt:wsetlocale.obj
 0002:0001989c       $unwind$_expandlocale      000000018005e89c     libucrt:wsetlocale.obj
 0002:000198bc       $unwind$_wcscats           000000018005e8bc     libucrt:wsetlocale.obj
 0002:000198cc       $unwind$_wsetlocale_set_cat 000000018005e8cc     libucrt:wsetlocale.obj
 0002:000198f0       $unwind$_wsetlocale_get_all 000000018005e8f0     libucrt:wsetlocale.obj
 0002:0001990c       $unwind$_wsetlocale_nolock 000000018005e90c     libucrt:wsetlocale.obj
 0002:00019930       $unwind$__acrt_uninitialize_locale 000000018005e930     libucrt:wsetlocale.obj
 0002:00019950       $unwind$??R<lambda_2af78c5f5901b1372d98f9ab3177dfa6>@@QEBAXXZ 000000018005e950     libucrt:wsetlocale.obj
 0002:0001995c       $unwind$??$?RV<lambda_5df02c53a8f32f81fd64e5bbb78039f1>@@AEAV<lambda_2af78c5f5901b1372d98f9ab3177dfa6>@@AEAV<lambda_f51fe5fd7c79a33db34fc9310f277369>@@@?$__crt_seh_guarded_call@X@@QEAAX$$QEAV<lambda_5df02c53a8f32f81fd64e5bbb78039f1>@@AEAV<lambda_2af78c5f5901b1372d98f9ab3177dfa6>@@AEAV<lambda_f51fe5fd7c79a33db34fc9310f277369>@@@Z 000000018005e95c     libucrt:wsetlocale.obj
 0002:0001997c       $unwind$??$?RV<lambda_d67e8342c384adda8f857579ab50b2ae>@@AEAV<lambda_30712929f77e709619002f448b6a9510>@@V<lambda_4525336fd7e478d965fb7ca7a337cad8>@@@?$__crt_seh_guarded_call@X@@QEAAX$$QEAV<lambda_d67e8342c384adda8f857579ab50b2ae>@@AEAV<lambda_30712929f77e709619002f448b6a9510>@@$$QEAV<lambda_4525336fd7e478d965fb7ca7a337cad8>@@@Z 000000018005e97c     libucrt:wsetlocale.obj
 0002:000199a0       $unwind$__acrt_initialize_lowio 000000018005e9a0     libucrt:ioinit.obj
 0002:000199c0       $unwind$?initialize_inherited_file_handles_nolock@@YAXXZ 000000018005e9c0     libucrt:ioinit.obj
 0002:000199dc       $unwind$_except1           000000018005e9dc     libucrt:fpexcept.obj
 0002:000199fc       $unwind$_handle_exc        000000018005e9fc     libucrt:fpexcept.obj
 0002:00019a18       $unwind$_umatherr          000000018005ea18     libucrt:fpexcept.obj
 0002:00019a20       $unwind$_raise_exc_ex      000000018005ea20     libucrt:fpexcept.obj
 0002:00019a34       $unwind$_ctrlfp            000000018005ea34     libucrt:fpctrl.obj
 0002:00019a5c       $unwind$fflush             000000018005ea5c     libucrt:fflush.obj
 0002:00019a80       $unwind$common_flush_all   000000018005ea80     libucrt:fflush.obj
 0002:00019abc       $unwind$setvbuf            000000018005eabc     libucrt:setvbuf.obj
 0002:00019ac4       $unwind$??$?RV<lambda_7a5ef57ff966f610505f1d28a3d40618>@@AEAV<lambda_b721fa326cdb32351d23dfa67958c160>@@V<lambda_5e0fb27672408a07956fe59e48ccb2aa>@@@?$__crt_seh_guarded_call@H@@QEAAH$$QEAV<lambda_7a5ef57ff966f610505f1d28a3d40618>@@AEAV<lambda_b721fa326cdb32351d23dfa67958c160>@@$$QEAV<lambda_5e0fb27672408a07956fe59e48ccb2aa>@@@Z 000000018005eac4     libucrt:setvbuf.obj
 0002:00019ae8       $unwind$__acrt_EnumSystemLocalesEx 000000018005eae8     libucrt:winapi_thunks.obj
 0002:00019afc       $unwind$_initterm          000000018005eafc     libucrt:initterm.obj
 0002:00019afc       $unwind$__TypeMatch        000000018005eafc     libvcruntime:frame.obj
 0002:00019afc       $unwind$__acrt_GetLocaleInfoEx 000000018005eafc     libucrt:winapi_thunks.obj
 0002:00019afc       $unwind$?process@?$output_processor@_WV?$string_output_adapter@_W@__crt_stdio_output@@V?$standard_base@_WV?$string_output_adapter@_W@__crt_stdio_output@@@2@@__crt_stdio_output@@QEAAHXZ 000000018005eafc     libucrt:output.obj
 0002:00019afc       $unwind$TranslateName      000000018005eafc     libucrt:getqloc_downlevel.obj
 0002:00019afc       $unwind$__acrt_initialize_stdio 000000018005eafc     libucrt:_file.obj
 0002:00019afc       $unwind$__vcrt_EventSetInformation 000000018005eafc     libvcruntime:winapi_downlevel.obj
 0002:00019afc       $unwind$__vcrt_EventRegister 000000018005eafc     libvcruntime:winapi_downlevel.obj
 0002:00019afc       $unwind$GetTableIndexFromLocaleName 000000018005eafc     libcpmt:winapinls.obj
 0002:00019afc       $unwind$__GSHandlerCheck_EH 000000018005eafc     LIBCMT:gshandlereh.obj
 0002:00019afc       $unwind$__acrt_MessageBoxW 000000018005eafc     libucrt:winapi_thunks.obj
 0002:00019afc       $unwind$__acrt_LCIDToLocaleName 000000018005eafc     libucrt:winapi_thunks.obj
 0002:00019b14       $unwind$__acrt_is_interactive 000000018005eb14     libucrt:winapi_thunks.obj
 0002:00019b28       $unwind$??$?RV<lambda_630b2aca97f6d20d5b5ea6529ea6b6af>@@AEAV<lambda_af91936f1d075d609f72d9d8cba980af>@@V<lambda_e82fa975f615b5c7c7b0e4d178fdae67>@@@?$__crt_seh_guarded_call@H@@QEAAH$$QEAV<lambda_630b2aca97f6d20d5b5ea6529ea6b6af>@@AEAV<lambda_af91936f1d075d609f72d9d8cba980af>@@$$QEAV<lambda_e82fa975f615b5c7c7b0e4d178fdae67>@@@Z 000000018005eb28     libucrt:winapi_thunks.obj
 0002:00019b50       $unwind$_mbstowcs_s_l      000000018005eb50     libucrt:mbstowcs.obj
 0002:00019b68       $unwind$?_mbstowcs_l_helper@@YA_KPEA_WPEBD_KPEAU__crt_locale_pointers@@@Z 000000018005eb68     libucrt:mbstowcs.obj
 0002:00019b84       $unwind$?_wcstombs_l_helper@@YA_KPEADPEB_W_KPEAU__crt_locale_pointers@@@Z 000000018005eb84     libucrt:wcstombs.obj
 0002:00019ba4       $unwind$_isctype_l         000000018005eba4     libucrt:isctype.obj
 0002:00019bc0       $unwind$__acrt_GetLocaleInfoA 000000018005ebc0     libucrt:getlocaleinfoa.obj
 0002:00019be0       $unwind$?InternalGetLocaleInfoA@@YAHQEAU__crt_locale_pointers@@QEB_WKQEADH@Z 000000018005ebe0     libucrt:getlocaleinfoa.obj
 0002:00019c08       $unwind$__acrt_GetStringTypeA 000000018005ec08     libucrt:getstringtypea.obj
 0002:00019c30       $unwind$__acrt_LCMapStringA 000000018005ec30     libucrt:lcmapstringa.obj
 0002:00019c40       $unwind$?__acrt_LCMapStringA_stat@@YAHPEAU__crt_locale_pointers@@PEB_WKPEBDHPEADHHH@Z 000000018005ec40     libucrt:lcmapstringa.obj
 0002:00019c68       $unwind$_call_matherr      000000018005ec68     libucrt:libm_error.obj
 0002:00019c70       $unwind$_handle_error      000000018005ec70     libucrt:libm_error.obj
 0002:00019c90       $unwind$__acrt_update_thread_multibyte_data 000000018005ec90     libucrt:mbctype.obj
 0002:00019cb4       $unwind$_setmbcp_nolock    000000018005ecb4     libucrt:mbctype.obj
 0002:00019cd4       $unwind$?setSBUpLow@@YAXPEAU__crt_multibyte_data@@@Z 000000018005ecd4     libucrt:mbctype.obj
 0002:00019cf0       $unwind$?setmbcp_internal@@YAHH_N@Z 000000018005ecf0     libucrt:mbctype.obj
 0002:00019d00       $unwind$??$?RV<lambda_99476a1ad63dd22509b5d3e65b0ffc95>@@AEAV<lambda_ad1ced32f4ac17aa236e5ef05d6b3b7c>@@V<lambda_f7424dd8d45958661754dc4f2697e9c3>@@@?$__crt_seh_guarded_call@X@@QEAAX$$QEAV<lambda_99476a1ad63dd22509b5d3e65b0ffc95>@@AEAV<lambda_ad1ced32f4ac17aa236e5ef05d6b3b7c>@@$$QEAV<lambda_f7424dd8d45958661754dc4f2697e9c3>@@@Z 000000018005ed00     libucrt:mbctype.obj
 0002:00019d24       $unwind$__acrt_update_thread_locale_data 000000018005ed24     libucrt:locale_refcounting.obj
 0002:00019d48       $unwind$__acrt_fltout      000000018005ed48     libucrt:cfout.obj
 0002:00019d68       $unwind$?divide@__crt_strtox@@YA_KAEAUbig_integer@1@AEBU21@@Z 000000018005ed68     libucrt:cfout.obj
 0002:00019d88       $chain$5$?divide@__crt_strtox@@YA_KAEAUbig_integer@1@AEBU21@@Z 000000018005ed88     libucrt:cfout.obj
 0002:00019d9c       $chain$6$?divide@__crt_strtox@@YA_KAEAUbig_integer@1@AEBU21@@Z 000000018005ed9c     libucrt:cfout.obj
 0002:00019dac       $unwind$??$write_buffer_nolock@D@@YA_NDV__crt_stdio_stream@@@Z 000000018005edac     libucrt:_flsbuf.obj
 0002:00019dbc       $unwind$??$write_buffer_nolock@_W@@YA_N_WV__crt_stdio_stream@@@Z 000000018005edbc     libucrt:_flsbuf.obj
 0002:00019dcc       $unwind$_fcloseall         000000018005edcc     libucrt:closeall.obj
 0002:00019df0       $unwind$__acrt_locale_initialize_monetary 000000018005edf0     libucrt:initmon.obj
 0002:00019e0c       $unwind$__acrt_locale_free_monetary 000000018005ee0c     libucrt:initmon.obj
 0002:00019e14       $unwind$__InternalCxxFrameHandler 000000018005ee14     libvcruntime:frame.obj
 0002:00019e14       $unwind$__C_specific_handler 000000018005ee14     libvcruntime:_chandler_.obj
 0002:00019e14       $unwind$__acrt_locale_initialize_numeric 000000018005ee14     libucrt:initnum.obj
 0002:00019e30       $unwind$?destroy_fls@@YAXPEAX@Z 000000018005ee30     libucrt:per_thread_data.obj
 0002:00019e30       $unwind$__acrt_locale_free_numeric 000000018005ee30     libucrt:initnum.obj
 0002:00019e30       $unwind$_free_base         000000018005ee30     libucrt:free_base.obj
 0002:00019e30       $unwind$__acrt_locale_free_lc_time_if_unreferenced 000000018005ee30     libucrt:locale_refcounting.obj
 0002:00019e38       $unwind$__acrt_locale_free_time 000000018005ee38     libucrt:inittime.obj
 0002:00019e48       $unwind$?initialize_lc_time@@YA_NQEAU__crt_lc_time_data@@QEAU__crt_locale_data@@@Z 000000018005ee48     libucrt:inittime.obj
 0002:00019e64       $unwind$__acrt_get_qualified_locale 000000018005ee64     libucrt:get_qualified_locale.obj
 0002:00019e80       $unwind$LangCountryEnumProcEx 000000018005ee80     libucrt:get_qualified_locale.obj
 0002:00019ea0       $unwind$LanguageEnumProcEx 000000018005eea0     libucrt:get_qualified_locale.obj
 0002:00019ebc       $unwind$GetLocaleNameFromDefault 000000018005eebc     libucrt:get_qualified_locale.obj
 0002:00019ed4       $unwind$TestDefaultCountry 000000018005eed4     libucrt:get_qualified_locale.obj
 0002:00019ee8       $unwind$__acrt_get_qualified_locale_downlevel 000000018005eee8     libucrt:getqloc_downlevel.obj
 0002:00019f04       $unwind$LangCountryEnumProc 000000018005ef04     libucrt:getqloc_downlevel.obj
 0002:00019f24       $unwind$LanguageEnumProc   000000018005ef24     libucrt:getqloc_downlevel.obj
 0002:00019f40       $unwind$CountryEnumProc    000000018005ef40     libucrt:getqloc_downlevel.obj
 0002:00019f60       $unwind$__std_exception_copy 000000018005ef60     libvcruntime:std_exception.obj
 0002:00019f60       $unwind$?initialize_stdio_handles_nolock@@YAXXZ 000000018005ef60     libucrt:ioinit.obj
 0002:00019f60       $unwind$_free_osfhnd       000000018005ef60     libucrt:osfinfo.obj
 0002:00019f60       $unwind$_wcstombs_s_l      000000018005ef60     libucrt:wcstombs.obj
 0002:00019f74       $unwind$__acrt_lowio_destroy_handle_array 000000018005ef74     libucrt:osfinfo.obj
 0002:00019f84       $unwind$__acrt_lowio_ensure_fh_exists 000000018005ef84     libucrt:osfinfo.obj
 0002:00019fb0       $xdatasym                  000000018005efb0     libucrt:fpsr.obj
 0002:00019fb8       $unwind$_close             000000018005efb8     libucrt:close.obj
 0002:00019fb8       $unwind$_commit            000000018005efb8     libucrt:commit.obj
 0002:00019fc0       $unwind$??$?RV<lambda_b521505b218e5242e90febf6bfebc422>@@AEAV<lambda_6978c1fb23f02e42e1d9e99668cc68aa>@@V<lambda_314360699dd331753a4119843814e9a7>@@@?$__crt_seh_guarded_call@H@@QEAAH$$QEAV<lambda_b521505b218e5242e90febf6bfebc422>@@AEAV<lambda_6978c1fb23f02e42e1d9e99668cc68aa>@@$$QEAV<lambda_314360699dd331753a4119843814e9a7>@@@Z 000000018005efc0     libucrt:commit.obj
 0002:00019fe4       $unwind$_write             000000018005efe4     libucrt:write.obj
 0002:0001a014       $unwind$_write_nolock      000000018005f014     libucrt:write.obj
 0002:0001a02c       $unwind$?write_double_translated_ansi_nolock@@YA?AUwrite_result@?A0x9c548279@@HQEBDI@Z 000000018005f02c     libucrt:write.obj
 0002:0001a04c       $unwind$?write_text_ansi_nolock@@YA?AUwrite_result@?A0x9c548279@@HQEBDI@Z 000000018005f04c     libucrt:write.obj
 0002:0001a04c       $unwind$?write_text_utf16le_nolock@@YA?AUwrite_result@?A0x9c548279@@HQEBDI@Z 000000018005f04c     libucrt:write.obj
 0002:0001a06c       $unwind$?write_text_utf8_nolock@@YA?AUwrite_result@?A0x9c548279@@HQEBDI@Z 000000018005f06c     libucrt:write.obj
 0002:0001a090       $unwind$__acrt_DownlevelLCIDToLocaleName 000000018005f090     libucrt:lcidtoname_downlevel.obj
 0002:0001a090       $unwind$_wcsdup            000000018005f090     libucrt:wcsdup.obj
 0002:0001a090       $unwind$__lc_lctowcs       000000018005f090     libucrt:wsetlocale.obj
 0002:0001a0a4       $unwind$?GetTableIndexFromLocaleName@@YAHPEB_W@Z 000000018005f0a4     libucrt:lcidtoname_downlevel.obj
 0002:0001a0bc       $unwind$_towlower_l        000000018005f0bc     libucrt:towlower.obj
 0002:0001a0c8       $xdatasym                  000000018005f0c8     libucrt:log10.obj
 0002:0001a0d4       $unwind$??$common_lseek@_J@@YA_JH_JH@Z 000000018005f0d4     libucrt:lseek.obj
 0002:0001a104       $unwind$fclose             000000018005f104     libucrt:fclose.obj
 0002:0001a128       $unwind$?fp_format_f_internal@@YAHQEAD_KHQEAU_strflt@@_NQEAU__crt_locale_pointers@@@Z 000000018005f128     libucrt:cvt.obj
 0002:0001a128       $unwind$__dcrt_get_narrow_environment_from_os 000000018005f128     libucrt:get_environment_from_os.obj
 0002:0001a128       $unwind$_wcsnicmp_l        000000018005f128     libucrt:wcsnicmp.obj
 0002:0001a140       $unwind$?fp_format_e@@YAHQEBNQEAD_K12H_NIQEAU__crt_locale_pointers@@@Z 000000018005f140     libucrt:cvt.obj
 0002:0001a140       $unwind$__acrt_LCMapStringW 000000018005f140     libucrt:lcmapstringw.obj
 0002:0001a154       $unwind$common_control87   000000018005f154     libucrt:ieee.obj
 0002:0001a184       $unwind$__acrt_initialize_fma3 000000018005f184     libucrt:fma3_available.obj
 0002:0001a18c       $unwind$_log_special_common 000000018005f18c     libucrt:log_special.obj
 0002:0001a198       $unwind$??$?RV<lambda_bfedae4ebbf01fab1bb6dcc6a9e276e0>@@AEAV<lambda_2fe9b910cf3cbf4a0ab98a02ba45b3ec>@@V<lambda_237c231691f317818eb88cc1d5d642d6>@@@?$__crt_seh_guarded_call@H@@QEAAH$$QEAV<lambda_bfedae4ebbf01fab1bb6dcc6a9e276e0>@@AEAV<lambda_2fe9b910cf3cbf4a0ab98a02ba45b3ec>@@$$QEAV<lambda_237c231691f317818eb88cc1d5d642d6>@@@Z 000000018005f198     libucrt:close.obj
 0002:0001a1bc       $unwind$?DloadObtainSection@@YAPEAXPEAK0@Z 000000018005f1bc     DelayImp:delayhlp.obj
 0002:0001a1cc       $unwind$?DloadMakePermanentImageCommit@@YAXPEAX_K@Z 000000018005f1cc     DelayImp:delayhlp.obj
 0002:0001a1d8       $unwind$?DloadProtectSection@@YAXKPEAK@Z 000000018005f1d8     DelayImp:delayhlp.obj
 0002:0001a1e8       $unwind$__delayLoadHelper2 000000018005f1e8     DelayImp:delayhlp.obj
 0002:0001a200       $unwind$_IsNonwritableInCurrentImage 000000018005f200     LIBCMT:pesect.obj
 0002:0001a224       $unwind$wcschr             000000018005f224     libvcruntime:wcschr.obj
 0002:0001a224       $unwind$strrchr            000000018005f224     libvcruntime:strrchr.obj
 0002:0001bf90       .edata                     0000000180060f90     oracledb.exp
 0002:0001bfb8       rgpv                       0000000180060fb8     oracledb.exp
 0002:0001bfbc       rgszName                   0000000180060fbc     oracledb.exp
 0002:0001bfc0       rgwOrd                     0000000180060fc0     oracledb.exp
 0002:0001bfc2       szName                     0000000180060fc2     oracledb.exp
 0002:0001bfd0       $N00001                    0000000180060fd0     oracledb.exp
 0002:0001c41c       .idata$6                   000000018006141c     kernel32:KERNEL32.dll
 0002:0001c6f2       .idata$6                   00000001800616f2     oci:OCI.dll
 0002:0001cc9c       .idata$6                   0000000180061c9c     advapi32:ADVAPI32.dll
 0003:00000000       ?init@std@@3JA             0000000180062000     libcpmt:xlock.obj
 0003:00000010       ?atcount_cdecl@@3_KA       0000000180062010     libcpmt:iosptrs.obj
 0003:000001f0       ?_Tlg_Microsoft_CRTProviderProv@@3U_TlgProvider_t@__vcrt_trace_logging_provider@@A 00000001800621f0     libvcruntime:telemetry.obj
 0003:00000240       ?__vcrt_flsindex@@3KA      0000000180062240     libvcruntime:per_thread_data.obj
 0003:00000318       errno_no_memory            0000000180062318     libucrt:errno.obj
 0003:0000031c       doserrno_no_memory         000000018006231c     libucrt:errno.obj
 0003:00000320       __acrt_flsindex            0000000180062320     libucrt:per_thread_data.obj
 0003:00000438       _ctype_loc_style           0000000180062438     libucrt:wsetlocale.obj
 0003:000005f0       ?dazSupported@?1??_ctrlfp@@9@9 00000001800625f0     libucrt:fpctrl.obj
 0003:00000600       tzstd_program              0000000180062600     libucrt:timeset.obj
 0003:00000640       tzdst_program              0000000180062640     libucrt:timeset.obj
 0003:00000680       tzname_states              0000000180062680     libucrt:timeset.obj
 0003:000008c0       __rgctypeflag              00000001800628c0     libucrt:mbctype.obj
 0003:000008d0       __rgcode_page_info         00000001800628d0     libucrt:mbctype.obj
 0003:00000bd0       ?dazSupported@?1??common_control87@@9@9 0000000180062bd0     libucrt:ieee.obj
 0003:00000bf0       _module                    0000000180062bf0     njsOracle.obj
 0003:00001260       ?initlocks@std@@3V_Init_locks@1@A 0000000180063260     libcpmt:xlock.obj
 0003:00001270       ?mtx@std@@3PAU_RTL_CRITICAL_SECTION@@A 0000000180063270     libcpmt:xlock.obj
 0003:000013b8       global_locale              00000001800633b8     libcpmt:locale0.obj
 0003:000013c8       ?_Fac_head@std@@3PEAU_Fac_node@1@EA 00000001800633c8     libcpmt:locale0.obj
 0003:000013f0       ?classic_locale@std@@3Vlocale@1@A 00000001800633f0     libcpmt:locale0.obj
 0003:00001408       ?_Fac_tidy_reg@std@@3U_Fac_tidy_reg_t@1@B 0000000180063408     libcpmt:locale0.obj
 0003:00001409       ?registered@?1??_Setgloballocale@locale@std@@CAXPEAX@Z@4_NA 0000000180063409     libcpmt:locale0.obj
 0003:00001410       ?stdstr@std@@3PAPEAVios_base@1@A 0000000180063410     libcpmt:ios.obj
 0003:00001460       ?stdopens@std@@3PADA       0000000180063460     libcpmt:ios.obj
 0003:00001480       ?atfuns_cdecl@@3PAP6AXXZA  0000000180063480     libcpmt:iosptrs.obj
 0003:00001510       ?initlocks@std@@3V_Init_locks@1@A 0000000180063510     libcpmt:iosptrs.obj
 0003:00001511       ?init_atexit@@3U_Init_atexit@@A 0000000180063511     libcpmt:iosptrs.obj
 0003:00001778       ?_Tss_mutex@@3U_RTL_CRITICAL_SECTION@@A 0000000180063778     LIBCMT:thread_safe_statics.obj
 0003:000017a0       ?_Tss_cv@@3U_RTL_CONDITION_VARIABLE@@A 00000001800637a0     LIBCMT:thread_safe_statics.obj
 0003:000017a8       ?_Tss_event@@3PEAXEA       00000001800637a8     LIBCMT:thread_safe_statics.obj
 0003:000017b0       ?encoded_sleep_condition_variable_cs@@3P6AHPEAU_RTL_CONDITION_VARIABLE@@PEAU_RTL_CRITICAL_SECTION@@K@ZEA 00000001800637b0     LIBCMT:thread_safe_statics.obj
 0003:000017b8       ?encoded_wake_all_condition_variable@@3P6AXPEAU_RTL_CONDITION_VARIABLE@@@ZEA 00000001800637b8     LIBCMT:thread_safe_statics.obj
 0003:000017d0       ?module_local_atexit_table@@3U_onexit_table_t@@A 00000001800637d0     LIBCMT:utility.obj
 0003:000017e8       ?module_local_at_quick_exit_table@@3U_onexit_table_t@@A 00000001800637e8     LIBCMT:utility.obj
 0003:00001800       ?is_initialized_as_dll@@3_NA 0000000180063800     LIBCMT:utility.obj
 0003:00001810       GS_ExceptionRecord         0000000180063810     LIBCMT:gs_report.obj
 0003:000018b0       GS_ContextRecord           00000001800638b0     LIBCMT:gs_report.obj
 0003:00001d80       ?__proc_attached@@3HA      0000000180063d80     LIBCMT:dll_dllmain.obj
 0003:00001db0       ?module_handles@@3PAPEAUHINSTANCE__@@A 0000000180063db0     libvcruntime:winapi_downlevel.obj
 0003:00001dd0       ?encoded_function_pointers@@3PAPEAXA 0000000180063dd0     libvcruntime:winapi_downlevel.obj
 0003:00001e20       ?__vcrt_startup_thread_ptd@@3U__vcrt_ptd@@A 0000000180063e20     libvcruntime:per_thread_data.obj
 0003:00001e98       __vcrt_lock_table          0000000180063e98     libvcruntime:locks.obj
 0003:00001ec0       __vcrt_locks_initialized   0000000180063ec0     libvcruntime:locks.obj
 0003:00001f10       ?heap@@3V_HeapManager@@A   0000000180063f10     libvcruntime:undname.obj
 0003:00001f38       __acrt_invalid_parameter_handler 0000000180063f38     libucrt:invalid_parameter.obj
 0003:00001f50       __acrt_lock_table          0000000180063f50     libucrt:locks.obj
 0003:00002158       __acrt_locks_initialized   0000000180064158     libucrt:locks.obj
 0003:00002160       __acrt_new_handler         0000000180064160     libucrt:new_handler.obj
 0003:00002168       c_termination_complete     0000000180064168     libucrt:exit.obj
 0003:00002170       thread_local_exit_callback_func 0000000180064170     libucrt:exit.obj
 0003:00002178       ?c_exit_complete@?5??common_exit@@YAXHW4_crt_exit_cleanup_mode@@W4_crt_exit_return_mode@@@Z@4_NA 0000000180064178     libucrt:exit.obj
 0003:000021d0       ctrlc_action               00000001800641d0     libucrt:signal.obj
 0003:000021d8       ctrlbreak_action           00000001800641d8     libucrt:signal.obj
 0003:000021e0       abort_action               00000001800641e0     libucrt:signal.obj
 0003:000021e8       term_action                00000001800641e8     libucrt:signal.obj
 0003:00002208       enable_percent_n           0000000180064208     libucrt:printf_count_output.obj
 0003:00002634       __acrt_app_type            0000000180064634     libucrt:report_runtime_error.obj
 0003:00002638       __acrt_error_mode          0000000180064638     libucrt:set_error_mode.obj
 0003:00002640       module_handles             0000000180064640     libucrt:winapi_thunks.obj
 0003:000026e0       encoded_function_pointers  00000001800646e0     libucrt:winapi_thunks.obj
 0003:000027e0       ?static_enum_proc@?1??enum_system_locales_ex_nolock@@YAHQ6AHPEA_WK_J@Z@Z@4P6AH0K1@ZEA 00000001800647e0     libucrt:winapi_thunks.obj
 0003:000027e8       ?state_cache@?1??__acrt_is_packaged_app@@9@4JA 00000001800647e8     libucrt:winapi_thunks.obj
 0003:000027ec       __acrt_global_new_mode     00000001800647ec     libucrt:new_mode.obj
 0003:00002808       _tzname                    0000000180064808     libucrt:timeset.obj
 0003:00002810       tz_api_used                0000000180064810     libucrt:tzset.obj
 0003:00002820       tz_info                    0000000180064820     libucrt:tzset.obj
 0003:000028e4       fSystemSet                 00000001800648e4     libucrt:mbctype.obj
 0003:000028f0       ?initialized@?1??__acrt_initialize_multibyte@@9@4_NA 00000001800648f0     libucrt:mbctype.obj
 0003:00002918       user_matherr               0000000180064918     libucrt:matherr.obj
 0004:00000000       $pdata$?TraceLoggingRegister@__vcrt_trace_logging_provider@@YAJPEBU_TlgProvider_t@1@PEBU_GUID@@P6AX1KE_K2PEAU_EVENT_FILTER_DESCRIPTOR@@PEAX@Z4@Z 0000000180065000     libvcruntime:telemetry.obj
 0004:0000000c       $pdata$?_TlgEnableCallback@__vcrt_trace_logging_provider@@YAXPEBU_GUID@@KE_K1PEAU_EVENT_FILTER_DESCRIPTOR@@PEAX@Z 000000018006500c     libvcruntime:telemetry.obj
 0004:00000018       $pdata$?_TlgWrite@__vcrt_trace_logging_provider@@YAJPEBU_TlgProvider_t@1@PEFBXPEBU_GUID@@2IPEAU_EVENT_DATA_DESCRIPTOR@@@Z 0000000180065018     libvcruntime:telemetry.obj
 0004:00000024       $pdata$??__Einitlocks@std@@YAXXZ 0000000180065024     libcpmt:xlock.obj
 0004:00000030       $pdata$??__Einitlocks@std@@YAXXZ 0000000180065030     libcpmt:iosptrs.obj
 0004:0000003c       $pdata$sprintf_s           000000018006503c     njsOracle.obj
 0004:00000048       $pdata$?_Raise@exception@stdext@@QEBAXXZ 0000000180065048     njsOracle.obj
 0004:00000054       $pdata$??_GException@dpi@@UEAAPEAXI@Z 0000000180065054     dpiEnvImpl.obj
 0004:00000054       $pdata$??_Gruntime_error@std@@UEAAPEAXI@Z 0000000180065054     njsOracle.obj
 0004:00000054       $pdata$??_Gexception@stdext@@UEAAPEAXI@Z 0000000180065054     njsOracle.obj
 0004:00000060       $pdata$?_Doraise@failure@ios_base@std@@MEBAXXZ 0000000180065060     njsOracle.obj
 0004:00000060       $pdata$?_Doraise@system_error@std@@MEBAXXZ 0000000180065060     njsOracle.obj
 0004:00000060       $pdata$?_Doraise@runtime_error@std@@MEBAXXZ 0000000180065060     njsOracle.obj
 0004:0000006c       $pdata$??1_Locinfo@std@@QEAA@XZ 000000018006506c     njsOracle.obj
 0004:00000078       $pdata$??_G_Facet_base@std@@UEAAPEAXI@Z 0000000180065078     njsOracle.obj
 0004:00000084       $pdata$??1locale@std@@QEAA@XZ 0000000180065084     njsOracle.obj
 0004:00000090       $pdata$?_Getcat@?$ctype@D@std@@SA_KPEAPEBVfacet@locale@2@PEBV42@@Z 0000000180065090     njsOracle.obj
 0004:0000009c       $pdata$?do_tolower@?$ctype@D@std@@MEBAPEBDPEADPEBD@Z 000000018006509c     njsOracle.obj
 0004:000000a8       $pdata$0$?do_tolower@?$ctype@D@std@@MEBAPEBDPEADPEBD@Z 00000001800650a8     njsOracle.obj
 0004:000000b4       $pdata$1$?do_tolower@?$ctype@D@std@@MEBAPEBDPEADPEBD@Z 00000001800650b4     njsOracle.obj
 0004:000000c0       $pdata$?do_toupper@?$ctype@D@std@@MEBAPEBDPEADPEBD@Z 00000001800650c0     njsOracle.obj
 0004:000000cc       $pdata$0$?do_toupper@?$ctype@D@std@@MEBAPEBDPEADPEBD@Z 00000001800650cc     njsOracle.obj
 0004:000000d8       $pdata$1$?do_toupper@?$ctype@D@std@@MEBAPEBDPEADPEBD@Z 00000001800650d8     njsOracle.obj
 0004:000000e4       $pdata$?do_widen@?$ctype@D@std@@MEBAPEBDPEBD0PEAD@Z 00000001800650e4     njsOracle.obj
 0004:000000f0       $pdata$?do_narrow@?$ctype@D@std@@MEBAPEBDPEBD0DPEAD@Z 00000001800650f0     njsOracle.obj
 0004:000000fc       $pdata$??_G?$ctype@D@std@@MEAAPEAXI@Z 00000001800650fc     njsOracle.obj
 0004:00000108       $pdata$??_G_Iostream_error_category@std@@UEAAPEAXI@Z 0000000180065108     njsOracle.obj
 0004:00000108       $pdata$??_Gerror_category@std@@UEAAPEAXI@Z 0000000180065108     njsOracle.obj
 0004:00000114       $pdata$?message@error_code@std@@QEBA?AV?$basic_string@DU?$char_traits@D@std@@V?$allocator@D@2@@2@XZ 0000000180065114     njsOracle.obj
 0004:00000120       $pdata$?_Makestr@_System_error@std@@CA?AV?$basic_string@DU?$char_traits@D@std@@V?$allocator@D@2@@2@Verror_code@2@V32@@Z 0000000180065120     njsOracle.obj
 0004:0000012c       $pdata$??_Gsystem_error@std@@UEAAPEAXI@Z 000000018006512c     njsOracle.obj
 0004:0000012c       $pdata$??_Gfailure@ios_base@std@@UEAAPEAXI@Z 000000018006512c     njsOracle.obj
 0004:0000012c       $pdata$??_G_System_error@std@@UEAAPEAXI@Z 000000018006512c     njsOracle.obj
 0004:00000138       $pdata$??0system_error@std@@QEAA@Verror_code@1@PEBD@Z 0000000180065138     njsOracle.obj
 0004:00000144       $pdata$?message@_Generic_error_category@std@@UEBA?AV?$basic_string@DU?$char_traits@D@std@@V?$allocator@D@2@@2@H@Z 0000000180065144     njsOracle.obj
 0004:00000150       $pdata$?message@_Iostream_error_category@std@@UEBA?AV?$basic_string@DU?$char_traits@D@std@@V?$allocator@D@2@@2@H@Z 0000000180065150     njsOracle.obj
 0004:0000015c       $pdata$?clear@ios_base@std@@QEAAXH_N@Z 000000018006515c     njsOracle.obj
 0004:00000168       $pdata$?getloc@ios_base@std@@QEBA?AVlocale@2@XZ 0000000180065168     njsOracle.obj
 0004:00000174       $pdata$?_Init@ios_base@std@@IEAAXXZ 0000000180065174     njsOracle.obj
 0004:00000180       $pdata$??_Gios_base@std@@UEAAPEAXI@Z 0000000180065180     njsOracle.obj
 0004:0000018c       $pdata$?FunctionCallbackWrapper@imp@Nan@@YAXAEBV?$FunctionCallbackInfo@VValue@v8@@@v8@@@Z 000000018006518c     njsOracle.obj
 0004:00000198       $pdata$?GetterCallbackWrapper@imp@Nan@@YAXV?$Local@VName@v8@@@v8@@AEBV?$PropertyCallbackInfo@VValue@v8@@@4@@Z 0000000180065198     njsOracle.obj
 0004:000001a4       $pdata$?SetterCallbackWrapper@imp@Nan@@YAXV?$Local@VName@v8@@@v8@@V?$Local@VValue@v8@@@4@AEBV?$PropertyCallbackInfo@X@4@@Z 00000001800651a4     njsOracle.obj
 0004:000001b0       $pdata$?New@?$Factory@VFunctionTemplate@v8@@@imp@Nan@@SA?AV?$Local@VFunctionTemplate@v8@@@v8@@P6AXAEBV?$FunctionCallbackInfo@VValue@v8@@@3@@ZV?$Local@VValue@v8@@@5@V?$Local@VSignature@v8@@@5@@Z 00000001800651b0     njsOracle.obj
 0004:000001bc       $pdata$?ThrowError@Nan@@YAXPEBD@Z 00000001800651bc     njsOracle.obj
 0004:000001c8       $pdata$??1?$Persistent@VObject@v8@@V?$NonCopyablePersistentTraits@VObject@v8@@@2@@Nan@@QEAA@XZ 00000001800651c8     njsOracle.obj
 0004:000001c8       $pdata$??1?$Persistent@VFunction@v8@@V?$NonCopyablePersistentTraits@VFunction@v8@@@2@@Nan@@QEAA@XZ 00000001800651c8     njsOracle.obj
 0004:000001d4       $pdata$?SetPrototypeMethod@Nan@@YAXV?$Local@VFunctionTemplate@v8@@@v8@@PEBDP6AXAEBV?$FunctionCallbackInfo@VValue@v8@@@1@@Z@Z 00000001800651d4     njsOracle.obj
 0004:000001e0       $pdata$?SetAccessor@Nan@@YAXV?$Local@VObjectTemplate@v8@@@v8@@V?$Local@VString@v8@@@3@P6AX1AEBV?$PropertyCallbackInfo@VValue@v8@@@1@@ZP6AX1V?$Local@VValue@v8@@@3@AEBV?$PropertyCallbackInfo@X@1@@Z4W4AccessControl@3@W4PropertyAttribute@3@V?$Local@VAccessorSignature@v8@@@3@@Z 00000001800651e0     njsOracle.obj
 0004:000001ec       $pdata$??1ObjectWrap@Nan@@UEAA@XZ 00000001800651ec     njsOracle.obj
 0004:000001f8       $pdata$?Wrap@ObjectWrap@Nan@@IEAAXV?$Local@VObject@v8@@@v8@@@Z 00000001800651f8     njsOracle.obj
 0004:00000204       $pdata$?Ref@ObjectWrap@Nan@@MEAAXXZ 0000000180065204     njsOracle.obj
 0004:00000210       $pdata$?Unref@ObjectWrap@Nan@@MEAAXXZ 0000000180065210     njsOracle.obj
 0004:0000021c       $pdata$?WeakCallback@ObjectWrap@Nan@@CAXAEBV?$WeakCallbackInfo@VObjectWrap@Nan@@@v8@@@Z 000000018006521c     njsOracle.obj
 0004:00000228       $pdata$??_GObjectWrap@Nan@@UEAAPEAXI@Z 0000000180065228     njsOracle.obj
 0004:00000234       $pdata$??0connectionBaton@@QEAA@V?$Local@VFunction@v8@@@v8@@V?$Local@VObject@v8@@@2@@Z 0000000180065234     njsOracle.obj
 0004:00000240       $pdata$??1connectionBaton@@QEAA@XZ 0000000180065240     njsOracle.obj
 0004:0000024c       $pdata$??0Oracledb@@AEAA@XZ 000000018006524c     njsOracle.obj
 0004:00000258       $pdata$??_GOracledb@@EEAAPEAXI@Z 0000000180065258     njsOracle.obj
 0004:00000264       $pdata$??1Oracledb@@EEAA@XZ 0000000180065264     njsOracle.obj
 0004:00000270       $pdata$?driverName@Oracledb@@AEBA?BV?$basic_string@DU?$char_traits@D@std@@V?$allocator@D@2@@std@@XZ 0000000180065270     njsOracle.obj
 0004:0000027c       $pdata$??_D?$basic_stringstream@DU?$char_traits@D@std@@V?$allocator@D@2@@std@@QEAAXXZ 000000018006527c     njsOracle.obj
 0004:00000288       $pdata$?Init@Oracledb@@SAXV?$Local@VObject@v8@@@v8@@@Z 0000000180065288     njsOracle.obj
 0004:00000294       $pdata$?New@Oracledb@@CAXAEBV?$FunctionCallbackInfo@VValue@v8@@@Nan@@@Z 0000000180065294     njsOracle.obj
 0004:000002a0       $pdata$?GetPoolMin@Oracledb@@CAXV?$Local@VString@v8@@@v8@@AEBV?$PropertyCallbackInfo@VValue@v8@@@Nan@@@Z 00000001800652a0     njsOracle.obj
 0004:000002ac       $pdata$?SetPoolMin@Oracledb@@CAXV?$Local@VString@v8@@@v8@@V?$Local@VValue@v8@@@3@AEBV?$PropertyCallbackInfo@X@Nan@@@Z 00000001800652ac     njsOracle.obj
 0004:000002b8       $pdata$?GetPoolMax@Oracledb@@CAXV?$Local@VString@v8@@@v8@@AEBV?$PropertyCallbackInfo@VValue@v8@@@Nan@@@Z 00000001800652b8     njsOracle.obj
 0004:000002c4       $pdata$?SetPoolMax@Oracledb@@CAXV?$Local@VString@v8@@@v8@@V?$Local@VValue@v8@@@3@AEBV?$PropertyCallbackInfo@X@Nan@@@Z 00000001800652c4     njsOracle.obj
 0004:000002d0       $pdata$?GetPoolIncrement@Oracledb@@CAXV?$Local@VString@v8@@@v8@@AEBV?$PropertyCallbackInfo@VValue@v8@@@Nan@@@Z 00000001800652d0     njsOracle.obj
 0004:000002dc       $pdata$?SetPoolIncrement@Oracledb@@CAXV?$Local@VString@v8@@@v8@@V?$Local@VValue@v8@@@3@AEBV?$PropertyCallbackInfo@X@Nan@@@Z 00000001800652dc     njsOracle.obj
 0004:000002e8       $pdata$?GetPoolTimeout@Oracledb@@CAXV?$Local@VString@v8@@@v8@@AEBV?$PropertyCallbackInfo@VValue@v8@@@Nan@@@Z 00000001800652e8     njsOracle.obj
 0004:000002f4       $pdata$?SetPoolTimeout@Oracledb@@CAXV?$Local@VString@v8@@@v8@@V?$Local@VValue@v8@@@3@AEBV?$PropertyCallbackInfo@X@Nan@@@Z 00000001800652f4     njsOracle.obj
 0004:00000300       $pdata$?GetMaxRows@Oracledb@@CAXV?$Local@VString@v8@@@v8@@AEBV?$PropertyCallbackInfo@VValue@v8@@@Nan@@@Z 0000000180065300     njsOracle.obj
 0004:0000030c       $pdata$?SetMaxRows@Oracledb@@CAXV?$Local@VString@v8@@@v8@@V?$Local@VValue@v8@@@3@AEBV?$PropertyCallbackInfo@X@Nan@@@Z 000000018006530c     njsOracle.obj
 0004:00000318       $pdata$?GetOutFormat@Oracledb@@CAXV?$Local@VString@v8@@@v8@@AEBV?$PropertyCallbackInfo@VValue@v8@@@Nan@@@Z 0000000180065318     njsOracle.obj
 0004:00000324       $pdata$?SetOutFormat@Oracledb@@CAXV?$Local@VString@v8@@@v8@@V?$Local@VValue@v8@@@3@AEBV?$PropertyCallbackInfo@X@Nan@@@Z 0000000180065324     njsOracle.obj
 0004:00000330       $pdata$?GetStmtCacheSize@Oracledb@@CAXV?$Local@VString@v8@@@v8@@AEBV?$PropertyCallbackInfo@VValue@v8@@@Nan@@@Z 0000000180065330     njsOracle.obj
 0004:0000033c       $pdata$?SetStmtCacheSize@Oracledb@@CAXV?$Local@VString@v8@@@v8@@V?$Local@VValue@v8@@@3@AEBV?$PropertyCallbackInfo@X@Nan@@@Z 000000018006533c     njsOracle.obj
 0004:00000348       $pdata$?GetPrefetchRows@Oracledb@@CAXV?$Local@VString@v8@@@v8@@AEBV?$PropertyCallbackInfo@VValue@v8@@@Nan@@@Z 0000000180065348     njsOracle.obj
 0004:00000354       $pdata$?SetPrefetchRows@Oracledb@@CAXV?$Local@VString@v8@@@v8@@V?$Local@VValue@v8@@@3@AEBV?$PropertyCallbackInfo@X@Nan@@@Z 0000000180065354     njsOracle.obj
 0004:00000360       $pdata$?GetAutoCommit@Oracledb@@CAXV?$Local@VString@v8@@@v8@@AEBV?$PropertyCallbackInfo@VValue@v8@@@Nan@@@Z 0000000180065360     njsOracle.obj
 0004:0000036c       $pdata$?SetAutoCommit@Oracledb@@CAXV?$Local@VString@v8@@@v8@@V?$Local@VValue@v8@@@3@AEBV?$PropertyCallbackInfo@X@Nan@@@Z 000000018006536c     njsOracle.obj
 0004:00000378       $pdata$?GetExtendedMetaData@Oracledb@@CAXV?$Local@VString@v8@@@v8@@AEBV?$PropertyCallbackInfo@VValue@v8@@@Nan@@@Z 0000000180065378     njsOracle.obj
 0004:00000384       $pdata$?SetExtendedMetaData@Oracledb@@CAXV?$Local@VString@v8@@@v8@@V?$Local@VValue@v8@@@3@AEBV?$PropertyCallbackInfo@X@Nan@@@Z 0000000180065384     njsOracle.obj
 0004:00000390       $pdata$?SetVersion@Oracledb@@CAXV?$Local@VString@v8@@@v8@@V?$Local@VValue@v8@@@3@AEBV?$PropertyCallbackInfo@X@Nan@@@Z 0000000180065390     njsOracle.obj
 0004:0000039c       $pdata$?GetConnectionClass@Oracledb@@CAXV?$Local@VString@v8@@@v8@@AEBV?$PropertyCallbackInfo@VValue@v8@@@Nan@@@Z 000000018006539c     njsOracle.obj
 0004:000003a8       $pdata$?SetConnectionClass@Oracledb@@CAXV?$Local@VString@v8@@@v8@@V?$Local@VValue@v8@@@3@AEBV?$PropertyCallbackInfo@X@Nan@@@Z 00000001800653a8     njsOracle.obj
 0004:000003b4       $pdata$?GetExternalAuth@Oracledb@@CAXV?$Local@VString@v8@@@v8@@AEBV?$PropertyCallbackInfo@VValue@v8@@@Nan@@@Z 00000001800653b4     njsOracle.obj
 0004:000003c0       $pdata$?SetExternalAuth@Oracledb@@CAXV?$Local@VString@v8@@@v8@@V?$Local@VValue@v8@@@3@AEBV?$PropertyCallbackInfo@X@Nan@@@Z 00000001800653c0     njsOracle.obj
 0004:000003cc       $pdata$?GetLobPrefetchSize@Oracledb@@CAXV?$Local@VString@v8@@@v8@@AEBV?$PropertyCallbackInfo@VValue@v8@@@Nan@@@Z 00000001800653cc     njsOracle.obj
 0004:000003d8       $pdata$?SetLobPrefetchSize@Oracledb@@CAXV?$Local@VString@v8@@@v8@@V?$Local@VValue@v8@@@3@AEBV?$PropertyCallbackInfo@X@Nan@@@Z 00000001800653d8     njsOracle.obj
 0004:000003e4       $pdata$?GetFetchAsString@Oracledb@@CAXV?$Local@VString@v8@@@v8@@AEBV?$PropertyCallbackInfo@VValue@v8@@@Nan@@@Z 00000001800653e4     njsOracle.obj
 0004:000003f0       $pdata$?SetFetchAsString@Oracledb@@CAXV?$Local@VString@v8@@@v8@@V?$Local@VValue@v8@@@3@AEBV?$PropertyCallbackInfo@X@Nan@@@Z 00000001800653f0     njsOracle.obj
 0004:000003fc       $pdata$?GetOracleClientVersion@Oracledb@@CAXV?$Local@VString@v8@@@v8@@AEBV?$PropertyCallbackInfo@VValue@v8@@@Nan@@@Z 00000001800653fc     njsOracle.obj
 0004:00000408       $pdata$?SetOracleClientVersion@Oracledb@@CAXV?$Local@VString@v8@@@v8@@V?$Local@VValue@v8@@@3@AEBV?$PropertyCallbackInfo@X@Nan@@@Z 0000000180065408     njsOracle.obj
 0004:00000414       $pdata$?GetConnection@Oracledb@@CAXAEBV?$FunctionCallbackInfo@VValue@v8@@@Nan@@@Z 0000000180065414     njsOracle.obj
 0004:00000420       $pdata$??_GconnectionBaton@@QEAAPEAXI@Z 0000000180065420     njsOracle.obj
 0004:0000042c       $pdata$?Async_GetConnection@Oracledb@@CAXPEAUuv_work_s@@@Z 000000018006542c     njsOracle.obj
 0004:00000438       $pdata$?Async_AfterGetConnection@Oracledb@@CAXPEAUuv_work_s@@@Z 0000000180065438     njsOracle.obj
 0004:00000444       $pdata$?CreatePool@Oracledb@@CAXAEBV?$FunctionCallbackInfo@VValue@v8@@@Nan@@@Z 0000000180065444     njsOracle.obj
 0004:00000450       $pdata$?Async_CreatePool@Oracledb@@CAXPEAUuv_work_s@@@Z 0000000180065450     njsOracle.obj
 0004:0000045c       $pdata$?Async_AfterCreatePool@Oracledb@@CAXPEAUuv_work_s@@@Z 000000018006545c     njsOracle.obj
 0004:00000468       $pdata$init                0000000180065468     njsOracle.obj
 0004:00000474       $pdata$?getFetchAsStringTypes@Oracledb@@QEBAPEBW4DataType@@XZ 0000000180065474     njsOracle.obj
 0004:00000480       $pdata$2$?getFetchAsStringTypes@Oracledb@@QEBAPEBW4DataType@@XZ 0000000180065480     njsOracle.obj
 0004:0000048c       $pdata$3$?getFetchAsStringTypes@Oracledb@@QEBAPEBW4DataType@@XZ 000000018006548c     njsOracle.obj
 0004:00000498       $pdata$??1?$_Yarn@D@std@@QEAA@XZ 0000000180065498     njsOracle.obj
 0004:00000498       $pdata$??1?$_Yarn@_W@std@@QEAA@XZ 0000000180065498     njsOracle.obj
 0004:000004a4       $pdata$??4?$basic_string@DU?$char_traits@D@std@@V?$allocator@D@2@@std@@QEAAAEAV01@AEBV01@@Z 00000001800654a4     njsOracle.obj
 0004:000004b0       $pdata$??1MetaInfo@@QEAA@XZ 00000001800654b0     njsConnection.obj
 0004:000004b0       $pdata$??1?$basic_string@DU?$char_traits@D@std@@V?$allocator@D@2@@std@@QEAA@XZ 00000001800654b0     njsOracle.obj
 0004:000004b0       $pdata$??1fetchInfo@@QEAA@XZ 00000001800654b0     njsConnection.obj
 0004:000004bc       $pdata$??4?$basic_string@DU?$char_traits@D@std@@V?$allocator@D@2@@std@@QEAAAEAV01@$$QEAV01@@Z 00000001800654bc     njsOracle.obj
 0004:000004c8       $pdata$??0?$basic_string@DU?$char_traits@D@std@@V?$allocator@D@2@@std@@QEAA@$$QEAV01@@Z 00000001800654c8     njsOracle.obj
 0004:000004d4       $pdata$??0?$basic_string@DU?$char_traits@D@std@@V?$allocator@D@2@@std@@QEAA@AEBV01@@Z 00000001800654d4     njsOracle.obj
 0004:000004e0       $pdata$?str@?$basic_stringstream@DU?$char_traits@D@std@@V?$allocator@D@2@@std@@QEBA?AV?$basic_string@DU?$char_traits@D@std@@V?$allocator@D@2@@2@XZ 00000001800654e0     njsOracle.obj
 0004:000004ec       $pdata$??1?$basic_stringstream@DU?$char_traits@D@std@@V?$allocator@D@2@@std@@UEAA@XZ 00000001800654ec     njsOracle.obj
 0004:000004f8       $pdata$??0?$basic_stringstream@DU?$char_traits@D@std@@V?$allocator@D@2@@std@@QEAA@H@Z 00000001800654f8     njsOracle.obj
 0004:00000504       $pdata$?seekpos@?$basic_stringbuf@DU?$char_traits@D@std@@V?$allocator@D@2@@std@@MEAA?AV?$fpos@U_Mbstatet@@@2@V32@H@Z 0000000180065504     njsOracle.obj
 0004:00000510       $pdata$?seekoff@?$basic_stringbuf@DU?$char_traits@D@std@@V?$allocator@D@2@@std@@MEAA?AV?$fpos@U_Mbstatet@@@2@_JHH@Z 0000000180065510     njsOracle.obj
 0004:0000051c       $pdata$?overflow@?$basic_stringbuf@DU?$char_traits@D@std@@V?$allocator@D@2@@std@@MEAAHH@Z 000000018006551c     njsOracle.obj
 0004:00000528       $pdata$0$?overflow@?$basic_stringbuf@DU?$char_traits@D@std@@V?$allocator@D@2@@std@@MEAAHH@Z 0000000180065528     njsOracle.obj
 0004:00000534       $pdata$6$?overflow@?$basic_stringbuf@DU?$char_traits@D@std@@V?$allocator@D@2@@std@@MEAAHH@Z 0000000180065534     njsOracle.obj
 0004:00000540       $pdata$7$?overflow@?$basic_stringbuf@DU?$char_traits@D@std@@V?$allocator@D@2@@std@@MEAAHH@Z 0000000180065540     njsOracle.obj
 0004:0000054c       $pdata$??6?$basic_ostream@DU?$char_traits@D@std@@@std@@QEAAAEAV01@H@Z 000000018006554c     njsOracle.obj
 0004:00000558       $pdata$?xsputn@?$basic_streambuf@DU?$char_traits@D@std@@@std@@MEAA_JPEBD_J@Z 0000000180065558     njsOracle.obj
 0004:00000564       $pdata$0$?xsputn@?$basic_streambuf@DU?$char_traits@D@std@@@std@@MEAA_JPEBD_J@Z 0000000180065564     njsOracle.obj
 0004:00000570       $pdata$1$?xsputn@?$basic_streambuf@DU?$char_traits@D@std@@@std@@MEAA_JPEBD_J@Z 0000000180065570     njsOracle.obj
 0004:0000057c       $pdata$?xsgetn@?$basic_streambuf@DU?$char_traits@D@std@@@std@@MEAA_JPEAD_J@Z 000000018006557c     njsOracle.obj
 0004:00000588       $pdata$1$?xsgetn@?$basic_streambuf@DU?$char_traits@D@std@@@std@@MEAA_JPEAD_J@Z 0000000180065588     njsOracle.obj
 0004:00000594       $pdata$2$?xsgetn@?$basic_streambuf@DU?$char_traits@D@std@@@std@@MEAA_JPEAD_J@Z 0000000180065594     njsOracle.obj
 0004:000005a0       $pdata$3$?xsgetn@?$basic_streambuf@DU?$char_traits@D@std@@@std@@MEAA_JPEAD_J@Z 00000001800655a0     njsOracle.obj
 0004:000005ac       $pdata$?uflow@?$basic_streambuf@DU?$char_traits@D@std@@@std@@MEAAHXZ 00000001800655ac     njsOracle.obj
 0004:000005b8       $pdata$??1?$basic_streambuf@DU?$char_traits@D@std@@@std@@UEAA@XZ 00000001800655b8     njsOracle.obj
 0004:000005c4       $pdata$??_G?$basic_stringstream@DU?$char_traits@D@std@@V?$allocator@D@2@@std@@UEAAPEAXI@Z 00000001800655c4     njsOracle.obj
 0004:000005d0       $pdata$??_G?$basic_stringbuf@DU?$char_traits@D@std@@V?$allocator@D@2@@std@@UEAAPEAXI@Z 00000001800655d0     njsOracle.obj
 0004:000005dc       $pdata$??_G?$basic_iostream@DU?$char_traits@D@std@@@std@@UEAAPEAXI@Z 00000001800655dc     njsOracle.obj
 0004:000005e8       $pdata$??_G?$basic_ostream@DU?$char_traits@D@std@@@std@@UEAAPEAXI@Z 00000001800655e8     njsOracle.obj
 0004:000005f4       $pdata$??_G?$basic_istream@DU?$char_traits@D@std@@@std@@UEAAPEAXI@Z 00000001800655f4     njsOracle.obj
 0004:00000600       $pdata$??_G?$basic_streambuf@DU?$char_traits@D@std@@@std@@UEAAPEAXI@Z 0000000180065600     njsOracle.obj
 0004:0000060c       $pdata$??_Glocale@std@@QEAAPEAXI@Z 000000018006560c     njsOracle.obj
 0004:00000618       $pdata$??_G?$basic_ios@DU?$char_traits@D@std@@@std@@UEAAPEAXI@Z 0000000180065618     njsOracle.obj
 0004:00000624       $pdata$??1sentry@?$basic_ostream@DU?$char_traits@D@std@@@std@@QEAA@XZ 0000000180065624     njsOracle.obj
 0004:00000630       $pdata$??0sentry@?$basic_ostream@DU?$char_traits@D@std@@@std@@QEAA@AEAV12@@Z 0000000180065630     njsOracle.obj
 0004:0000063c       $pdata$?do_put@?$num_put@DV?$ostreambuf_iterator@DU?$char_traits@D@std@@@std@@@std@@MEBA?AV?$ostreambuf_iterator@DU?$char_traits@D@std@@@2@V32@AEAVios_base@2@DPEBX@Z 000000018006563c     njsOracle.obj
 0004:00000648       $pdata$?do_put@?$num_put@DV?$ostreambuf_iterator@DU?$char_traits@D@std@@@std@@@std@@MEBA?AV?$ostreambuf_iterator@DU?$char_traits@D@std@@@2@V32@AEAVios_base@2@DO@Z 0000000180065648     njsOracle.obj
 0004:00000654       $pdata$?do_put@?$num_put@DV?$ostreambuf_iterator@DU?$char_traits@D@std@@@std@@@std@@MEBA?AV?$ostreambuf_iterator@DU?$char_traits@D@std@@@2@V32@AEAVios_base@2@DN@Z 0000000180065654     njsOracle.obj
 0004:00000660       $pdata$?do_put@?$num_put@DV?$ostreambuf_iterator@DU?$char_traits@D@std@@@std@@@std@@MEBA?AV?$ostreambuf_iterator@DU?$char_traits@D@std@@@2@V32@AEAVios_base@2@D_K@Z 0000000180065660     njsOracle.obj
 0004:0000066c       $pdata$?do_put@?$num_put@DV?$ostreambuf_iterator@DU?$char_traits@D@std@@@std@@@std@@MEBA?AV?$ostreambuf_iterator@DU?$char_traits@D@std@@@2@V32@AEAVios_base@2@D_J@Z 000000018006566c     njsOracle.obj
 0004:00000678       $pdata$?do_put@?$num_put@DV?$ostreambuf_iterator@DU?$char_traits@D@std@@@std@@@std@@MEBA?AV?$ostreambuf_iterator@DU?$char_traits@D@std@@@2@V32@AEAVios_base@2@DK@Z 0000000180065678     njsOracle.obj
 0004:00000684       $pdata$?do_put@?$num_put@DV?$ostreambuf_iterator@DU?$char_traits@D@std@@@std@@@std@@MEBA?AV?$ostreambuf_iterator@DU?$char_traits@D@std@@@2@V32@AEAVios_base@2@DJ@Z 0000000180065684     njsOracle.obj
 0004:00000690       $pdata$?do_put@?$num_put@DV?$ostreambuf_iterator@DU?$char_traits@D@std@@@std@@@std@@MEBA?AV?$ostreambuf_iterator@DU?$char_traits@D@std@@@2@V32@AEAVios_base@2@D_N@Z 0000000180065690     njsOracle.obj
 0004:0000069c       $pdata$?assign@?$basic_string@DU?$char_traits@D@std@@V?$allocator@D@2@@std@@QEAAAEAV12@_KD@Z 000000018006569c     njsOracle.obj
 0004:000006a8       $pdata$?assign@?$basic_string@DU?$char_traits@D@std@@V?$allocator@D@2@@std@@QEAAAEAV12@PEBD_K@Z 00000001800656a8     njsOracle.obj
 0004:000006b4       $pdata$?assign@?$basic_string@DU?$char_traits@D@std@@V?$allocator@D@2@@std@@QEAAAEAV12@AEBV12@_K1@Z 00000001800656b4     njsOracle.obj
 0004:000006c0       $pdata$?append@?$basic_string@DU?$char_traits@D@std@@V?$allocator@D@2@@std@@QEAAAEAV12@PEBD_K@Z 00000001800656c0     njsOracle.obj
 0004:000006cc       $pdata$0$?append@?$basic_string@DU?$char_traits@D@std@@V?$allocator@D@2@@std@@QEAAAEAV12@PEBD_K@Z 00000001800656cc     njsOracle.obj
 0004:000006d8       $pdata$1$?append@?$basic_string@DU?$char_traits@D@std@@V?$allocator@D@2@@std@@QEAAAEAV12@PEBD_K@Z 00000001800656d8     njsOracle.obj
 0004:000006e4       $pdata$2$?append@?$basic_string@DU?$char_traits@D@std@@V?$allocator@D@2@@std@@QEAAAEAV12@PEBD_K@Z 00000001800656e4     njsOracle.obj
 0004:000006f0       $pdata$?append@?$basic_string@DU?$char_traits@D@std@@V?$allocator@D@2@@std@@QEAAAEAV12@AEBV12@_K1@Z 00000001800656f0     njsOracle.obj
 0004:000006fc       $pdata$0$?append@?$basic_string@DU?$char_traits@D@std@@V?$allocator@D@2@@std@@QEAAAEAV12@AEBV12@_K1@Z 00000001800656fc     njsOracle.obj
 0004:00000708       $pdata$1$?append@?$basic_string@DU?$char_traits@D@std@@V?$allocator@D@2@@std@@QEAAAEAV12@AEBV12@_K1@Z 0000000180065708     njsOracle.obj
 0004:00000714       $pdata$2$?append@?$basic_string@DU?$char_traits@D@std@@V?$allocator@D@2@@std@@QEAAAEAV12@AEBV12@_K1@Z 0000000180065714     njsOracle.obj
 0004:00000720       $pdata$?_Assign_rv@?$basic_string@DU?$char_traits@D@std@@V?$allocator@D@2@@std@@QEAAX$$QEAV12@@Z 0000000180065720     njsOracle.obj
 0004:0000072c       $pdata$?_Tidy@?$basic_stringbuf@DU?$char_traits@D@std@@V?$allocator@D@2@@std@@IEAAXXZ 000000018006572c     njsOracle.obj
 0004:00000738       $pdata$?str@?$basic_stringbuf@DU?$char_traits@D@std@@V?$allocator@D@2@@std@@QEBA?AV?$basic_string@DU?$char_traits@D@std@@V?$allocator@D@2@@2@XZ 0000000180065738     njsOracle.obj
 0004:00000744       $pdata$?allocate@?$allocator@D@std@@QEAAPEAD_K@Z 0000000180065744     njsOracle.obj
 0004:00000744       $pdata$?allocate@?$_Wrap_alloc@V?$allocator@D@std@@@std@@QEAAPEAD_K@Z 0000000180065744     njsOracle.obj
 0004:00000750       $pdata$?deallocate@?$_Wrap_alloc@V?$allocator@D@std@@@std@@QEAAXPEAD_K@Z 0000000180065750     njsOracle.obj
 0004:00000750       $pdata$?deallocate@?$allocator@D@std@@QEAAXPEAD_K@Z 0000000180065750     njsOracle.obj
 0004:0000075c       $pdata$??0?$basic_iostream@DU?$char_traits@D@std@@@std@@QEAA@PEAV?$basic_streambuf@DU?$char_traits@D@std@@@1@@Z 000000018006575c     njsOracle.obj
 0004:00000768       $pdata$??_G?$num_put@DV?$ostreambuf_iterator@DU?$char_traits@D@std@@@std@@@std@@MEAAPEAXI@Z 0000000180065768     njsOracle.obj
 0004:00000774       $pdata$?do_truename@?$numpunct@D@std@@MEBA?AV?$basic_string@DU?$char_traits@D@std@@V?$allocator@D@2@@2@XZ 0000000180065774     njsOracle.obj
 0004:00000780       $pdata$?do_falsename@?$numpunct@D@std@@MEBA?AV?$basic_string@DU?$char_traits@D@std@@V?$allocator@D@2@@2@XZ 0000000180065780     njsOracle.obj
 0004:0000078c       $pdata$?do_grouping@?$numpunct@D@std@@MEBA?AV?$basic_string@DU?$char_traits@D@std@@V?$allocator@D@2@@2@XZ 000000018006578c     njsOracle.obj
 0004:00000798       $pdata$?truename@?$numpunct@D@std@@QEBA?AV?$basic_string@DU?$char_traits@D@std@@V?$allocator@D@2@@2@XZ 0000000180065798     njsOracle.obj
 0004:000007a4       $pdata$?falsename@?$numpunct@D@std@@QEBA?AV?$basic_string@DU?$char_traits@D@std@@V?$allocator@D@2@@2@XZ 00000001800657a4     njsOracle.obj
 0004:000007b0       $pdata$??1_Sentry_base@?$basic_ostream@DU?$char_traits@D@std@@@std@@QEAA@XZ 00000001800657b0     njsOracle.obj
 0004:000007bc       $pdata$?_Iput@?$num_put@DV?$ostreambuf_iterator@DU?$char_traits@D@std@@@std@@@std@@AEBA?AV?$ostreambuf_iterator@DU?$char_traits@D@std@@@2@V32@AEAVios_base@2@DPEAD_K@Z 00000001800657bc     njsOracle.obj
 0004:000007c8       $pdata$?_Fput@?$num_put@DV?$ostreambuf_iterator@DU?$char_traits@D@std@@@std@@@std@@AEBA?AV?$ostreambuf_iterator@DU?$char_traits@D@std@@@2@V32@AEAVios_base@2@DPEBD_K@Z 00000001800657c8     njsOracle.obj
 0004:000007d4       $pdata$?erase@?$basic_string@DU?$char_traits@D@std@@V?$allocator@D@2@@std@@QEAAAEAV12@_K0@Z 00000001800657d4     njsOracle.obj
 0004:000007e0       $pdata$?append@?$basic_string@DU?$char_traits@D@std@@V?$allocator@D@2@@std@@QEAAAEAV12@_KD@Z 00000001800657e0     njsOracle.obj
 0004:000007ec       $pdata$0$?append@?$basic_string@DU?$char_traits@D@std@@V?$allocator@D@2@@std@@QEAAAEAV12@_KD@Z 00000001800657ec     njsOracle.obj
 0004:000007f8       $pdata$1$?append@?$basic_string@DU?$char_traits@D@std@@V?$allocator@D@2@@std@@QEAAAEAV12@_KD@Z 00000001800657f8     njsOracle.obj
 0004:00000804       $pdata$2$?append@?$basic_string@DU?$char_traits@D@std@@V?$allocator@D@2@@std@@QEAAAEAV12@_KD@Z 0000000180065804     njsOracle.obj
 0004:00000810       $pdata$?flush@?$basic_ostream@DU?$char_traits@D@std@@@std@@QEAAAEAV12@XZ 0000000180065810     njsOracle.obj
 0004:0000081c       $pdata$??0?$basic_streambuf@DU?$char_traits@D@std@@@std@@IEAA@XZ 000000018006581c     njsOracle.obj
 0004:00000828       $pdata$??_G?$numpunct@D@std@@MEAAPEAXI@Z 0000000180065828     njsOracle.obj
 0004:00000834       $pdata$?grouping@?$numpunct@D@std@@QEBA?AV?$basic_string@DU?$char_traits@D@std@@V?$allocator@D@2@@2@XZ 0000000180065834     njsOracle.obj
 0004:00000840       $pdata$?_Copy@?$basic_string@DU?$char_traits@D@std@@V?$allocator@D@2@@std@@QEAAX_K0@Z 0000000180065840     njsOracle.obj
 0004:0000084c       $pdata$?insert@?$basic_string@DU?$char_traits@D@std@@V?$allocator@D@2@@std@@QEAAAEAV12@_K0D@Z 000000018006584c     njsOracle.obj
 0004:00000858       $pdata$0$?insert@?$basic_string@DU?$char_traits@D@std@@V?$allocator@D@2@@std@@QEAAAEAV12@_K0D@Z 0000000180065858     njsOracle.obj
 0004:00000864       $pdata$1$?insert@?$basic_string@DU?$char_traits@D@std@@V?$allocator@D@2@@std@@QEAAAEAV12@_K0D@Z 0000000180065864     njsOracle.obj
 0004:00000870       $pdata$2$?insert@?$basic_string@DU?$char_traits@D@std@@V?$allocator@D@2@@std@@QEAAAEAV12@_K0D@Z 0000000180065870     njsOracle.obj
 0004:0000087c       $pdata$?init@?$basic_ios@DU?$char_traits@D@std@@@std@@IEAAXPEAV?$basic_streambuf@DU?$char_traits@D@std@@@2@_N@Z 000000018006587c     njsOracle.obj
 0004:00000888       $pdata$??$use_facet@V?$ctype@D@std@@@std@@YAAEBV?$ctype@D@0@AEBVlocale@0@@Z 0000000180065888     njsOracle.obj
 0004:00000894       $pdata$??$_Immortalize@V_Iostream_error_category@std@@@std@@YAAEAV_Iostream_error_category@0@XZ 0000000180065894     njsOracle.obj
 0004:000008a0       $pdata$??$New@VString@v8@@V?$basic_string@DU?$char_traits@D@std@@V?$allocator@D@2@@std@@@Nan@@YA?AV?$MaybeLocal@VString@v8@@@v8@@V?$basic_string@DU?$char_traits@D@std@@V?$allocator@D@2@@std@@@Z 00000001800658a0     njsOracle.obj
 0004:000008ac       $pdata$??$?6U?$char_traits@D@std@@@std@@YAAEAV?$basic_ostream@DU?$char_traits@D@std@@@0@AEAV10@PEBD@Z 00000001800658ac     njsOracle.obj
 0004:000008b8       $pdata$??$Unwrap@VResultSet@@@ObjectWrap@Nan@@SAPEAVResultSet@@V?$Local@VObject@v8@@@v8@@@Z 00000001800658b8     njsConnection.obj
 0004:000008b8       $pdata$??$Unwrap@VILob@@@ObjectWrap@Nan@@SAPEAVILob@@V?$Local@VObject@v8@@@v8@@@Z 00000001800658b8     njsConnection.obj
 0004:000008b8       $pdata$??$Unwrap@VOracledb@@@ObjectWrap@Nan@@SAPEAVOracledb@@V?$Local@VObject@v8@@@v8@@@Z 00000001800658b8     njsOracle.obj
 0004:000008b8       $pdata$??$Unwrap@VPool@@@ObjectWrap@Nan@@SAPEAVPool@@V?$Local@VObject@v8@@@v8@@@Z 00000001800658b8     njsOracle.obj
 0004:000008b8       $pdata$??$Unwrap@VConnection@@@ObjectWrap@Nan@@SAPEAVConnection@@V?$Local@VObject@v8@@@v8@@@Z 00000001800658b8     njsOracle.obj
 0004:000008c4       $pdata$??$use_facet@V?$num_put@DV?$ostreambuf_iterator@DU?$char_traits@D@std@@@std@@@std@@@std@@YAAEBV?$num_put@DV?$ostreambuf_iterator@DU?$char_traits@D@std@@@std@@@0@AEBVlocale@0@@Z 00000001800658c4     njsOracle.obj
 0004:000008d0       $pdata$??$use_facet@V?$numpunct@D@std@@@std@@YAAEBV?$numpunct@D@0@AEBVlocale@0@@Z 00000001800658d0     njsOracle.obj
 0004:000008dc       $pdata$?_Getcat@?$numpunct@D@std@@SA_KPEAPEBVfacet@locale@2@PEBV42@@Z 00000001800658dc     njsOracle.obj
 0004:000008e8       $pdata$?_Getcat@?$num_put@DV?$ostreambuf_iterator@DU?$char_traits@D@std@@@std@@@std@@SA_KPEAPEBVfacet@locale@2@PEBV42@@Z 00000001800658e8     njsOracle.obj
 0004:000008f4       $pdata$?_Init@?$numpunct@D@std@@IEAAXAEBV_Locinfo@2@_N@Z 00000001800658f4     njsOracle.obj
 0004:00000900       $pdata$??0poolBaton@@QEAA@V?$Local@VFunction@v8@@@v8@@V?$Local@VObject@v8@@@2@@Z 0000000180065900     njsPool.obj
 0004:0000090c       $pdata$??1poolBaton@@QEAA@XZ 000000018006590c     njsPool.obj
 0004:00000918       $pdata$??_GPool@@EEAAPEAXI@Z 0000000180065918     njsPool.obj
 0004:00000924       $pdata$??1Pool@@EEAA@XZ    0000000180065924     njsPool.obj
 0004:00000924       $pdata$??1Connection@@EEAA@XZ 0000000180065924     njsConnection.obj
 0004:00000924       $pdata$??1ResultSet@@UEAA@XZ 0000000180065924     njsResultSet.obj
 0004:00000930       $pdata$?Init@Pool@@SAXV?$Local@VObject@v8@@@v8@@@Z 0000000180065930     njsPool.obj
 0004:0000093c       $pdata$?New@Pool@@CAXAEBV?$FunctionCallbackInfo@VValue@v8@@@Nan@@@Z 000000018006593c     njsPool.obj
 0004:00000948       $pdata$?getPoolProperty@Pool@@CA?AV?$Local@VPrimitive@v8@@@v8@@PEAV1@I@Z 0000000180065948     njsPool.obj
 0004:00000954       $pdata$?GetPoolMin@Pool@@CAXV?$Local@VString@v8@@@v8@@AEBV?$PropertyCallbackInfo@VValue@v8@@@Nan@@@Z 0000000180065954     njsPool.obj
 0004:00000960       $pdata$?GetPoolMax@Pool@@CAXV?$Local@VString@v8@@@v8@@AEBV?$PropertyCallbackInfo@VValue@v8@@@Nan@@@Z 0000000180065960     njsPool.obj
 0004:0000096c       $pdata$?GetPoolIncrement@Pool@@CAXV?$Local@VString@v8@@@v8@@AEBV?$PropertyCallbackInfo@VValue@v8@@@Nan@@@Z 000000018006596c     njsPool.obj
 0004:00000978       $pdata$?GetPoolTimeout@Pool@@CAXV?$Local@VString@v8@@@v8@@AEBV?$PropertyCallbackInfo@VValue@v8@@@Nan@@@Z 0000000180065978     njsPool.obj
 0004:00000984       $pdata$?GetConnectionsOpen@Pool@@CAXV?$Local@VString@v8@@@v8@@AEBV?$PropertyCallbackInfo@VValue@v8@@@Nan@@@Z 0000000180065984     njsPool.obj
 0004:00000990       $pdata$?GetConnectionsInUse@Pool@@CAXV?$Local@VString@v8@@@v8@@AEBV?$PropertyCallbackInfo@VValue@v8@@@Nan@@@Z 0000000180065990     njsPool.obj
 0004:0000099c       $pdata$?GetStmtCacheSize@Pool@@CAXV?$Local@VString@v8@@@v8@@AEBV?$PropertyCallbackInfo@VValue@v8@@@Nan@@@Z 000000018006599c     njsPool.obj
 0004:000009a8       $pdata$?setPoolProperty@Pool@@CAXPEAV1@V?$basic_string@DU?$char_traits@D@std@@V?$allocator@D@2@@std@@@Z 00000001800659a8     njsPool.obj
 0004:000009b4       $pdata$?SetPoolMin@Pool@@CAXV?$Local@VString@v8@@@v8@@V?$Local@VValue@v8@@@3@AEBV?$PropertyCallbackInfo@X@Nan@@@Z 00000001800659b4     njsPool.obj
 0004:000009c0       $pdata$?SetPoolMax@Pool@@CAXV?$Local@VString@v8@@@v8@@V?$Local@VValue@v8@@@3@AEBV?$PropertyCallbackInfo@X@Nan@@@Z 00000001800659c0     njsPool.obj
 0004:000009cc       $pdata$?SetPoolIncrement@Pool@@CAXV?$Local@VString@v8@@@v8@@V?$Local@VValue@v8@@@3@AEBV?$PropertyCallbackInfo@X@Nan@@@Z 00000001800659cc     njsPool.obj
 0004:000009d8       $pdata$?SetPoolTimeout@Pool@@CAXV?$Local@VString@v8@@@v8@@V?$Local@VValue@v8@@@3@AEBV?$PropertyCallbackInfo@X@Nan@@@Z 00000001800659d8     njsPool.obj
 0004:000009e4       $pdata$?SetConnectionsOpen@Pool@@CAXV?$Local@VString@v8@@@v8@@V?$Local@VValue@v8@@@3@AEBV?$PropertyCallbackInfo@X@Nan@@@Z 00000001800659e4     njsPool.obj
 0004:000009f0       $pdata$?SetConnectionsInUse@Pool@@CAXV?$Local@VString@v8@@@v8@@V?$Local@VValue@v8@@@3@AEBV?$PropertyCallbackInfo@X@Nan@@@Z 00000001800659f0     njsPool.obj
 0004:000009fc       $pdata$?SetStmtCacheSize@Pool@@CAXV?$Local@VString@v8@@@v8@@V?$Local@VValue@v8@@@3@AEBV?$PropertyCallbackInfo@X@Nan@@@Z 00000001800659fc     njsPool.obj
 0004:00000a08       $pdata$?GetConnection@Pool@@CAXAEBV?$FunctionCallbackInfo@VValue@v8@@@Nan@@@Z 0000000180065a08     njsPool.obj
 0004:00000a14       $pdata$?Async_GetConnection@Pool@@CAXPEAUuv_work_s@@@Z 0000000180065a14     njsPool.obj
 0004:00000a20       $pdata$?Async_AfterGetConnection@Pool@@CAXPEAUuv_work_s@@@Z 0000000180065a20     njsPool.obj
 0004:00000a2c       $pdata$?Terminate@Pool@@CAXAEBV?$FunctionCallbackInfo@VValue@v8@@@Nan@@@Z 0000000180065a2c     njsPool.obj
 0004:00000a38       $pdata$?Async_Terminate@Pool@@CAXPEAUuv_work_s@@@Z 0000000180065a38     njsPool.obj
 0004:00000a44       $pdata$?Async_AfterTerminate@Pool@@CAXPEAUuv_work_s@@@Z 0000000180065a44     njsPool.obj
 0004:00000a50       $pdata$??0MetaInfo@@QEAA@XZ 0000000180065a50     njsConnection.obj
 0004:00000a5c       $pdata$??0fetchInfo@@QEAA@XZ 0000000180065a5c     njsConnection.obj
 0004:00000a68       $pdata$??0eBaton@@QEAA@AEAIV?$Local@VFunction@v8@@@v8@@V?$Local@VObject@v8@@@2@@Z 0000000180065a68     njsConnection.obj
 0004:00000a74       $pdata$??1eBaton@@QEAA@XZ  0000000180065a74     njsConnection.obj
 0004:00000a80       $pdata$??_EMetaInfo@@QEAAPEAXI@Z 0000000180065a80     njsConnection.obj
 0004:00000a8c       $pdata$??_EfetchInfo@@QEAAPEAXI@Z 0000000180065a8c     njsConnection.obj
 0004:00000a98       $pdata$?GetValueType@Connection@@CA?AW4ValueType@@V?$Local@VValue@v8@@@v8@@@Z 0000000180065a98     njsConnection.obj
 0004:00000aa4       $pdata$??_GConnection@@EEAAPEAXI@Z 0000000180065aa4     njsConnection.obj
 0004:00000ab0       $pdata$?Init@Connection@@SAXV?$Local@VObject@v8@@@v8@@@Z 0000000180065ab0     njsConnection.obj
 0004:00000abc       $pdata$?New@Connection@@CAXAEBV?$FunctionCallbackInfo@VValue@v8@@@Nan@@@Z 0000000180065abc     njsConnection.obj
 0004:00000ac8       $pdata$?connectionPropertyException@Connection@@CAXPEAV1@W4NJSErrorType@@V?$basic_string@DU?$char_traits@D@std@@V?$allocator@D@2@@std@@@Z 0000000180065ac8     njsConnection.obj
 0004:00000ad4       $pdata$?GetStmtCacheSize@Connection@@CAXV?$Local@VString@v8@@@v8@@AEBV?$PropertyCallbackInfo@VValue@v8@@@Nan@@@Z 0000000180065ad4     njsConnection.obj
 0004:00000ae0       $pdata$?SetStmtCacheSize@Connection@@CAXV?$Local@VString@v8@@@v8@@V?$Local@VValue@v8@@@3@AEBV?$PropertyCallbackInfo@X@Nan@@@Z 0000000180065ae0     njsConnection.obj
 0004:00000aec       $pdata$?SetClientId@Connection@@CAXV?$Local@VString@v8@@@v8@@V?$Local@VValue@v8@@@3@AEBV?$PropertyCallbackInfo@X@Nan@@@Z 0000000180065aec     njsConnection.obj
 0004:00000af8       $pdata$?SetModule@Connection@@CAXV?$Local@VString@v8@@@v8@@V?$Local@VValue@v8@@@3@AEBV?$PropertyCallbackInfo@X@Nan@@@Z 0000000180065af8     njsConnection.obj
 0004:00000b04       $pdata$?SetAction@Connection@@CAXV?$Local@VString@v8@@@v8@@V?$Local@VValue@v8@@@3@AEBV?$PropertyCallbackInfo@X@Nan@@@Z 0000000180065b04     njsConnection.obj
 0004:00000b10       $pdata$?GetOracleServerVersion@Connection@@CAXV?$Local@VString@v8@@@v8@@AEBV?$PropertyCallbackInfo@VValue@v8@@@Nan@@@Z 0000000180065b10     njsConnection.obj
 0004:00000b1c       $pdata$?SetOracleServerVersion@Connection@@CAXV?$Local@VString@v8@@@v8@@V?$Local@VValue@v8@@@3@AEBV?$PropertyCallbackInfo@X@Nan@@@Z 0000000180065b1c     njsConnection.obj
 0004:00000b28       $pdata$?Execute@Connection@@CAXAEBV?$FunctionCallbackInfo@VValue@v8@@@Nan@@@Z 0000000180065b28     njsConnection.obj
 0004:00000b34       $pdata$?ProcessBinds@Connection@@CAXAEBV?$FunctionCallbackInfo@VValue@v8@@@Nan@@IPEAUeBaton@@@Z 0000000180065b34     njsConnection.obj
 0004:00000b40       $pdata$?ProcessOptions@Connection@@CAXAEBV?$FunctionCallbackInfo@VValue@v8@@@Nan@@IPEAUeBaton@@@Z 0000000180065b40     njsConnection.obj
 0004:00000b4c       $pdata$?GetBinds@Connection@@CAXV?$Local@VObject@v8@@@v8@@PEAUeBaton@@@Z 0000000180065b4c     njsConnection.obj
 0004:00000b58       $pdata$?GetBinds@Connection@@CAXV?$Local@VArray@v8@@@v8@@PEAUeBaton@@@Z 0000000180065b58     njsConnection.obj
 0004:00000b64       $pdata$?GetBindUnit@Connection@@CAXV?$Local@VValue@v8@@@v8@@PEAUBind@@_NPEAUeBaton@@@Z 0000000180065b64     njsConnection.obj
 0004:00000b70       $pdata$?GetOutBindParams@Connection@@CAXGPEAUBind@@PEAUeBaton@@@Z 0000000180065b70     njsConnection.obj
 0004:00000b7c       $pdata$?GetInBindParams@Connection@@CAXV?$Local@VValue@v8@@@v8@@PEAUBind@@PEAUeBaton@@@Z 0000000180065b7c     njsConnection.obj
 0004:00000b88       $pdata$?GetInBindParamsScalar@Connection@@CAXV?$Local@VValue@v8@@@v8@@PEAUBind@@PEAUeBaton@@@Z 0000000180065b88     njsConnection.obj
 0004:00000b94       $pdata$?GetInBindParamsArray@Connection@@CAXV?$Local@VArray@v8@@@v8@@PEAUBind@@PEAUeBaton@@@Z 0000000180065b94     njsConnection.obj
 0004:00000ba0       $pdata$?AllocateBindArray@Connection@@CA_NGPEAUBind@@PEAUeBaton@@PEA_K@Z 0000000180065ba0     njsConnection.obj
 0004:00000bac       $pdata$?Async_Execute@Connection@@CAXPEAUuv_work_s@@@Z 0000000180065bac     njsConnection.obj
 0004:00000bb8       $pdata$?PrepareAndBind@Connection@@CAXPEAUeBaton@@@Z 0000000180065bb8     njsConnection.obj
 0004:00000bc4       $pdata$?CopyMetaData@Connection@@SAXPEAUMetaInfo@@PEAUeBaton@@PEBUMetaData@dpi@@I@Z 0000000180065bc4     njsConnection.obj
 0004:00000bd0       $pdata$?MapByName@Connection@@CAHPEAUeBaton@@AEAV?$basic_string@DU?$char_traits@D@std@@V?$allocator@D@2@@std@@AEAG@Z 0000000180065bd0     njsConnection.obj
 0004:00000bdc       $pdata$2$?MapByName@Connection@@CAHPEAUeBaton@@AEAV?$basic_string@DU?$char_traits@D@std@@V?$allocator@D@2@@std@@AEAG@Z 0000000180065bdc     njsConnection.obj
 0004:00000be8       $pdata$3$?MapByName@Connection@@CAHPEAUeBaton@@AEAV?$basic_string@DU?$char_traits@D@std@@V?$allocator@D@2@@std@@AEAG@Z 0000000180065be8     njsConnection.obj
 0004:00000bf4       $pdata$?DoDefines@Connection@@SAXPEAUeBaton@@@Z 0000000180065bf4     njsConnection.obj
 0004:00000c00       $pdata$?DoFetch@Connection@@SAXPEAUeBaton@@@Z 0000000180065c00     njsConnection.obj
 0004:00000c0c       $pdata$?Descr2Double@Connection@@CA?AW4NJSErrorType@@PEAUDefine@@II_N@Z 0000000180065c0c     njsConnection.obj
 0004:00000c18       $pdata$?Descr2protoILob@Connection@@CAXPEAUeBaton@@II@Z 0000000180065c18     njsConnection.obj
 0004:00000c24       $pdata$?Async_AfterExecute@Connection@@CAXPEAUuv_work_s@@@Z 0000000180065c24     njsConnection.obj
 0004:00000c30       $pdata$?GetMetaData@Connection@@SA?AV?$Local@VValue@v8@@@v8@@PEBUMetaInfo@@I_N@Z 0000000180065c30     njsConnection.obj
 0004:00000c3c       $pdata$?GetRows@Connection@@SA?AV?$Local@VValue@v8@@@v8@@PEAUeBaton@@@Z 0000000180065c3c     njsConnection.obj
 0004:00000c48       $pdata$?GetValue@Connection@@CA?AV?$Local@VValue@v8@@@v8@@PEAUeBaton@@_NII@Z 0000000180065c48     njsConnection.obj
 0004:00000c54       $pdata$?GetValueRefCursor@Connection@@CA?AV?$Local@VValue@v8@@@v8@@PEAUeBaton@@PEAUBind@@PEAUExtBind@@@Z 0000000180065c54     njsConnection.obj
 0004:00000c60       $pdata$?GetValueLob@Connection@@CA?AV?$Local@VValue@v8@@@v8@@PEAUeBaton@@PEAUBind@@@Z 0000000180065c60     njsConnection.obj
 0004:00000c6c       $pdata$?GetValueCommon@Connection@@CA?AV?$Local@VValue@v8@@@v8@@PEAUeBaton@@FGPEAXI@Z 0000000180065c6c     njsConnection.obj
 0004:00000c78       $pdata$?GetArrayValue@Connection@@CA?AV?$Local@VValue@v8@@@v8@@PEAUeBaton@@PEAUBind@@K@Z 0000000180065c78     njsConnection.obj
 0004:00000c84       $pdata$?GetOutBinds@Connection@@CA?AV?$Local@VValue@v8@@@v8@@PEAUeBaton@@@Z 0000000180065c84     njsConnection.obj
 0004:00000c90       $pdata$?GetOutBindArray@Connection@@CA?AV?$Local@VValue@v8@@@v8@@PEAUeBaton@@@Z 0000000180065c90     njsConnection.obj
 0004:00000c9c       $pdata$?GetOutBindObject@Connection@@CA?AV?$Local@VValue@v8@@@v8@@PEAUeBaton@@@Z 0000000180065c9c     njsConnection.obj
 0004:00000ca8       $pdata$?Release@Connection@@CAXAEBV?$FunctionCallbackInfo@VValue@v8@@@Nan@@@Z 0000000180065ca8     njsConnection.obj
 0004:00000cb4       $pdata$?Async_Release@Connection@@CAXPEAUuv_work_s@@@Z 0000000180065cb4     njsConnection.obj
 0004:00000cc0       $pdata$?Async_AfterRelease@Connection@@CAXPEAUuv_work_s@@@Z 0000000180065cc0     njsConnection.obj
 0004:00000ccc       $pdata$?Commit@Connection@@CAXAEBV?$FunctionCallbackInfo@VValue@v8@@@Nan@@@Z 0000000180065ccc     njsConnection.obj
 0004:00000cd8       $pdata$?Async_Commit@Connection@@CAXPEAUuv_work_s@@@Z 0000000180065cd8     njsConnection.obj
 0004:00000ce4       $pdata$?Async_AfterCommit@Connection@@CAXPEAUuv_work_s@@@Z 0000000180065ce4     njsConnection.obj
 0004:00000ce4       $pdata$?Async_AfterRollback@Connection@@CAXPEAUuv_work_s@@@Z 0000000180065ce4     njsConnection.obj
 0004:00000ce4       $pdata$?Async_AfterBreak@Connection@@CAXPEAUuv_work_s@@@Z 0000000180065ce4     njsConnection.obj
 0004:00000cf0       $pdata$?Rollback@Connection@@CAXAEBV?$FunctionCallbackInfo@VValue@v8@@@Nan@@@Z 0000000180065cf0     njsConnection.obj
 0004:00000cfc       $pdata$?Async_Rollback@Connection@@CAXPEAUuv_work_s@@@Z 0000000180065cfc     njsConnection.obj
 0004:00000d08       $pdata$?Break@Connection@@CAXAEBV?$FunctionCallbackInfo@VValue@v8@@@Nan@@@Z 0000000180065d08     njsConnection.obj
 0004:00000d14       $pdata$?Async_Break@Connection@@CAXPEAUuv_work_s@@@Z 0000000180065d14     njsConnection.obj
 0004:00000d20       $pdata$?v8Date2OraDate@Connection@@CAXV?$Local@VValue@v8@@@v8@@PEAUBind@@@Z 0000000180065d20     njsConnection.obj
 0004:00000d2c       $pdata$?UpdateDateValue@Connection@@CAXPEAUeBaton@@I@Z 0000000180065d2c     njsConnection.obj
 0004:00000d38       $pdata$0$?UpdateDateValue@Connection@@CAXPEAUeBaton@@I@Z 0000000180065d38     njsConnection.obj
 0004:00000d44       $pdata$1$?UpdateDateValue@Connection@@CAXPEAUeBaton@@I@Z 0000000180065d44     njsConnection.obj
 0004:00000d50       $pdata$2$?UpdateDateValue@Connection@@CAXPEAUeBaton@@I@Z 0000000180065d50     njsConnection.obj
 0004:00000d5c       $pdata$?cbDynBufferAllocate@Connection@@CAXPEAX_NII@Z 0000000180065d5c     njsConnection.obj
 0004:00000d68       $pdata$?cbDynBufferGet@Connection@@CAHPEAX_JIKKPEAPEAX22PEAPEAGPEAE@Z 0000000180065d68     njsConnection.obj
 0004:00000d74       $pdata$?NewLob@Connection@@CA?AV?$Local@VValue@v8@@@v8@@PEAUeBaton@@PEAVProtoILob@@@Z 0000000180065d74     njsConnection.obj
 0004:00000d80       $pdata$?resize@?$vector@PEAUExtBind@@V?$allocator@PEAUExtBind@@@std@@@std@@QEAAX_KAEBQEAUExtBind@@@Z 0000000180065d80     njsConnection.obj
 0004:00000d8c       $pdata$??1?$vector@PEAUBind@@V?$allocator@PEAUBind@@@std@@@std@@QEAA@XZ 0000000180065d8c     njsConnection.obj
 0004:00000d8c       $pdata$??1?$vector@PEAUExtBind@@V?$allocator@PEAUExtBind@@@std@@@std@@QEAA@XZ 0000000180065d8c     njsConnection.obj
 0004:00000d98       $pdata$?push_back@?$vector@PEAUBind@@V?$allocator@PEAUBind@@@std@@@std@@QEAAXAEBQEAUBind@@@Z 0000000180065d98     njsConnection.obj
 0004:00000da4       $pdata$?compare@?$basic_string@DU?$char_traits@D@std@@V?$allocator@D@2@@std@@QEBAHAEBV12@@Z 0000000180065da4     njsConnection.obj
 0004:00000db0       $pdata$?_Reserve@?$vector@PEAUBind@@V?$allocator@PEAUBind@@@std@@@std@@IEAAX_K@Z 0000000180065db0     njsConnection.obj
 0004:00000dbc       $pdata$?deallocate@?$_Wrap_alloc@V?$allocator@PEAUBind@@@std@@@std@@QEAAXPEAPEAUBind@@_K@Z 0000000180065dbc     njsConnection.obj
 0004:00000dbc       $pdata$?deallocate@?$_Wrap_alloc@V?$allocator@PEAUExtBind@@@std@@@std@@QEAAXPEAPEAUExtBind@@_K@Z 0000000180065dbc     njsConnection.obj
 0004:00000dc8       $pdata$?_Reallocate@?$vector@PEAUExtBind@@V?$allocator@PEAUExtBind@@@std@@@std@@IEAAX_K@Z 0000000180065dc8     njsConnection.obj
 0004:00000dc8       $pdata$?_Reallocate@?$vector@PEAUBind@@V?$allocator@PEAUBind@@@std@@@std@@IEAAX_K@Z 0000000180065dc8     njsConnection.obj
 0004:00000dd4       $pdata$?allocate@?$allocator@PEAUExtBind@@@std@@QEAAPEAPEAUExtBind@@_K@Z 0000000180065dd4     njsConnection.obj
 0004:00000dd4       $pdata$?allocate@?$allocator@PEAUBind@@@std@@QEAAPEAPEAUBind@@_K@Z 0000000180065dd4     njsConnection.obj
 0004:00000de0       $pdata$??$?HDU?$char_traits@D@std@@V?$allocator@D@1@@std@@YA?AV?$basic_string@DU?$char_traits@D@std@@V?$allocator@D@2@@0@PEBD$$QEAV10@@Z 0000000180065de0     njsConnection.obj
 0004:00000dec       $pdata$?insert@?$basic_string@DU?$char_traits@D@std@@V?$allocator@D@2@@std@@QEAAAEAV12@_KPEBD0@Z 0000000180065dec     njsConnection.obj
 0004:00000df8       $pdata$0$?insert@?$basic_string@DU?$char_traits@D@std@@V?$allocator@D@2@@std@@QEAAAEAV12@_KPEBD0@Z 0000000180065df8     njsConnection.obj
 0004:00000e04       $pdata$1$?insert@?$basic_string@DU?$char_traits@D@std@@V?$allocator@D@2@@std@@QEAAAEAV12@_KPEBD0@Z 0000000180065e04     njsConnection.obj
 0004:00000e10       $pdata$2$?insert@?$basic_string@DU?$char_traits@D@std@@V?$allocator@D@2@@std@@QEAAAEAV12@_KPEBD0@Z 0000000180065e10     njsConnection.obj
 0004:00000e1c       $pdata$?insert@?$basic_string@DU?$char_traits@D@std@@V?$allocator@D@2@@std@@QEAAAEAV12@_KAEBV12@00@Z 0000000180065e1c     njsConnection.obj
 0004:00000e28       $pdata$0$?insert@?$basic_string@DU?$char_traits@D@std@@V?$allocator@D@2@@std@@QEAAAEAV12@_KAEBV12@00@Z 0000000180065e28     njsConnection.obj
 0004:00000e34       $pdata$1$?insert@?$basic_string@DU?$char_traits@D@std@@V?$allocator@D@2@@std@@QEAAAEAV12@_KAEBV12@00@Z 0000000180065e34     njsConnection.obj
 0004:00000e40       $pdata$2$?insert@?$basic_string@DU?$char_traits@D@std@@V?$allocator@D@2@@std@@QEAAAEAV12@_KAEBV12@00@Z 0000000180065e40     njsConnection.obj
 0004:00000e4c       $pdata$3$?insert@?$basic_string@DU?$char_traits@D@std@@V?$allocator@D@2@@std@@QEAAAEAV12@_KAEBV12@00@Z 0000000180065e4c     njsConnection.obj
 0004:00000e58       $pdata$4$?insert@?$basic_string@DU?$char_traits@D@std@@V?$allocator@D@2@@std@@QEAAAEAV12@_KAEBV12@00@Z 0000000180065e58     njsConnection.obj
 0004:00000e64       $pdata$??0rsBaton@@QEAA@AEAIV?$Local@VFunction@v8@@@v8@@V?$Local@VObject@v8@@@2@2@Z 0000000180065e64     njsResultSet.obj
 0004:00000e70       $pdata$??1rsBaton@@QEAA@XZ 0000000180065e70     njsResultSet.obj
 0004:00000e7c       $pdata$??_GResultSet@@UEAAPEAXI@Z 0000000180065e7c     njsResultSet.obj
 0004:00000e88       $pdata$?setResultSet@ResultSet@@QEAAXPEAVStmt@dpi@@PEAUeBaton@@IPEBUMetaInfo@@@Z 0000000180065e88     njsResultSet.obj
 0004:00000e94       $pdata$?Init@ResultSet@@SAXV?$Local@VObject@v8@@@v8@@@Z 0000000180065e94     njsResultSet.obj
 0004:00000ea0       $pdata$?New@ResultSet@@CAXAEBV?$FunctionCallbackInfo@VValue@v8@@@Nan@@@Z 0000000180065ea0     njsResultSet.obj
 0004:00000eac       $pdata$?GetMetaData@ResultSet@@CAXV?$Local@VString@v8@@@v8@@AEBV?$PropertyCallbackInfo@VValue@v8@@@Nan@@@Z 0000000180065eac     njsResultSet.obj
 0004:00000eb8       $pdata$?SetMetaData@ResultSet@@CAXV?$Local@VString@v8@@@v8@@V?$Local@VValue@v8@@@3@AEBV?$PropertyCallbackInfo@X@Nan@@@Z 0000000180065eb8     njsResultSet.obj
 0004:00000ec4       $pdata$?GetRow@ResultSet@@CAXAEBV?$FunctionCallbackInfo@VValue@v8@@@Nan@@@Z 0000000180065ec4     njsResultSet.obj
 0004:00000ed0       $pdata$?GetRows@ResultSet@@CAXAEBV?$FunctionCallbackInfo@VValue@v8@@@Nan@@@Z 0000000180065ed0     njsResultSet.obj
 0004:00000edc       $pdata$?GetRowsCommon@ResultSet@@CAXPEAUrsBaton@@@Z 0000000180065edc     njsResultSet.obj
 0004:00000ee8       $pdata$?Async_GetRows@ResultSet@@CAXPEAUuv_work_s@@@Z 0000000180065ee8     njsResultSet.obj
 0004:00000ef4       $pdata$?Async_AfterGetRows@ResultSet@@CAXPEAUuv_work_s@@@Z 0000000180065ef4     njsResultSet.obj
 0004:00000f00       $pdata$?Close@ResultSet@@CAXAEBV?$FunctionCallbackInfo@VValue@v8@@@Nan@@@Z 0000000180065f00     njsResultSet.obj
 0004:00000f0c       $pdata$?Async_Close@ResultSet@@CAXPEAUuv_work_s@@@Z 0000000180065f0c     njsResultSet.obj
 0004:00000f18       $pdata$?Async_AfterClose@ResultSet@@CAXPEAUuv_work_s@@@Z 0000000180065f18     njsResultSet.obj
 0004:00000f24       $pdata$?clearFetchBuffer@ResultSet@@CAXPEAUDefine@@II@Z 0000000180065f24     njsResultSet.obj
 0004:00000f30       $pdata$5$?clearFetchBuffer@ResultSet@@CAXPEAUDefine@@II@Z 0000000180065f30     njsResultSet.obj
 0004:00000f3c       $pdata$6$?clearFetchBuffer@ResultSet@@CAXPEAUDefine@@II@Z 0000000180065f3c     njsResultSet.obj
 0004:00000f48       $pdata$7$?clearFetchBuffer@ResultSet@@CAXPEAUDefine@@II@Z 0000000180065f48     njsResultSet.obj
 0004:00000f54       $pdata$?getErrorMsg@NJSMessages@@SA?AV?$basic_string@DU?$char_traits@D@std@@V?$allocator@D@2@@std@@W4NJSErrorType@@ZZ 0000000180065f54     njsMessages.obj
 0004:00000f60       $pdata$??0LobBaton@@QEAA@AEAIV?$Local@VFunction@v8@@@v8@@V?$Local@VObject@v8@@@2@@Z 0000000180065f60     njsIntLob.obj
 0004:00000f6c       $pdata$??0LobBaton@@QEAA@AEAIV?$Local@VObject@v8@@@v8@@V?$Local@VFunction@v8@@@2@1@Z 0000000180065f6c     njsIntLob.obj
 0004:00000f78       $pdata$??1LobBaton@@QEAA@XZ 0000000180065f78     njsIntLob.obj
 0004:00000f84       $pdata$??_GILob@@EEAAPEAXI@Z 0000000180065f84     njsIntLob.obj
 0004:00000f90       $pdata$??1ILob@@EEAA@XZ    0000000180065f90     njsIntLob.obj
 0004:00000f9c       $pdata$?cleanup@ILob@@AEAAXXZ 0000000180065f9c     njsIntLob.obj
 0004:00000fa8       $pdata$?setILob@ILob@@QEAAXPEAUeBaton@@PEAVProtoILob@@@Z 0000000180065fa8     njsIntLob.obj
 0004:00000fb4       $pdata$?Init@ILob@@SAXV?$Local@VObject@v8@@@v8@@@Z 0000000180065fb4     njsIntLob.obj
 0004:00000fc0       $pdata$?New@ILob@@CAXAEBV?$FunctionCallbackInfo@VValue@v8@@@Nan@@@Z 0000000180065fc0     njsIntLob.obj
 0004:00000fcc       $pdata$?Release@ILob@@CAXAEBV?$FunctionCallbackInfo@VValue@v8@@@Nan@@@Z 0000000180065fcc     njsIntLob.obj
 0004:00000fd8       $pdata$?lobPropertyException@ILob@@CAXPEAV1@W4NJSErrorType@@V?$basic_string@DU?$char_traits@D@std@@V?$allocator@D@2@@std@@@Z 0000000180065fd8     njsIntLob.obj
 0004:00000fe4       $pdata$?GetChunkSize@ILob@@CAXV?$Local@VString@v8@@@v8@@AEBV?$PropertyCallbackInfo@VValue@v8@@@Nan@@@Z 0000000180065fe4     njsIntLob.obj
 0004:00000ff0       $pdata$?SetChunkSize@ILob@@CAXV?$Local@VString@v8@@@v8@@V?$Local@VValue@v8@@@3@AEBV?$PropertyCallbackInfo@X@Nan@@@Z 0000000180065ff0     njsIntLob.obj
 0004:00000ffc       $pdata$?GetLength@ILob@@CAXV?$Local@VString@v8@@@v8@@AEBV?$PropertyCallbackInfo@VValue@v8@@@Nan@@@Z 0000000180065ffc     njsIntLob.obj
 0004:00001008       $pdata$?SetLength@ILob@@CAXV?$Local@VString@v8@@@v8@@V?$Local@VValue@v8@@@3@AEBV?$PropertyCallbackInfo@X@Nan@@@Z 0000000180066008     njsIntLob.obj
 0004:00001014       $pdata$?GetPieceSize@ILob@@CAXV?$Local@VString@v8@@@v8@@AEBV?$PropertyCallbackInfo@VValue@v8@@@Nan@@@Z 0000000180066014     njsIntLob.obj
 0004:00001020       $pdata$?SetPieceSize@ILob@@CAXV?$Local@VString@v8@@@v8@@V?$Local@VValue@v8@@@3@AEBV?$PropertyCallbackInfo@X@Nan@@@Z 0000000180066020     njsIntLob.obj
 0004:0000102c       $pdata$?GetOffset@ILob@@CAXV?$Local@VString@v8@@@v8@@AEBV?$PropertyCallbackInfo@VValue@v8@@@Nan@@@Z 000000018006602c     njsIntLob.obj
 0004:00001038       $pdata$?SetOffset@ILob@@CAXV?$Local@VString@v8@@@v8@@V?$Local@VValue@v8@@@3@AEBV?$PropertyCallbackInfo@X@Nan@@@Z 0000000180066038     njsIntLob.obj
 0004:00001044       $pdata$?GetType@ILob@@CAXV?$Local@VString@v8@@@v8@@AEBV?$PropertyCallbackInfo@VValue@v8@@@Nan@@@Z 0000000180066044     njsIntLob.obj
 0004:00001050       $pdata$?SetType@ILob@@CAXV?$Local@VString@v8@@@v8@@V?$Local@VValue@v8@@@3@AEBV?$PropertyCallbackInfo@X@Nan@@@Z 0000000180066050     njsIntLob.obj
 0004:0000105c       $pdata$?Read@ILob@@CAXAEBV?$FunctionCallbackInfo@VValue@v8@@@Nan@@@Z 000000018006605c     njsIntLob.obj
 0004:00001068       $pdata$?Async_Read@ILob@@CAXPEAUuv_work_s@@@Z 0000000180066068     njsIntLob.obj
 0004:00001074       $pdata$?Async_AfterRead@ILob@@CAXPEAUuv_work_s@@@Z 0000000180066074     njsIntLob.obj
 0004:00001080       $pdata$?Write@ILob@@CAXAEBV?$FunctionCallbackInfo@VValue@v8@@@Nan@@@Z 0000000180066080     njsIntLob.obj
 0004:0000108c       $pdata$?Async_Write@ILob@@CAXPEAUuv_work_s@@@Z 000000018006608c     njsIntLob.obj
 0004:00001098       $pdata$?Async_AfterWrite@ILob@@CAXPEAUuv_work_s@@@Z 0000000180066098     njsIntLob.obj
 0004:000010a4       $pdata$??0ProtoILob@@QEAA@PEAUeBaton@@PEAUDescriptor@dpi@@G@Z 00000001800660a4     njsIntLob.obj
 0004:000010b0       $pdata$?cleanup@ProtoILob@@AEAAXXZ 00000001800660b0     njsIntLob.obj
 0004:000010bc       $pdata$??_GEnv@dpi@@MEAAPEAXI@Z 00000001800660bc     dpiEnv.obj
 0004:000010c8       $pdata$??0EnvImpl@@QEAA@AEBV?$basic_string@DU?$char_traits@D@std@@V?$allocator@D@2@@std@@II@Z 00000001800660c8     dpiEnvImpl.obj
 0004:000010d4       $pdata$??1EnvImpl@@UEAA@XZ 00000001800660d4     dpiEnvImpl.obj
 0004:000010e0       $pdata$??_GEnvImpl@@UEAAPEAXI@Z 00000001800660e0     dpiEnvImpl.obj
 0004:000010ec       $pdata$??0ExceptionImpl@@QEAA@AEBV0@@Z 00000001800660ec     dpiEnvImpl.obj
 0004:000010f8       $pdata$??_GExceptionImpl@@UEAAPEAXI@Z 00000001800660f8     dpiEnvImpl.obj
 0004:00001104       $pdata$?terminate@EnvImpl@@UEAAXXZ 0000000180066104     dpiEnvImpl.obj
 0004:00001110       $pdata$?createPool@EnvImpl@@UEAAPEAVSPool@dpi@@AEBV?$basic_string@DU?$char_traits@D@std@@V?$allocator@D@2@@std@@00HHHHH_N1@Z 0000000180066110     dpiEnvImpl.obj
 0004:0000111c       $pdata$?getConnection@EnvImpl@@UEAAPEAVConn@dpi@@AEBV?$basic_string@DU?$char_traits@D@std@@V?$allocator@D@2@@std@@00H0_NW4DBPrivileges@3@@Z 000000018006611c     dpiEnvImpl.obj
 0004:00001128       $pdata$?getDateTimeArray@EnvImpl@@UEBAPEAVDateTimeArray@dpi@@PEAUOCIError@@@Z 0000000180066128     dpiEnvImpl.obj
 0004:00001134       $pdata$?allocHandle@EnvImpl@@UEAAPEAUDpiHandle@dpi@@W4HandleType@3@@Z 0000000180066134     dpiEnvImpl.obj
 0004:00001140       $pdata$?allocDescriptor@EnvImpl@@UEAAPEAUDescriptor@dpi@@W4DescriptorType@3@@Z 0000000180066140     dpiEnvImpl.obj
 0004:0000114c       $pdata$?allocDescriptorArray@EnvImpl@@UEAAXW4DescriptorType@dpi@@IQEAPEAUDescriptor@3@@Z 000000018006614c     dpiEnvImpl.obj
 0004:00001158       $pdata$??0ExceptionImpl@@QEAA@W4DpiError@dpi@@@Z 0000000180066158     dpiExceptionImpl.obj
 0004:00001164       $pdata$??1ExceptionImpl@@UEAA@XZ 0000000180066164     dpiExceptionImpl.obj
 0004:00001170       $pdata$??$?6DU?$char_traits@D@std@@V?$allocator@D@1@@std@@YAAEAV?$basic_ostream@DU?$char_traits@D@std@@@0@AEAV10@AEBV?$basic_string@DU?$char_traits@D@std@@V?$allocator@D@2@@0@@Z 0000000180066170     dpiExceptionImpl.obj
 0004:0000117c       $pdata$??_GConn@dpi@@MEAAPEAXI@Z 000000018006617c     dpiConnImpl.obj
 0004:00001188       $pdata$??0ConnImpl@@QEAA@PEAVEnvImpl@@PEAUOCIEnv@@_NIAEBV?$basic_string@DU?$char_traits@D@std@@V?$allocator@D@2@@std@@333W4DBPrivileges@dpi@@@Z 0000000180066188     dpiConnImpl.obj
 0004:00001194       $pdata$??0ConnImpl@@QEAA@PEAVPoolImpl@@PEAUOCIEnv@@_NPEAEIAEBV?$basic_string@DU?$char_traits@D@std@@V?$allocator@D@2@@std@@444HW4DBPrivileges@dpi@@@Z 0000000180066194     dpiConnImpl.obj
 0004:000011a0       $pdata$??1ConnImpl@@UEAA@XZ 00000001800661a0     dpiConnImpl.obj
 0004:000011ac       $pdata$??_GConnImpl@@UEAAPEAXI@Z 00000001800661ac     dpiConnImpl.obj
 0004:000011b8       $pdata$?release@ConnImpl@@UEAAXAEBV?$basic_string@DU?$char_traits@D@std@@V?$allocator@D@2@@std@@H@Z 00000001800661b8     dpiConnImpl.obj
 0004:000011c4       $pdata$?stmtCacheSize@ConnImpl@@UEAAXI@Z 00000001800661c4     dpiConnImpl.obj
 0004:000011d0       $pdata$?stmtCacheSize@ConnImpl@@UEBAIXZ 00000001800661d0     dpiConnImpl.obj
 0004:000011dc       $pdata$?lobPrefetchSize@ConnImpl@@UEBAIXZ 00000001800661dc     dpiConnImpl.obj
 0004:000011e8       $pdata$?clientId@ConnImpl@@UEAAXAEBV?$basic_string@DU?$char_traits@D@std@@V?$allocator@D@2@@std@@@Z 00000001800661e8     dpiConnImpl.obj
 0004:000011f4       $pdata$?module@ConnImpl@@UEAAXAEBV?$basic_string@DU?$char_traits@D@std@@V?$allocator@D@2@@std@@@Z 00000001800661f4     dpiConnImpl.obj
 0004:00001200       $pdata$?action@ConnImpl@@UEAAXAEBV?$basic_string@DU?$char_traits@D@std@@V?$allocator@D@2@@std@@@Z 0000000180066200     dpiConnImpl.obj
 0004:0000120c       $pdata$?getStmt@ConnImpl@@UEAAPEAVStmt@dpi@@AEBV?$basic_string@DU?$char_traits@D@std@@V?$allocator@D@2@@std@@@Z 000000018006620c     dpiConnImpl.obj
 0004:00001218       $pdata$?commit@ConnImpl@@UEAAXXZ 0000000180066218     dpiConnImpl.obj
 0004:00001224       $pdata$?rollback@ConnImpl@@UEAAXXZ 0000000180066224     dpiConnImpl.obj
 0004:00001230       $pdata$?breakExecution@ConnImpl@@UEAAXXZ 0000000180066230     dpiConnImpl.obj
 0004:0000123c       $pdata$0$?breakExecution@ConnImpl@@UEAAXXZ 000000018006623c     dpiConnImpl.obj
 0004:00001248       $pdata$1$?breakExecution@ConnImpl@@UEAAXXZ 0000000180066248     dpiConnImpl.obj
 0004:00001254       $pdata$2$?breakExecution@ConnImpl@@UEAAXXZ 0000000180066254     dpiConnImpl.obj
 0004:00001260       $pdata$?getServerVersion@ConnImpl@@UEAAIXZ 0000000180066260     dpiConnImpl.obj
 0004:0000126c       $pdata$?initConnImpl@ConnImpl@@AEAAX_N0AEBV?$basic_string@DU?$char_traits@D@std@@V?$allocator@D@2@@std@@PEAEI111HW4DBPrivileges@dpi@@@Z 000000018006626c     dpiConnImpl.obj
 0004:00001278       $pdata$0$?initConnImpl@ConnImpl@@AEAAX_N0AEBV?$basic_string@DU?$char_traits@D@std@@V?$allocator@D@2@@std@@PEAEI111HW4DBPrivileges@dpi@@@Z 0000000180066278     dpiConnImpl.obj
 0004:00001284       $pdata$1$?initConnImpl@ConnImpl@@AEAAX_N0AEBV?$basic_string@DU?$char_traits@D@std@@V?$allocator@D@2@@std@@PEAEI111HW4DBPrivileges@dpi@@@Z 0000000180066284     dpiConnImpl.obj
 0004:00001290       $pdata$?cleanup@ConnImpl@@AEAAXXZ 0000000180066290     dpiConnImpl.obj
 0004:0000129c       $pdata$0$?cleanup@ConnImpl@@AEAAXXZ 000000018006629c     dpiConnImpl.obj
 0004:000012a8       $pdata$1$?cleanup@ConnImpl@@AEAAXXZ 00000001800662a8     dpiConnImpl.obj
 0004:000012b4       $pdata$2$?cleanup@ConnImpl@@AEAAXXZ 00000001800662b4     dpiConnImpl.obj
 0004:000012c0       $pdata$3$?cleanup@ConnImpl@@AEAAXXZ 00000001800662c0     dpiConnImpl.obj
 0004:000012cc       $pdata$??_GSPool@dpi@@MEAAPEAXI@Z 00000001800662cc     dpiPoolImpl.obj
 0004:000012cc       $pdata$??_GDateTimeArray@dpi@@UEAAPEAXI@Z 00000001800662cc     dpiDateTimeArrayImpl.obj
 0004:000012d8       $pdata$??_GDateTimeArrayImpl@dpi@@UEAAPEAXI@Z 00000001800662d8     dpiDateTimeArrayImpl.obj
 0004:000012e4       $pdata$?init@DateTimeArrayImpl@dpi@@UEAAPEAXH@Z 00000001800662e4     dpiDateTimeArrayImpl.obj
 0004:000012f0       $pdata$?release@DateTimeArrayImpl@dpi@@UEAAXXZ 00000001800662f0     dpiDateTimeArrayImpl.obj
 0004:000012fc       $pdata$?getDateTime@DateTimeArrayImpl@dpi@@UEAAOH@Z 00000001800662fc     dpiDateTimeArrayImpl.obj
 0004:00001308       $pdata$?setDateTime@DateTimeArrayImpl@dpi@@UEAAXHO@Z 0000000180066308     dpiDateTimeArrayImpl.obj
 0004:00001314       $pdata$3$?setDateTime@DateTimeArrayImpl@dpi@@UEAAXHO@Z 0000000180066314     dpiDateTimeArrayImpl.obj
 0004:00001320       $pdata$4$?setDateTime@DateTimeArrayImpl@dpi@@UEAAXHO@Z 0000000180066320     dpiDateTimeArrayImpl.obj
 0004:0000132c       $pdata$5$?setDateTime@DateTimeArrayImpl@dpi@@UEAAXHO@Z 000000018006632c     dpiDateTimeArrayImpl.obj
 0004:00001338       $pdata$7$?setDateTime@DateTimeArrayImpl@dpi@@UEAAXHO@Z 0000000180066338     dpiDateTimeArrayImpl.obj
 0004:00001344       $pdata$8$?setDateTime@DateTimeArrayImpl@dpi@@UEAAXHO@Z 0000000180066344     dpiDateTimeArrayImpl.obj
 0004:00001350       $pdata$?initBaseDate@DateTimeArrayImpl@dpi@@SAXPEAUOCIEnv@@@Z 0000000180066350     dpiDateTimeArrayImpl.obj
 0004:0000135c       $pdata$0$?initBaseDate@DateTimeArrayImpl@dpi@@SAXPEAUOCIEnv@@@Z 000000018006635c     dpiDateTimeArrayImpl.obj
 0004:00001368       $pdata$1$?initBaseDate@DateTimeArrayImpl@dpi@@SAXPEAUOCIEnv@@@Z 0000000180066368     dpiDateTimeArrayImpl.obj
 0004:00001374       $pdata$??0PoolImpl@@QEAA@PEAVEnvImpl@@PEAUOCIEnv@@AEBV?$basic_string@DU?$char_traits@D@std@@V?$allocator@D@2@@std@@22HHHH_NH3@Z 0000000180066374     dpiPoolImpl.obj
 0004:00001380       $pdata$??_GPoolImpl@@UEAAPEAXI@Z 0000000180066380     dpiPoolImpl.obj
 0004:0000138c       $pdata$?terminate@PoolImpl@@UEAAXXZ 000000018006638c     dpiPoolImpl.obj
 0004:00001398       $pdata$0$?terminate@PoolImpl@@UEAAXXZ 0000000180066398     dpiPoolImpl.obj
 0004:000013a4       $pdata$1$?terminate@PoolImpl@@UEAAXXZ 00000001800663a4     dpiPoolImpl.obj
 0004:000013b0       $pdata$?poolTimeout@PoolImpl@@UEAAXI@Z 00000001800663b0     dpiPoolImpl.obj
 0004:000013bc       $pdata$?stmtCacheSize@PoolImpl@@UEAAXI@Z 00000001800663bc     dpiPoolImpl.obj
 0004:000013c8       $pdata$?connectionsOpen@PoolImpl@@UEBAIXZ 00000001800663c8     dpiPoolImpl.obj
 0004:000013d4       $pdata$?connectionsInUse@PoolImpl@@UEBAIXZ 00000001800663d4     dpiPoolImpl.obj
 0004:000013e0       $pdata$?getConnection@PoolImpl@@UEAAPEAVConn@dpi@@AEBV?$basic_string@DU?$char_traits@D@std@@V?$allocator@D@2@@std@@000HW4DBPrivileges@3@@Z 00000001800663e0     dpiPoolImpl.obj
 0004:000013ec       $pdata$?cleanup@PoolImpl@@AEAAXXZ 00000001800663ec     dpiPoolImpl.obj
 0004:000013f8       $pdata$??_GStmt@dpi@@UEAAPEAXI@Z 00000001800663f8     dpiStmtImpl.obj
 0004:00001404       $pdata$??0StmtImpl@@QEAA@PEAVEnvImpl@@PEAUOCIEnv@@PEAVConnImpl@@PEAUOCISvcCtx@@AEBV?$basic_string@DU?$char_traits@D@std@@V?$allocator@D@2@@std@@@Z 0000000180066404     dpiStmtImpl.obj
 0004:00001410       $pdata$??_GStmtImpl@@UEAAPEAXI@Z 0000000180066410     dpiStmtImpl.obj
 0004:0000141c       $pdata$?stmtType@StmtImpl@@UEBA?AW4DpiStmtType@dpi@@XZ 000000018006641c     dpiStmtImpl.obj
 0004:00001428       $pdata$0$?stmtType@StmtImpl@@UEBA?AW4DpiStmtType@dpi@@XZ 0000000180066428     dpiStmtImpl.obj
 0004:00001434       $pdata$1$?stmtType@StmtImpl@@UEBA?AW4DpiStmtType@dpi@@XZ 0000000180066434     dpiStmtImpl.obj
 0004:00001440       $pdata$?rowsAffected@StmtImpl@@UEBA_JXZ 0000000180066440     dpiStmtImpl.obj
 0004:0000144c       $pdata$?numCols@StmtImpl@@UEAAIXZ 000000018006644c     dpiStmtImpl.obj
 0004:00001458       $pdata$0$?numCols@StmtImpl@@UEAAIXZ 0000000180066458     dpiStmtImpl.obj
 0004:00001464       $pdata$1$?numCols@StmtImpl@@UEAAIXZ 0000000180066464     dpiStmtImpl.obj
 0004:00001470       $pdata$?prefetchRows@StmtImpl@@UEAAXI@Z 0000000180066470     dpiStmtImpl.obj
 0004:0000147c       $pdata$?bind@StmtImpl@@UEAAXIGPEAX_JPEAFPEAII30P6AH01IKKPEAPEAX44PEAPEAGPEAE@Z@Z 000000018006647c     dpiStmtImpl.obj
 0004:00001488       $pdata$?bind@StmtImpl@@UEAAXPEBEHIGPEAX_JPEAFPEAII41P6AH12IKKPEAPEAX55PEAPEAGPEAE@Z@Z 0000000180066488     dpiStmtImpl.obj
 0004:00001494       $pdata$?execute@StmtImpl@@UEAAXH_N@Z 0000000180066494     dpiStmtImpl.obj
 0004:000014a0       $pdata$?release@StmtImpl@@UEAAXXZ 00000001800664a0     dpiStmtImpl.obj
 0004:000014ac       $pdata$?define@StmtImpl@@UEAAXIGPEAX_JPEAFPEAI@Z 00000001800664ac     dpiStmtImpl.obj
 0004:000014b8       $pdata$?fetch@StmtImpl@@UEAAXI@Z 00000001800664b8     dpiStmtImpl.obj
 0004:000014c4       $pdata$?rowsFetched@StmtImpl@@UEBAIXZ 00000001800664c4     dpiStmtImpl.obj
 0004:000014d0       $pdata$?getMetaData@StmtImpl@@UEAAPEBUMetaData@dpi@@_N@Z 00000001800664d0     dpiStmtImpl.obj
 0004:000014dc       $pdata$0$?getMetaData@StmtImpl@@UEAAPEBUMetaData@dpi@@_N@Z 00000001800664dc     dpiStmtImpl.obj
 0004:000014e8       $pdata$1$?getMetaData@StmtImpl@@UEAAPEBUMetaData@dpi@@_N@Z 00000001800664e8     dpiStmtImpl.obj
 0004:000014f4       $pdata$?cleanup@StmtImpl@@AEAAXXZ 00000001800664f4     dpiStmtImpl.obj
 0004:00001500       $pdata$0$?cleanup@StmtImpl@@AEAAXXZ 0000000180066500     dpiStmtImpl.obj
 0004:0000150c       $pdata$1$?cleanup@StmtImpl@@AEAAXXZ 000000018006650c     dpiStmtImpl.obj
 0004:00001518       $pdata$?outbindCallback@StmtImpl@@SAHPEAXPEAUOCIBind@@IIPEAPEAXPEAPEAIPEAE2PEAPEAG@Z 0000000180066518     dpiStmtImpl.obj
 0004:00001524       $pdata$?isReturning@StmtImpl@@UEAA_NXZ 0000000180066524     dpiStmtImpl.obj
 0004:00001530       $pdata$0$?isReturning@StmtImpl@@UEAA_NXZ 0000000180066530     dpiStmtImpl.obj
 0004:0000153c       $pdata$1$?isReturning@StmtImpl@@UEAA_NXZ 000000018006653c     dpiStmtImpl.obj
 0004:00001548       $pdata$?getState@StmtImpl@@UEAAIXZ 0000000180066548     dpiStmtImpl.obj
 0004:00001554       $pdata$0$?getState@StmtImpl@@UEAAIXZ 0000000180066554     dpiStmtImpl.obj
 0004:00001560       $pdata$1$?getState@StmtImpl@@UEAAIXZ 0000000180066560     dpiStmtImpl.obj
 0004:0000156c       $pdata$?ociCallCommon@@YAXHPEAXI@Z 000000018006656c     dpiUtils.obj
 0004:00001578       $pdata$load_exe_hook       0000000180066578     win_delay_load_hook.obj
 0004:00001590       $pdata$??0_Init_locks@std@@QEAA@XZ 0000000180066590     libcpmt:xlock.obj
 0004:0000159c       $pdata$??0_Lockit@std@@QEAA@H@Z 000000018006659c     libcpmt:xlock.obj
 0004:000015a8       $pdata$??1_Init_locks@std@@QEAA@XZ 00000001800665a8     libcpmt:xlock.obj
 0004:000015b4       $pdata$??1_Lockit@std@@QEAA@XZ 00000001800665b4     libcpmt:xlock.obj
 0004:000015c0       $pdata$??4?$_Yarn@D@std@@QEAAAEAV01@PEBD@Z 00000001800665c0     libcpmt:locale0.obj
 0004:000015cc       $pdata$??_G_Fac_node@std@@QEAAPEAXI@Z 00000001800665cc     libcpmt:locale0.obj
 0004:000015d8       $pdata$??_G_Locimp@locale@std@@MEAAPEAXI@Z 00000001800665d8     libcpmt:locale0.obj
 0004:000015e4       $pdata$?_Facet_Register@std@@YAXPEAV_Facet_base@1@@Z 00000001800665e4     libcpmt:locale0.obj
 0004:000015f0       $pdata$?_Init@locale@std@@CAPEAV_Locimp@12@_N@Z 00000001800665f0     libcpmt:locale0.obj
 0004:000015fc       $pdata$?_Locimp_dtor@_Locimp@locale@std@@CAXPEAV123@@Z 00000001800665fc     libcpmt:locale0.obj
 0004:00001608       $pdata$?_Locinfo_ctor@_Locinfo@std@@SAXPEAV12@PEBD@Z 0000000180066608     libcpmt:locale0.obj
 0004:00001614       $pdata$?_Locinfo_dtor@_Locinfo@std@@SAXPEAV12@@Z 0000000180066614     libcpmt:locale0.obj
 0004:00001620       $pdata$?_New_Locimp@_Locimp@locale@std@@CAPEAV123@_N@Z 0000000180066620     libcpmt:locale0.obj
 0004:0000162c       $pdata$?_Setgloballocale@locale@std@@CAXPEAX@Z 000000018006662c     libcpmt:locale0.obj
 0004:00001638       $pdata$_Deletegloballocale 0000000180066638     libcpmt:locale0.obj
 0004:00001644       $pdata$tidy_global         0000000180066644     libcpmt:locale0.obj
 0004:00001650       $pdata$??0bad_alloc@std@@QEAA@AEBV01@@Z 0000000180066650     libcpmt:xthrow.obj
 0004:0000165c       $pdata$??0exception@std@@QEAA@AEBV01@@Z 000000018006665c     libcpmt:xthrow.obj
 0004:00001668       $pdata$??0length_error@std@@QEAA@AEBV01@@Z 0000000180066668     libcpmt:xthrow.obj
 0004:00001674       $pdata$??0length_error@std@@QEAA@PEBD@Z 0000000180066674     libcpmt:xthrow.obj
 0004:00001680       $pdata$??0logic_error@std@@QEAA@AEBV01@@Z 0000000180066680     libcpmt:xthrow.obj
 0004:0000168c       $pdata$??0out_of_range@std@@QEAA@AEBV01@@Z 000000018006668c     libcpmt:xthrow.obj
 0004:00001698       $pdata$??0out_of_range@std@@QEAA@PEBD@Z 0000000180066698     libcpmt:xthrow.obj
 0004:000016a4       $pdata$??_Gexception@std@@UEAAPEAXI@Z 00000001800666a4     libcpmt:xthrow.obj
 0004:000016a4       $pdata$??_Gbad_alloc@std@@UEAAPEAXI@Z 00000001800666a4     libcpmt:xthrow.obj
 0004:000016a4       $pdata$??_Glength_error@std@@UEAAPEAXI@Z 00000001800666a4     libcpmt:xthrow.obj
 0004:000016a4       $pdata$??_Gout_of_range@std@@UEAAPEAXI@Z 00000001800666a4     libcpmt:xthrow.obj
 0004:000016a4       $pdata$??_Gbad_exception@std@@UEAAPEAXI@Z 00000001800666a4     libvcruntime:frame.obj
 0004:000016a4       $pdata$??_Glogic_error@std@@UEAAPEAXI@Z 00000001800666a4     libcpmt:xthrow.obj
 0004:000016a4       $pdata$??_Gbad_array_new_length@std@@UEAAPEAXI@Z 00000001800666a4     LIBCMT:throw_bad_alloc.obj
 0004:000016b0       $pdata$?_Xbad_alloc@std@@YAXXZ 00000001800666b0     libcpmt:xthrow.obj
 0004:000016b0       $pdata$?__scrt_throw_std_bad_alloc@@YAXXZ 00000001800666b0     LIBCMT:throw_bad_alloc.obj
 0004:000016bc       $pdata$?_Xlength_error@std@@YAXPEBD@Z 00000001800666bc     libcpmt:xthrow.obj
 0004:000016c8       $pdata$?_Xout_of_range@std@@YAXPEBD@Z 00000001800666c8     libcpmt:xthrow.obj
 0004:000016d4       $pdata$?_Ios_base_dtor@ios_base@std@@CAXPEAV12@@Z 00000001800666d4     libcpmt:ios.obj
 0004:000016e0       $pdata$?_Tidy@ios_base@std@@AEAAXXZ 00000001800666e0     libcpmt:ios.obj
 0004:000016ec       $pdata$_Getctype           00000001800666ec     libcpmt:_tolower.obj
 0004:000016f8       $pdata$_Tolower            00000001800666f8     libcpmt:_tolower.obj
 0004:00001704       $pdata$_Getcvt             0000000180066704     libcpmt:xwctomb.obj
 0004:00001710       $pdata$_Toupper            0000000180066710     libcpmt:_toupper.obj
 0004:0000171c       $pdata$?_Atexit@@YAXP6AXXZ@Z 000000018006671c     libcpmt:iosptrs.obj
 0004:00001728       $pdata$__crtLCMapStringA   0000000180066728     libcpmt:StlLCMapStringA.obj
 0004:00001734       $pdata$?initialize_pointers@@YAHXZ 0000000180066734     libcpmt:winapisupp.obj
 0004:00001740       $pdata$__crtInitializeCriticalSectionEx 0000000180066740     libcpmt:winapisupp.obj
 0004:0000174c       $pdata$GetTableIndexFromLocaleName 000000018006674c     libcpmt:winapinls.obj
 0004:00001758       $pdata$__crtDownlevelLocaleNameToLCID 0000000180066758     libcpmt:winapinls.obj
 0004:00001764       $pdata$__crtLCMapStringEx  0000000180066764     libcpmt:winapinls.obj
 0004:0000177c       $pdata$?__scrt_initialize_thread_safe_statics@@YAHXZ 000000018006677c     LIBCMT:thread_safe_statics.obj
 0004:00001788       $pdata$?__scrt_uninitialize_thread_safe_statics@@YAXXZ 0000000180066788     LIBCMT:thread_safe_statics.obj
 0004:00001794       $pdata$_Init_thread_footer 0000000180066794     LIBCMT:thread_safe_statics.obj
 0004:000017a0       $pdata$_Init_thread_header 00000001800667a0     LIBCMT:thread_safe_statics.obj
 0004:000017ac       $pdata$_Init_thread_notify 00000001800667ac     LIBCMT:thread_safe_statics.obj
 0004:000017b8       $pdata$_Init_thread_wait   00000001800667b8     LIBCMT:thread_safe_statics.obj
 0004:000017c4       $pdata$??2@YAPEAX_K@Z      00000001800667c4     LIBCMT:new_scalar.obj
 0004:000017d0       $pdata$__scrt_acquire_startup_lock 00000001800667d0     LIBCMT:utility.obj
 0004:000017dc       $pdata$__scrt_dllmain_after_initialize_c 00000001800667dc     LIBCMT:utility.obj
 0004:000017e8       $pdata$__scrt_dllmain_before_initialize_c 00000001800667e8     LIBCMT:utility.obj
 0004:000017f4       $pdata$__scrt_dllmain_crt_thread_attach 00000001800667f4     LIBCMT:utility.obj
 0004:00001800       $pdata$__scrt_dllmain_crt_thread_detach 0000000180066800     LIBCMT:utility.obj
 0004:0000180c       $pdata$__scrt_dllmain_exception_filter 000000018006680c     LIBCMT:utility.obj
 0004:00001818       $pdata$__scrt_dllmain_uninitialize_c 0000000180066818     LIBCMT:utility.obj
 0004:00001824       $pdata$__scrt_dllmain_uninitialize_critical 0000000180066824     LIBCMT:utility.obj
 0004:00001830       $pdata$__scrt_initialize_crt 0000000180066830     LIBCMT:utility.obj
 0004:0000183c       $pdata$__scrt_initialize_onexit_tables 000000018006683c     LIBCMT:utility.obj
 0004:00001848       $pdata$__scrt_is_nonwritable_in_current_image 0000000180066848     LIBCMT:utility.obj
 0004:00001854       $pdata$__scrt_release_startup_lock 0000000180066854     LIBCMT:utility.obj
 0004:00001860       $pdata$__scrt_uninitialize_crt 0000000180066860     LIBCMT:utility.obj
 0004:0000186c       $pdata$_onexit             000000018006686c     LIBCMT:utility.obj
 0004:00001878       $pdata$atexit              0000000180066878     LIBCMT:utility.obj
 0004:00001884       $pdata$??_Gtype_info@@UEAAPEAXI@Z 0000000180066884     LIBCMT:std_type_info_static.obj
 0004:00001890       $pdata$??_M@YAXPEAX_K1P6AX0@Z@Z 0000000180066890     LIBCMT:ehvecdtr.obj
 0004:0000189c       $pdata$?__ArrayUnwind@@YAXPEAX_K1P6AX0@Z@Z 000000018006689c     LIBCMT:ehvecdtr.obj
 0004:000018a8       $pdata$??_L@YAXPEAX_K1P6AX0@Z2@Z 00000001800668a8     LIBCMT:ehvecctr.obj
 0004:000018b4       $pdata$__raise_securityfailure 00000001800668b4     LIBCMT:gs_report.obj
 0004:000018c0       $pdata$__report_gsfailure  00000001800668c0     LIBCMT:gs_report.obj
 0004:000018cc       $pdata$__report_rangecheckfailure 00000001800668cc     LIBCMT:gs_report.obj
 0004:000018d8       $pdata$__report_securityfailure 00000001800668d8     LIBCMT:gs_report.obj
 0004:000018e4       $pdata$capture_current_context 00000001800668e4     LIBCMT:gs_report.obj
 0004:000018f0       $pdata$capture_previous_context 00000001800668f0     LIBCMT:gs_report.obj
 0004:000018fc       $pdata$?dllmain_crt_dispatch@@YAHQEAUHINSTANCE__@@KQEAX@Z 00000001800668fc     LIBCMT:dll_dllmain.obj
 0004:00001908       $pdata$?dllmain_crt_process_attach@@YAHQEAUHINSTANCE__@@QEAX@Z 0000000180066908     LIBCMT:dll_dllmain.obj
 0004:00001914       $pdata$?dllmain_crt_process_detach@@YAH_N@Z 0000000180066914     LIBCMT:dll_dllmain.obj
 0004:00001920       $pdata$?dllmain_dispatch@@YAHQEAUHINSTANCE__@@KQEAX@Z 0000000180066920     LIBCMT:dll_dllmain.obj
 0004:0000192c       $pdata$?dllmain_raw@@YAHQEAUHINSTANCE__@@KQEAX@Z 000000018006692c     LIBCMT:dll_dllmain.obj
 0004:00001938       $pdata$_DllMainCRTStartup  0000000180066938     LIBCMT:dll_dllmain.obj
 0004:00001944       $pdata$__GSHandlerCheck    0000000180066944     LIBCMT:_gshandler_.obj
 0004:00001950       $pdata$__GSHandlerCheckCommon 0000000180066950     LIBCMT:_gshandler_.obj
 0004:0000195c       $pdata$__GSHandlerCheck_EH 000000018006695c     LIBCMT:gshandlereh.obj
 0004:00001974       $pdata$__scrt_fastfail     0000000180066974     LIBCMT:utility_desktop.obj
 0004:00001980       $pdata$??0bad_array_new_length@std@@QEAA@AEBV01@@Z 0000000180066980     LIBCMT:throw_bad_alloc.obj
 0004:0000198c       $pdata$?__scrt_throw_std_bad_array_new_length@@YAXXZ 000000018006698c     LIBCMT:throw_bad_alloc.obj
 0004:00001998       $pdata$__isa_available_init 0000000180066998     LIBCMT:_cpu_disp_.obj
 0004:000019a4       $pdata$__security_init_cookie 00000001800669a4     LIBCMT:gs_support.obj
 0004:000019b0       $pdata$__scrt_initialize_default_local_stdio_options 00000001800669b0     LIBCMT:default_local_stdio_options.obj
 0004:000019bc       $pdata$_RTC_Initialize     00000001800669bc     LIBCMT:_initsect_.obj
 0004:000019c8       $pdata$_RTC_Terminate      00000001800669c8     LIBCMT:_initsect_.obj
 0004:000019e0       $pdata$_purecall           00000001800669e0     libvcruntime:purevirt.obj
 0004:000019ec       $pdata$__DestructExceptionObject 00000001800669ec     libvcruntime:frame.obj
 0004:000019f8       $pdata$??0bad_exception@std@@QEAA@AEBV01@@Z 00000001800669f8     libvcruntime:frame.obj
 0004:00001a04       $pdata$?CatchIt@@YAXPEAUEHExceptionRecord@@PEA_KPEAU_CONTEXT@@PEAU_xDISPATCHER_CONTEXT@@PEBU_s_FuncInfo@@PEBU_s_HandlerType@@PEBU_s_CatchableType@@PEBU_s_TryBlockMapEntry@@H1EE@Z 0000000180066a04     libvcruntime:frame.obj
 0004:00001a10       $pdata$?ExFilterRethrow@@YAHPEAU_EXCEPTION_POINTERS@@PEAUEHExceptionRecord@@PEAH@Z 0000000180066a10     libvcruntime:frame.obj
 0004:00001a1c       $pdata$?FindHandler@@YAXPEAUEHExceptionRecord@@PEA_KPEAU_CONTEXT@@PEAU_xDISPATCHER_CONTEXT@@PEBU_s_FuncInfo@@EH1@Z 0000000180066a1c     libvcruntime:frame.obj
 0004:00001a28       $pdata$?FindHandlerForForeignException@@YAXPEAUEHExceptionRecord@@PEA_KPEAU_CONTEXT@@PEAU_xDISPATCHER_CONTEXT@@PEBU_s_FuncInfo@@HH1@Z 0000000180066a28     libvcruntime:frame.obj
 0004:00001a34       $pdata$?IsInExceptionSpec@@YAEPEAUEHExceptionRecord@@PEBU_s_ESTypeList@@@Z 0000000180066a34     libvcruntime:frame.obj
 0004:00001a40       $pdata$__BuildCatchObject  0000000180066a40     libvcruntime:frame.obj
 0004:00001a4c       $pdata$__BuildCatchObjectHelper 0000000180066a4c     libvcruntime:frame.obj
 0004:00001a58       $pdata$__CxxCallCatchBlock 0000000180066a58     libvcruntime:frame.obj
 0004:00001a64       $pdata$__FrameUnwindFilter 0000000180066a64     libvcruntime:frame.obj
 0004:00001a70       $pdata$__FrameUnwindToState 0000000180066a70     libvcruntime:frame.obj
 0004:00001a7c       $pdata$__InternalCxxFrameHandler 0000000180066a7c     libvcruntime:frame.obj
 0004:00001a88       $pdata$__TypeMatch         0000000180066a88     libvcruntime:frame.obj
 0004:00001a94       $pdata$__std_terminate     0000000180066a94     libvcruntime:frame.obj
 0004:00001aa0       $pdata$?_GetEstablisherFrame@@YAPEA_KPEA_KPEAU_xDISPATCHER_CONTEXT@@PEBU_s_FuncInfo@@0@Z 0000000180066aa0     libvcruntime:trnsctrl.obj
 0004:00001aac       $pdata$?_GetRangeOfTrysToCheck@@YAPEBU_s_TryBlockMapEntry@@PEA_KPEBU_s_FuncInfo@@HHPEAI2PEAU_xDISPATCHER_CONTEXT@@@Z 0000000180066aac     libvcruntime:trnsctrl.obj
 0004:00001ab8       $pdata$?__FrameUnwindToEmptyState@@YAXPEA_KPEAU_xDISPATCHER_CONTEXT@@PEBU_s_FuncInfo@@@Z 0000000180066ab8     libvcruntime:trnsctrl.obj
 0004:00001ac4       $pdata$?__SehTransFilter@@YAHPEAU_EXCEPTION_POINTERS@@PEAUEHExceptionRecord@@PEA_KPEAU_CONTEXT@@PEAU_xDISPATCHER_CONTEXT@@PEBU_s_FuncInfo@@PEAH@Z 0000000180066ac4     libvcruntime:trnsctrl.obj
 0004:00001ad0       $pdata$_CallSETranslator   0000000180066ad0     libvcruntime:trnsctrl.obj
 0004:00001adc       $pdata$_CreateFrameInfo    0000000180066adc     libvcruntime:trnsctrl.obj
 0004:00001ae8       $pdata$_FindAndUnlinkFrame 0000000180066ae8     libvcruntime:trnsctrl.obj
 0004:00001af4       $pdata$_GetImageBase       0000000180066af4     libvcruntime:trnsctrl.obj
 0004:00001b00       $pdata$_GetThrowImageBase  0000000180066b00     libvcruntime:trnsctrl.obj
 0004:00001b0c       $pdata$_IsExceptionObjectToBeDestroyed 0000000180066b0c     libvcruntime:trnsctrl.obj
 0004:00001b18       $pdata$_SetImageBase       0000000180066b18     libvcruntime:trnsctrl.obj
 0004:00001b24       $pdata$_SetThrowImageBase  0000000180066b24     libvcruntime:trnsctrl.obj
 0004:00001b30       $pdata$_UnwindNestedFrames 0000000180066b30     libvcruntime:trnsctrl.obj
 0004:00001b3c       $pdata$__CxxFrameHandler3  0000000180066b3c     libvcruntime:trnsctrl.obj
 0004:00001b48       $pdata$__std_exception_copy 0000000180066b48     libvcruntime:std_exception.obj
 0004:00001b54       $pdata$__std_exception_destroy 0000000180066b54     libvcruntime:std_exception.obj
 0004:00001b60       $pdata$_CxxThrowException  0000000180066b60     libvcruntime:throw.obj
 0004:00001b84       $pdata$?try_get_function@@YAPEAXW4function_id@?A0x61ce2399@@QEBDQEBW4module_id@2@2@Z 0000000180066b84     libvcruntime:winapi_downlevel.obj
 0004:00001b90       $pdata$__vcrt_EventRegister 0000000180066b90     libvcruntime:winapi_downlevel.obj
 0004:00001b9c       $pdata$__vcrt_EventSetInformation 0000000180066b9c     libvcruntime:winapi_downlevel.obj
 0004:00001ba8       $pdata$__vcrt_EventUnregister 0000000180066ba8     libvcruntime:winapi_downlevel.obj
 0004:00001bb4       $pdata$__vcrt_EventWriteTransfer 0000000180066bb4     libvcruntime:winapi_downlevel.obj
 0004:00001bc0       $pdata$__vcrt_FlsAlloc     0000000180066bc0     libvcruntime:winapi_downlevel.obj
 0004:00001bcc       $pdata$__vcrt_FlsFree      0000000180066bcc     libvcruntime:winapi_downlevel.obj
 0004:00001bd8       $pdata$__vcrt_FlsGetValue  0000000180066bd8     libvcruntime:winapi_downlevel.obj
 0004:00001be4       $pdata$__vcrt_FlsSetValue  0000000180066be4     libvcruntime:winapi_downlevel.obj
 0004:00001bf0       $pdata$__vcrt_InitializeCriticalSectionEx 0000000180066bf0     libvcruntime:winapi_downlevel.obj
 0004:00001bfc       $pdata$__vcrt_initialize_winapi_thunks 0000000180066bfc     libvcruntime:winapi_downlevel.obj
 0004:00001c08       $pdata$__vcrt_uninitialize_winapi_thunks 0000000180066c08     libvcruntime:winapi_downlevel.obj
 0004:00001c14       $pdata$__vcrt_initialize   0000000180066c14     libvcruntime:initialization.obj
 0004:00001c20       $pdata$__vcrt_thread_attach 0000000180066c20     libvcruntime:initialization.obj
 0004:00001c2c       $pdata$__vcrt_thread_detach 0000000180066c2c     libvcruntime:initialization.obj
 0004:00001c38       $pdata$__vcrt_uninitialize 0000000180066c38     libvcruntime:initialization.obj
 0004:00001c44       $pdata$__vcrt_uninitialize_critical 0000000180066c44     libvcruntime:initialization.obj
 0004:00001c50       $pdata$__C_specific_handler 0000000180066c50     libvcruntime:_chandler_.obj
 0004:00001c5c       $pdata$__telemetry_main_invoke_trigger 0000000180066c5c     libvcruntime:telemetry.obj
 0004:00001c68       $pdata$__telemetry_main_return_trigger 0000000180066c68     libvcruntime:telemetry.obj
 0004:00001c74       $pdata$__vcrt_uninitialize_telemetry_provider 0000000180066c74     libvcruntime:telemetry.obj
 0004:00001c80       $pdata$__std_type_info_destroy_list 0000000180066c80     libvcruntime:std_type_info.obj
 0004:00001c8c       $pdata$__vcrt_freefls      0000000180066c8c     libvcruntime:per_thread_data.obj
 0004:00001c98       $pdata$__vcrt_freeptd      0000000180066c98     libvcruntime:per_thread_data.obj
 0004:00001ca4       $pdata$__vcrt_getptd       0000000180066ca4     libvcruntime:per_thread_data.obj
 0004:00001cb0       $pdata$__vcrt_getptd_noexit 0000000180066cb0     libvcruntime:per_thread_data.obj
 0004:00001cbc       $pdata$__vcrt_initialize_ptd 0000000180066cbc     libvcruntime:per_thread_data.obj
 0004:00001cc8       $pdata$__vcrt_uninitialize_ptd 0000000180066cc8     libvcruntime:per_thread_data.obj
 0004:00001cd4       $pdata$?__GetCurrentState@@YAHPEA_KPEAU_xDISPATCHER_CONTEXT@@PEBU_s_FuncInfo@@@Z 0000000180066cd4     libvcruntime:ehstate.obj
 0004:00001ce0       $pdata$?__GetUnwindTryBlock@@YAHPEA_KPEAU_xDISPATCHER_CONTEXT@@PEBU_s_FuncInfo@@@Z 0000000180066ce0     libvcruntime:ehstate.obj
 0004:00001cec       $pdata$?__SetUnwindTryBlock@@YAXPEA_KPEAU_xDISPATCHER_CONTEXT@@PEBU_s_FuncInfo@@H@Z 0000000180066cec     libvcruntime:ehstate.obj
 0004:00001cf8       $pdata$?__StateFromIp@@YAHPEBU_s_FuncInfo@@PEAU_xDISPATCHER_CONTEXT@@_J@Z 0000000180066cf8     libvcruntime:ehstate.obj
 0004:00001d40       $pdata$__vcrt_initialize_locks 0000000180066d40     libvcruntime:locks.obj
 0004:00001d4c       $pdata$__vcrt_uninitialize_locks 0000000180066d4c     libvcruntime:locks.obj
 0004:00001d58       $pdata$abort               0000000180066d58     libucrt:abort.obj
 0004:00001d64       $pdata$__acrt_call_reportfault 0000000180066d64     libucrt:invalid_parameter.obj
 0004:00001d70       $pdata$_invalid_parameter  0000000180066d70     libucrt:invalid_parameter.obj
 0004:00001d7c       $pdata$_invalid_parameter_noinfo 0000000180066d7c     libucrt:invalid_parameter.obj
 0004:00001d88       $pdata$_invalid_parameter_noinfo_noreturn 0000000180066d88     libucrt:invalid_parameter.obj
 0004:00001d94       $pdata$_invoke_watson      0000000180066d94     libucrt:invalid_parameter.obj
 0004:00001da0       $pdata$strcspn             0000000180066da0     libucrt:strcspn.obj
 0004:00001dac       $pdata$??$?RV<lambda_7b91131dde12e1c3dfc74ff76b3f2eac>@@AEAV<lambda_dd75445284c072d0bd3768540cc698fa>@@V<lambda_16bc4ecb55b4718497c16bceaea2ceaf>@@@?$__crt_seh_guarded_call@H@@QEAAH$$QEAV<lambda_7b91131dde12e1c3dfc74ff76b3f2eac>@@AEAV<lambda_dd75445284c072d0bd3768540cc698fa>@@$$QEAV<lambda_16bc4ecb55b4718497c16bceaea2ceaf>@@@Z 0000000180066dac     libucrt:output.obj
 0004:00001db8       $pdata$??$common_vsprintf@Vformat_validation_base@__crt_stdio_output@@D@@YAH_KQEAD0QEBDQEAU__crt_locale_pointers@@1@Z 0000000180066db8     libucrt:output.obj
 0004:00001dc4       $pdata$??$ensure_buffer_is_big_enough@D@formatting_buffer@__crt_stdio_output@@QEAA_N_K@Z 0000000180066dc4     libucrt:output.obj
 0004:00001dd0       $pdata$??$type_case_integer_parse_into_buffer@I@?$output_processor@DV?$string_output_adapter@D@__crt_stdio_output@@V?$format_validation_base@DV?$string_output_adapter@D@__crt_stdio_output@@@2@@__crt_stdio_output@@AEAAXII_N@Z 0000000180066dd0     libucrt:output.obj
 0004:00001dd0       $pdata$??$type_case_integer_parse_into_buffer@I@?$output_processor@_WV?$string_output_adapter@_W@__crt_stdio_output@@V?$standard_base@_WV?$string_output_adapter@_W@__crt_stdio_output@@@2@@__crt_stdio_output@@AEAAXII_N@Z 0000000180066dd0     libucrt:output.obj
 0004:00001dd0       $pdata$??$type_case_integer_parse_into_buffer@I@?$output_processor@_WV?$stream_output_adapter@_W@__crt_stdio_output@@V?$standard_base@_WV?$stream_output_adapter@_W@__crt_stdio_output@@@2@@__crt_stdio_output@@AEAAXII_N@Z 0000000180066dd0     libucrt:output.obj
 0004:00001dd0       $pdata$??$type_case_integer_parse_into_buffer@I@?$output_processor@DV?$string_output_adapter@D@__crt_stdio_output@@V?$standard_base@DV?$string_output_adapter@D@__crt_stdio_output@@@2@@__crt_stdio_output@@AEAAXII_N@Z 0000000180066dd0     libucrt:output.obj
 0004:00001ddc       $pdata$??$type_case_integer_parse_into_buffer@_K@?$output_processor@DV?$string_output_adapter@D@__crt_stdio_output@@V?$standard_base@DV?$string_output_adapter@D@__crt_stdio_output@@@2@@__crt_stdio_output@@AEAAX_KI_N@Z 0000000180066ddc     libucrt:output.obj
 0004:00001ddc       $pdata$??$type_case_integer_parse_into_buffer@_K@?$output_processor@DV?$string_output_adapter@D@__crt_stdio_output@@V?$format_validation_base@DV?$string_output_adapter@D@__crt_stdio_output@@@2@@__crt_stdio_output@@AEAAX_KI_N@Z 0000000180066ddc     libucrt:output.obj
 0004:00001ddc       $pdata$??$type_case_integer_parse_into_buffer@_K@?$output_processor@_WV?$stream_output_adapter@_W@__crt_stdio_output@@V?$standard_base@_WV?$stream_output_adapter@_W@__crt_stdio_output@@@2@@__crt_stdio_output@@AEAAX_KI_N@Z 0000000180066ddc     libucrt:output.obj
 0004:00001ddc       $pdata$??$type_case_integer_parse_into_buffer@_K@?$output_processor@_WV?$string_output_adapter@_W@__crt_stdio_output@@V?$standard_base@_WV?$string_output_adapter@_W@__crt_stdio_output@@@2@@__crt_stdio_output@@AEAAX_KI_N@Z 0000000180066ddc     libucrt:output.obj
 0004:00001de8       $pdata$??$write_multiple_characters@V?$stream_output_adapter@_W@__crt_stdio_output@@D@__crt_stdio_output@@YAXAEBV?$stream_output_adapter@_W@0@DHQEAH@Z 0000000180066de8     libucrt:output.obj
 0004:00001df4       $pdata$??$write_multiple_characters@V?$string_output_adapter@D@__crt_stdio_output@@D@__crt_stdio_output@@YAXAEBV?$string_output_adapter@D@0@DHQEAH@Z 0000000180066df4     libucrt:output.obj
 0004:00001e00       $pdata$??$write_multiple_characters@V?$string_output_adapter@_W@__crt_stdio_output@@D@__crt_stdio_output@@YAXAEBV?$string_output_adapter@_W@0@DHQEAH@Z 0000000180066e00     libucrt:output.obj
 0004:00001e0c       $pdata$??0?$output_processor@DV?$string_output_adapter@D@__crt_stdio_output@@V?$format_validation_base@DV?$string_output_adapter@D@__crt_stdio_output@@@2@@__crt_stdio_output@@QEAA@AEBV?$string_output_adapter@D@1@_KQEBDQEAU__crt_locale_pointers@@QEAD@Z 0000000180066e0c     libucrt:output.obj
 0004:00001e0c       $pdata$??0?$output_processor@DV?$string_output_adapter@D@__crt_stdio_output@@V?$standard_base@DV?$string_output_adapter@D@__crt_stdio_output@@@2@@__crt_stdio_output@@QEAA@AEBV?$string_output_adapter@D@1@_KQEBDQEAU__crt_locale_pointers@@QEAD@Z 0000000180066e0c     libucrt:output.obj
 0004:00001e18       $pdata$??0?$output_processor@_WV?$string_output_adapter@_W@__crt_stdio_output@@V?$standard_base@_WV?$string_output_adapter@_W@__crt_stdio_output@@@2@@__crt_stdio_output@@QEAA@AEBV?$string_output_adapter@_W@1@_KQEB_WQEAU__crt_locale_pointers@@QEAD@Z 0000000180066e18     libucrt:output.obj
 0004:00001e18       $pdata$??0?$output_processor@_WV?$stream_output_adapter@_W@__crt_stdio_output@@V?$standard_base@_WV?$stream_output_adapter@_W@__crt_stdio_output@@@2@@__crt_stdio_output@@QEAA@AEBV?$stream_output_adapter@_W@1@_KQEB_WQEAU__crt_locale_pointers@@QEAD@Z 0000000180066e18     libucrt:output.obj
 0004:00001e24       $pdata$??0_LocaleUpdate@@QEAA@QEAU__crt_locale_pointers@@@Z 0000000180066e24     libucrt:output.obj
 0004:00001e30       $pdata$??R<lambda_dd75445284c072d0bd3768540cc698fa>@@QEBAHXZ 0000000180066e30     libucrt:output.obj
 0004:00001e3c       $pdata$?force_decimal_point@__crt_stdio_output@@YAXPEADQEAU__crt_locale_pointers@@@Z 0000000180066e3c     libucrt:output.obj
 0004:00001e48       $pdata$?parse_int_from_format_string@?$output_processor@DV?$string_output_adapter@D@__crt_stdio_output@@V?$format_validation_base@DV?$string_output_adapter@D@__crt_stdio_output@@@2@@__crt_stdio_output@@AEAA_NQEAH@Z 0000000180066e48     libucrt:output.obj
 0004:00001e48       $pdata$?parse_int_from_format_string@?$output_processor@DV?$string_output_adapter@D@__crt_stdio_output@@V?$standard_base@DV?$string_output_adapter@D@__crt_stdio_output@@@2@@__crt_stdio_output@@AEAA_NQEAH@Z 0000000180066e48     libucrt:output.obj
 0004:00001e54       $pdata$?parse_int_from_format_string@?$output_processor@_WV?$string_output_adapter@_W@__crt_stdio_output@@V?$standard_base@_WV?$string_output_adapter@_W@__crt_stdio_output@@@2@@__crt_stdio_output@@AEAA_NQEAH@Z 0000000180066e54     libucrt:output.obj
 0004:00001e54       $pdata$?parse_int_from_format_string@?$output_processor@_WV?$stream_output_adapter@_W@__crt_stdio_output@@V?$standard_base@_WV?$stream_output_adapter@_W@__crt_stdio_output@@@2@@__crt_stdio_output@@AEAA_NQEAH@Z 0000000180066e54     libucrt:output.obj
 0004:00001e60       $pdata$?process@?$output_processor@DV?$string_output_adapter@D@__crt_stdio_output@@V?$format_validation_base@DV?$string_output_adapter@D@__crt_stdio_output@@@2@@__crt_stdio_output@@QEAAHXZ 0000000180066e60     libucrt:output.obj
 0004:00001e6c       $pdata$?process@?$output_processor@DV?$string_output_adapter@D@__crt_stdio_output@@V?$standard_base@DV?$string_output_adapter@D@__crt_stdio_output@@@2@@__crt_stdio_output@@QEAAHXZ 0000000180066e6c     libucrt:output.obj
 0004:00001e78       $pdata$?process@?$output_processor@_WV?$stream_output_adapter@_W@__crt_stdio_output@@V?$standard_base@_WV?$stream_output_adapter@_W@__crt_stdio_output@@@2@@__crt_stdio_output@@QEAAHXZ 0000000180066e78     libucrt:output.obj
 0004:00001e84       $pdata$?process@?$output_processor@_WV?$string_output_adapter@_W@__crt_stdio_output@@V?$standard_base@_WV?$string_output_adapter@_W@__crt_stdio_output@@@2@@__crt_stdio_output@@QEAAHXZ 0000000180066e84     libucrt:output.obj
 0004:00001e90       $pdata$?state_case_normal@?$output_processor@DV?$string_output_adapter@D@__crt_stdio_output@@V?$standard_base@DV?$string_output_adapter@D@__crt_stdio_output@@@2@@__crt_stdio_output@@AEAA_NXZ 0000000180066e90     libucrt:output.obj
 0004:00001e90       $pdata$?state_case_normal@?$output_processor@DV?$string_output_adapter@D@__crt_stdio_output@@V?$format_validation_base@DV?$string_output_adapter@D@__crt_stdio_output@@@2@@__crt_stdio_output@@AEAA_NXZ 0000000180066e90     libucrt:output.obj
 0004:00001e9c       $pdata$?state_case_normal_tchar@?$output_processor@DV?$string_output_adapter@D@__crt_stdio_output@@V?$format_validation_base@DV?$string_output_adapter@D@__crt_stdio_output@@@2@@__crt_stdio_output@@AEAA_ND@Z 0000000180066e9c     libucrt:output.obj
 0004:00001e9c       $pdata$?state_case_normal_tchar@?$output_processor@DV?$string_output_adapter@D@__crt_stdio_output@@V?$standard_base@DV?$string_output_adapter@D@__crt_stdio_output@@@2@@__crt_stdio_output@@AEAA_ND@Z 0000000180066e9c     libucrt:output.obj
 0004:00001ea8       $pdata$?state_case_size@?$output_processor@DV?$string_output_adapter@D@__crt_stdio_output@@V?$standard_base@DV?$string_output_adapter@D@__crt_stdio_output@@@2@@__crt_stdio_output@@AEAA_NXZ 0000000180066ea8     libucrt:output.obj
 0004:00001ea8       $pdata$?state_case_size@?$output_processor@DV?$string_output_adapter@D@__crt_stdio_output@@V?$format_validation_base@DV?$string_output_adapter@D@__crt_stdio_output@@@2@@__crt_stdio_output@@AEAA_NXZ 0000000180066ea8     libucrt:output.obj
 0004:00001eb4       $pdata$?state_case_size@?$output_processor@_WV?$stream_output_adapter@_W@__crt_stdio_output@@V?$standard_base@_WV?$stream_output_adapter@_W@__crt_stdio_output@@@2@@__crt_stdio_output@@AEAA_NXZ 0000000180066eb4     libucrt:output.obj
 0004:00001ec0       $pdata$?state_case_size@?$output_processor@_WV?$string_output_adapter@_W@__crt_stdio_output@@V?$standard_base@_WV?$string_output_adapter@_W@__crt_stdio_output@@@2@@__crt_stdio_output@@AEAA_NXZ 0000000180066ec0     libucrt:output.obj
 0004:00001ecc       $pdata$?state_case_type@?$output_processor@DV?$string_output_adapter@D@__crt_stdio_output@@V?$standard_base@DV?$string_output_adapter@D@__crt_stdio_output@@@2@@__crt_stdio_output@@AEAA_NXZ 0000000180066ecc     libucrt:output.obj
 0004:00001ecc       $pdata$?state_case_type@?$output_processor@DV?$string_output_adapter@D@__crt_stdio_output@@V?$format_validation_base@DV?$string_output_adapter@D@__crt_stdio_output@@@2@@__crt_stdio_output@@AEAA_NXZ 0000000180066ecc     libucrt:output.obj
 0004:00001ed8       $pdata$?state_case_type@?$output_processor@_WV?$stream_output_adapter@_W@__crt_stdio_output@@V?$standard_base@_WV?$stream_output_adapter@_W@__crt_stdio_output@@@2@@__crt_stdio_output@@AEAA_NXZ 0000000180066ed8     libucrt:output.obj
 0004:00001ee4       $pdata$?state_case_type@?$output_processor@_WV?$string_output_adapter@_W@__crt_stdio_output@@V?$standard_base@_WV?$string_output_adapter@_W@__crt_stdio_output@@@2@@__crt_stdio_output@@AEAA_NXZ 0000000180066ee4     libucrt:output.obj
 0004:00001ef0       $pdata$?type_case_Z@?$output_processor@DV?$string_output_adapter@D@__crt_stdio_output@@V?$format_validation_base@DV?$string_output_adapter@D@__crt_stdio_output@@@2@@__crt_stdio_output@@AEAA_NXZ 0000000180066ef0     libucrt:output.obj
 0004:00001ef0       $pdata$?type_case_Z@?$output_processor@DV?$string_output_adapter@D@__crt_stdio_output@@V?$standard_base@DV?$string_output_adapter@D@__crt_stdio_output@@@2@@__crt_stdio_output@@AEAA_NXZ 0000000180066ef0     libucrt:output.obj
 0004:00001efc       $pdata$?type_case_Z@?$output_processor@_WV?$stream_output_adapter@_W@__crt_stdio_output@@V?$standard_base@_WV?$stream_output_adapter@_W@__crt_stdio_output@@@2@@__crt_stdio_output@@AEAA_NXZ 0000000180066efc     libucrt:output.obj
 0004:00001efc       $pdata$?type_case_Z@?$output_processor@_WV?$string_output_adapter@_W@__crt_stdio_output@@V?$standard_base@_WV?$string_output_adapter@_W@__crt_stdio_output@@@2@@__crt_stdio_output@@AEAA_NXZ 0000000180066efc     libucrt:output.obj
 0004:00001f08       $pdata$?type_case_a@?$output_processor@DV?$string_output_adapter@D@__crt_stdio_output@@V?$standard_base@DV?$string_output_adapter@D@__crt_stdio_output@@@2@@__crt_stdio_output@@AEAA_NXZ 0000000180066f08     libucrt:output.obj
 0004:00001f08       $pdata$?type_case_a@?$output_processor@DV?$string_output_adapter@D@__crt_stdio_output@@V?$format_validation_base@DV?$string_output_adapter@D@__crt_stdio_output@@@2@@__crt_stdio_output@@AEAA_NXZ 0000000180066f08     libucrt:output.obj
 0004:00001f14       $pdata$?type_case_a@?$output_processor@_WV?$stream_output_adapter@_W@__crt_stdio_output@@V?$standard_base@_WV?$stream_output_adapter@_W@__crt_stdio_output@@@2@@__crt_stdio_output@@AEAA_NXZ 0000000180066f14     libucrt:output.obj
 0004:00001f14       $pdata$?type_case_a@?$output_processor@_WV?$string_output_adapter@_W@__crt_stdio_output@@V?$standard_base@_WV?$string_output_adapter@_W@__crt_stdio_output@@@2@@__crt_stdio_output@@AEAA_NXZ 0000000180066f14     libucrt:output.obj
 0004:00001f20       $pdata$?type_case_c_tchar@?$output_processor@DV?$string_output_adapter@D@__crt_stdio_output@@V?$standard_base@DV?$string_output_adapter@D@__crt_stdio_output@@@2@@__crt_stdio_output@@AEAA_ND@Z 0000000180066f20     libucrt:output.obj
 0004:00001f20       $pdata$?type_case_c_tchar@?$output_processor@DV?$string_output_adapter@D@__crt_stdio_output@@V?$format_validation_base@DV?$string_output_adapter@D@__crt_stdio_output@@@2@@__crt_stdio_output@@AEAA_ND@Z 0000000180066f20     libucrt:output.obj
 0004:00001f2c       $pdata$?type_case_c_tchar@?$output_processor@_WV?$stream_output_adapter@_W@__crt_stdio_output@@V?$standard_base@_WV?$stream_output_adapter@_W@__crt_stdio_output@@@2@@__crt_stdio_output@@AEAA_N_W@Z 0000000180066f2c     libucrt:output.obj
 0004:00001f2c       $pdata$?type_case_c_tchar@?$output_processor@_WV?$string_output_adapter@_W@__crt_stdio_output@@V?$standard_base@_WV?$string_output_adapter@_W@__crt_stdio_output@@@2@@__crt_stdio_output@@AEAA_N_W@Z 0000000180066f2c     libucrt:output.obj
 0004:00001f38       $pdata$?type_case_integer@?$output_processor@_WV?$stream_output_adapter@_W@__crt_stdio_output@@V?$standard_base@_WV?$stream_output_adapter@_W@__crt_stdio_output@@@2@@__crt_stdio_output@@AEAA_NI_N@Z 0000000180066f38     libucrt:output.obj
 0004:00001f38       $pdata$?type_case_integer@?$output_processor@DV?$string_output_adapter@D@__crt_stdio_output@@V?$standard_base@DV?$string_output_adapter@D@__crt_stdio_output@@@2@@__crt_stdio_output@@AEAA_NI_N@Z 0000000180066f38     libucrt:output.obj
 0004:00001f38       $pdata$?type_case_integer@?$output_processor@_WV?$string_output_adapter@_W@__crt_stdio_output@@V?$standard_base@_WV?$string_output_adapter@_W@__crt_stdio_output@@@2@@__crt_stdio_output@@AEAA_NI_N@Z 0000000180066f38     libucrt:output.obj
 0004:00001f38       $pdata$?type_case_integer@?$output_processor@DV?$string_output_adapter@D@__crt_stdio_output@@V?$format_validation_base@DV?$string_output_adapter@D@__crt_stdio_output@@@2@@__crt_stdio_output@@AEAA_NI_N@Z 0000000180066f38     libucrt:output.obj
 0004:00001f44       $pdata$?type_case_n@?$output_processor@DV?$string_output_adapter@D@__crt_stdio_output@@V?$standard_base@DV?$string_output_adapter@D@__crt_stdio_output@@@2@@__crt_stdio_output@@AEAA_NXZ 0000000180066f44     libucrt:output.obj
 0004:00001f44       $pdata$?type_case_n@?$output_processor@_WV?$string_output_adapter@_W@__crt_stdio_output@@V?$standard_base@_WV?$string_output_adapter@_W@__crt_stdio_output@@@2@@__crt_stdio_output@@AEAA_NXZ 0000000180066f44     libucrt:output.obj
 0004:00001f44       $pdata$?type_case_n@?$output_processor@DV?$string_output_adapter@D@__crt_stdio_output@@V?$format_validation_base@DV?$string_output_adapter@D@__crt_stdio_output@@@2@@__crt_stdio_output@@AEAA_NXZ 0000000180066f44     libucrt:output.obj
 0004:00001f44       $pdata$?type_case_n@?$output_processor@_WV?$stream_output_adapter@_W@__crt_stdio_output@@V?$standard_base@_WV?$stream_output_adapter@_W@__crt_stdio_output@@@2@@__crt_stdio_output@@AEAA_NXZ 0000000180066f44     libucrt:output.obj
 0004:00001f50       $pdata$?type_case_s@?$output_processor@DV?$string_output_adapter@D@__crt_stdio_output@@V?$standard_base@DV?$string_output_adapter@D@__crt_stdio_output@@@2@@__crt_stdio_output@@AEAA_NXZ 0000000180066f50     libucrt:output.obj
 0004:00001f50       $pdata$?type_case_s@?$output_processor@DV?$string_output_adapter@D@__crt_stdio_output@@V?$format_validation_base@DV?$string_output_adapter@D@__crt_stdio_output@@@2@@__crt_stdio_output@@AEAA_NXZ 0000000180066f50     libucrt:output.obj
 0004:00001f5c       $pdata$?type_case_s@?$output_processor@_WV?$stream_output_adapter@_W@__crt_stdio_output@@V?$standard_base@_WV?$stream_output_adapter@_W@__crt_stdio_output@@@2@@__crt_stdio_output@@AEAA_NXZ 0000000180066f5c     libucrt:output.obj
 0004:00001f5c       $pdata$?type_case_s@?$output_processor@_WV?$string_output_adapter@_W@__crt_stdio_output@@V?$standard_base@_WV?$string_output_adapter@_W@__crt_stdio_output@@@2@@__crt_stdio_output@@AEAA_NXZ 0000000180066f5c     libucrt:output.obj
 0004:00001f68       $pdata$?write_stored_string_tchar@?$output_processor@DV?$string_output_adapter@D@__crt_stdio_output@@V?$format_validation_base@DV?$string_output_adapter@D@__crt_stdio_output@@@2@@__crt_stdio_output@@AEAA_ND@Z 0000000180066f68     libucrt:output.obj
 0004:00001f68       $pdata$?write_stored_string_tchar@?$output_processor@DV?$string_output_adapter@D@__crt_stdio_output@@V?$standard_base@DV?$string_output_adapter@D@__crt_stdio_output@@@2@@__crt_stdio_output@@AEAA_ND@Z 0000000180066f68     libucrt:output.obj
 0004:00001f74       $pdata$?write_stored_string_tchar@?$output_processor@_WV?$stream_output_adapter@_W@__crt_stdio_output@@V?$standard_base@_WV?$stream_output_adapter@_W@__crt_stdio_output@@@2@@__crt_stdio_output@@AEAA_N_W@Z 0000000180066f74     libucrt:output.obj
 0004:00001f80       $pdata$?write_stored_string_tchar@?$output_processor@_WV?$string_output_adapter@_W@__crt_stdio_output@@V?$standard_base@_WV?$string_output_adapter@_W@__crt_stdio_output@@@2@@__crt_stdio_output@@AEAA_N_W@Z 0000000180066f80     libucrt:output.obj
 0004:00001f8c       $pdata$?write_string@?$stream_output_adapter@_W@__crt_stdio_output@@QEBAXQEB_WHQEAH1@Z 0000000180066f8c     libucrt:output.obj
 0004:00001f98       $pdata$?write_string@?$string_output_adapter@D@__crt_stdio_output@@QEBAXQEBDHQEAH1@Z 0000000180066f98     libucrt:output.obj
 0004:00001fa4       $pdata$?write_string@?$string_output_adapter@_W@__crt_stdio_output@@QEBAXQEB_WHQEAH1@Z 0000000180066fa4     libucrt:output.obj
 0004:00001fb0       $pdata$__stdio_common_vfwprintf 0000000180066fb0     libucrt:output.obj
 0004:00001fbc       $pdata$__stdio_common_vsprintf 0000000180066fbc     libucrt:output.obj
 0004:00001fc8       $pdata$__stdio_common_vsprintf_s 0000000180066fc8     libucrt:output.obj
 0004:00001fd4       $pdata$__stdio_common_vswprintf 0000000180066fd4     libucrt:output.obj
 0004:00001fe0       $pdata$localeconv          0000000180066fe0     libucrt:localeconv.obj
 0004:00001fec       $pdata$frexp               0000000180066fec     libucrt:frexp.obj
 0004:00001ff8       $pdata$??$common_assert_to_message_box@_W@@YAXQEB_W0IQEAX@Z 0000000180066ff8     libucrt:assert.obj
 0004:00002004       $pdata$??$common_assert_to_message_box_build_string@_W@@YAXQEA_W_KQEB_W2IQEAX@Z 0000000180067004     libucrt:assert.obj
 0004:00002010       $pdata$??$common_assert_to_stderr@_W@@YAXQEB_W0I@Z 0000000180067010     libucrt:assert.obj
 0004:0000201c       $pdata$_wassert            000000018006701c     libucrt:assert.obj
 0004:00002028       $pdata$fwprintf            0000000180067028     libucrt:assert.obj
 0004:00002034       $pdata$swprintf            0000000180067034     libucrt:assert.obj
 0004:00002040       $pdata$_stricmp            0000000180067040     libucrt:stricmp.obj
 0004:0000204c       $pdata$_stricmp_l          000000018006704c     libucrt:stricmp.obj
 0004:00002058       $pdata$__acrt_initialize_locks 0000000180067058     libucrt:locks.obj
 0004:00002064       $pdata$__acrt_uninitialize_locks 0000000180067064     libucrt:locks.obj
 0004:00002070       $pdata$call_wsetlocale     0000000180067070     libucrt:setlocale.obj
 0004:0000207c       $pdata$setlocale           000000018006707c     libucrt:setlocale.obj
 0004:00002088       $pdata$_calloc_base        0000000180067088     libucrt:calloc_base.obj
 0004:00002094       $pdata$__pctype_func       0000000180067094     libucrt:ctype.obj
 0004:000020a0       $pdata$isdigit             00000001800670a0     libucrt:_ctype.obj
 0004:000020ac       $pdata$islower             00000001800670ac     libucrt:_ctype.obj
 0004:000020b8       $pdata$isupper             00000001800670b8     libucrt:_ctype.obj
 0004:000020c4       $pdata$_wcsdup             00000001800670c4     libucrt:wcsdup.obj
 0004:000020d0       $pdata$___lc_codepage_func 00000001800670d0     libucrt:initctype.obj
 0004:000020dc       $pdata$___lc_locale_name_func 00000001800670dc     libucrt:initctype.obj
 0004:000020e8       $pdata$___mb_cur_max_func  00000001800670e8     libucrt:initctype.obj
 0004:000020f4       $pdata$__acrt_locale_initialize_ctype 00000001800670f4     libucrt:initctype.obj
 0004:00002100       $pdata$__acrt_errno_map_os_error 0000000180067100     libucrt:errno.obj
 0004:0000210c       $pdata$__doserrno          000000018006710c     libucrt:errno.obj
 0004:00002118       $pdata$_errno              0000000180067118     libucrt:errno.obj
 0004:00002124       $pdata$?x_ismbbtype_l@@YAHPEAU__crt_locale_pointers@@IHH@Z 0000000180067124     libucrt:ismbbyte.obj
 0004:00002130       $pdata$_malloc_base        0000000180067130     libucrt:malloc_base.obj
 0004:0000213c       $pdata$_realloc_base       000000018006713c     libucrt:realloc_base.obj
 0004:00002148       $pdata$_free_base          0000000180067148     libucrt:free_base.obj
 0004:00002154       $pdata$?internal_isupper_l@@YA_NHQEAU__crt_locale_pointers@@@Z 0000000180067154     libucrt:tolower_toupper.obj
 0004:00002160       $pdata$_tolower_l          0000000180067160     libucrt:tolower_toupper.obj
 0004:0000216c       $pdata$tolower             000000018006716c     libucrt:tolower_toupper.obj
 0004:00002178       $pdata$wcscpy_s            0000000180067178     libucrt:wcscpy_s.obj
 0004:00002184       $pdata$strnlen             0000000180067184     libucrt:strnlen.obj
 0004:00002190       $pdata$wcsnlen             0000000180067190     libucrt:strnlen.obj
 0004:0000219c       $pdata$_callnewh           000000018006719c     libucrt:new_handler.obj
 0004:000021a8       $pdata$_query_new_handler  00000001800671a8     libucrt:new_handler.obj
 0004:000021b4       $pdata$_seh_filter_exe     00000001800671b4     libucrt:exception_filter.obj
 0004:000021c0       $pdata$?common_exit@@YAXHW4_crt_exit_cleanup_mode@@W4_crt_exit_return_mode@@@Z 00000001800671c0     libucrt:exit.obj
 0004:000021cc       $pdata$?exit_or_terminate_process@@YAXI@Z 00000001800671cc     libucrt:exit.obj
 0004:000021d8       $pdata$?try_cor_exit_process@@YAXI@Z 00000001800671d8     libucrt:exit.obj
 0004:000021e4       $pdata$??$common_initialize_environment_nolock@D@@YAHXZ 00000001800671e4     libucrt:environment_initialization.obj
 0004:000021f0       $pdata$??$create_environment@D@@YAQEAPEADQEAD@Z 00000001800671f0     libucrt:environment_initialization.obj
 0004:000021fc       $pdata$??$free_environment@D@@YAXQEAPEAD@Z 00000001800671fc     libucrt:environment_initialization.obj
 0004:000021fc       $pdata$??$free_environment@_W@@YAXQEAPEA_W@Z 00000001800671fc     libucrt:environment_initialization.obj
 0004:00002208       $pdata$??$uninitialize_environment_internal@D@@YAXAEAPEAPEAD@Z 0000000180067208     libucrt:environment_initialization.obj
 0004:00002214       $pdata$??$uninitialize_environment_internal@_W@@YAXAEAPEAPEA_W@Z 0000000180067214     libucrt:environment_initialization.obj
 0004:00002220       $pdata$__dcrt_uninitialize_environments_nolock 0000000180067220     libucrt:environment_initialization.obj
 0004:0000222c       $pdata$??$?RV<lambda_b8c45f8f788dd370798f47cfe8ac3a86>@@AEAV<lambda_4e60a939b0d047cfe11ddc22648dfba9>@@V<lambda_332c3edc96d0294ec56c57d38c1cdfd5>@@@?$__crt_seh_guarded_call@H@@QEAAH$$QEAV<lambda_b8c45f8f788dd370798f47cfe8ac3a86>@@AEAV<lambda_4e60a939b0d047cfe11ddc22648dfba9>@@$$QEAV<lambda_332c3edc96d0294ec56c57d38c1cdfd5>@@@Z 000000018006722c     libucrt:onexit.obj
 0004:00002238       $pdata$??$?RV<lambda_e24bbb7b643b32fcea6fa61b31d4c984>@@AEAV<lambda_275893d493268fdec8709772e3fcec0e>@@V<lambda_9d71df4d7cf3f480f8d633942495c3b0>@@@?$__crt_seh_guarded_call@H@@QEAAH$$QEAV<lambda_e24bbb7b643b32fcea6fa61b31d4c984>@@AEAV<lambda_275893d493268fdec8709772e3fcec0e>@@$$QEAV<lambda_9d71df4d7cf3f480f8d633942495c3b0>@@@Z 0000000180067238     libucrt:onexit.obj
 0004:00002244       $pdata$??R<lambda_4e60a939b0d047cfe11ddc22648dfba9>@@QEBAHXZ 0000000180067244     libucrt:onexit.obj
 0004:00002250       $pdata$_execute_onexit_table 0000000180067250     libucrt:onexit.obj
 0004:0000225c       $pdata$_register_onexit_function 000000018006725c     libucrt:onexit.obj
 0004:00002268       $pdata$initialize_c        0000000180067268     libucrt:initialization.obj
 0004:00002274       $pdata$uninitialize_environment 0000000180067274     libucrt:initialization.obj
 0004:00002280       $pdata$initialize_pointers 0000000180067280     libucrt:initialization.obj
 0004:0000228c       $pdata$uninitialize_allocated_memory 000000018006728c     libucrt:initialization.obj
 0004:00002298       $pdata$__acrt_thread_attach 0000000180067298     libucrt:initialization.obj
 0004:000022a4       $pdata$__acrt_thread_detach 00000001800672a4     libucrt:initialization.obj
 0004:000022b0       $pdata$__acrt_uninitialize_critical 00000001800672b0     libucrt:initialization.obj
 0004:000022bc       $pdata$terminate           00000001800672bc     libucrt:terminate.obj
 0004:000022c8       $pdata$_initterm           00000001800672c8     libucrt:initterm.obj
 0004:000022d4       $pdata$_initterm_e         00000001800672d4     libucrt:initterm.obj
 0004:000022e0       $pdata$strcpy_s            00000001800672e0     libucrt:strcpy_s.obj
 0004:000022ec       $pdata$??$parse_integer@KV?$c_string_character_source@D@__crt_strtox@@@__crt_strtox@@YAKQEAU__crt_locale_pointers@@V?$c_string_character_source@D@0@H_N@Z 00000001800672ec     libucrt:atox.obj
 0004:000022f8       $pdata$??$parse_integer@KV?$c_string_character_source@_W@__crt_strtox@@@__crt_strtox@@YAKQEAU__crt_locale_pointers@@V?$c_string_character_source@_W@0@H_N@Z 00000001800672f8     libucrt:atox.obj
 0004:00002304       $pdata$_wtol               0000000180067304     libucrt:atox.obj
 0004:00002310       $pdata$??$?RV<lambda_c36588078e9f5dfd39652860aa6b3aaf>@@AEAV<lambda_ec61778202f4f5fc7e7711acc23c3bca>@@V<lambda_dc9d2797ccde5d239b4a0efae8ebd7db>@@@?$__crt_seh_guarded_call@P6AXH@Z@@QEAAP6AXH@Z$$QEAV<lambda_c36588078e9f5dfd39652860aa6b3aaf>@@AEAV<lambda_ec61778202f4f5fc7e7711acc23c3bca>@@$$QEAV<lambda_dc9d2797ccde5d239b4a0efae8ebd7db>@@@Z 0000000180067310     libucrt:signal.obj
 0004:0000231c       $pdata$__acrt_get_sigabrt_handler 000000018006731c     libucrt:signal.obj
 0004:00002328       $pdata$raise               0000000180067328     libucrt:signal.obj
 0004:00002334       $pdata$??$?RV<lambda_46352004c1216016012b18bd6f87e700>@@AEAV<lambda_3bd07e1a1191394380780325891bf33f>@@V<lambda_334532d3f185bcaa59b5be82d7d22bff>@@@?$__crt_seh_guarded_call@X@@QEAAX$$QEAV<lambda_46352004c1216016012b18bd6f87e700>@@AEAV<lambda_3bd07e1a1191394380780325891bf33f>@@$$QEAV<lambda_334532d3f185bcaa59b5be82d7d22bff>@@@Z 0000000180067334     libucrt:per_thread_data.obj
 0004:00002340       $pdata$??$?RV<lambda_5e887d1dcbef67a5eb4283622ba103bf>@@AEAV<lambda_4466841279450cc726390878d4a41900>@@V<lambda_341c25c0346d94847f1f3c463c57e077>@@@?$__crt_seh_guarded_call@X@@QEAAX$$QEAV<lambda_5e887d1dcbef67a5eb4283622ba103bf>@@AEAV<lambda_4466841279450cc726390878d4a41900>@@$$QEAV<lambda_341c25c0346d94847f1f3c463c57e077>@@@Z 0000000180067340     libucrt:per_thread_data.obj
 0004:0000234c       $pdata$??$?RV<lambda_72d1df2b273a38828b1ce30cbf4cdab5>@@AEAV<lambda_876a65b173b8412d3a47c70a915b0cf4>@@V<lambda_41932305e351933ebe8f8be3ed8bb5dc>@@@?$__crt_seh_guarded_call@X@@QEAAX$$QEAV<lambda_72d1df2b273a38828b1ce30cbf4cdab5>@@AEAV<lambda_876a65b173b8412d3a47c70a915b0cf4>@@$$QEAV<lambda_41932305e351933ebe8f8be3ed8bb5dc>@@@Z 000000018006734c     libucrt:per_thread_data.obj
 0004:00002358       $pdata$??$?RV<lambda_fb3a7dec4e47f37f22dae91bb15c9095>@@AEAV<lambda_698284760c8add0bfb0756c19673e34b>@@V<lambda_dfb8eca1e75fef3034a8fb18dd509707>@@@?$__crt_seh_guarded_call@X@@QEAAX$$QEAV<lambda_fb3a7dec4e47f37f22dae91bb15c9095>@@AEAV<lambda_698284760c8add0bfb0756c19673e34b>@@$$QEAV<lambda_dfb8eca1e75fef3034a8fb18dd509707>@@@Z 0000000180067358     libucrt:per_thread_data.obj
 0004:00002364       $pdata$?construct_ptd_array@@YAXQEAU__acrt_ptd@@@Z 0000000180067364     libucrt:per_thread_data.obj
 0004:00002370       $pdata$?destroy_fls@@YAXPEAX@Z 0000000180067370     libucrt:per_thread_data.obj
 0004:0000237c       $pdata$?destroy_ptd_array@@YAXQEAU__acrt_ptd@@@Z 000000018006737c     libucrt:per_thread_data.obj
 0004:00002388       $pdata$?replace_current_thread_locale_nolock@@YAXQEAU__acrt_ptd@@QEAU__crt_locale_data@@@Z 0000000180067388     libucrt:per_thread_data.obj
 0004:00002394       $pdata$__acrt_freeptd      0000000180067394     libucrt:per_thread_data.obj
 0004:000023a0       $pdata$__acrt_getptd       00000001800673a0     libucrt:per_thread_data.obj
 0004:000023ac       $pdata$__acrt_getptd_noexit 00000001800673ac     libucrt:per_thread_data.obj
 0004:000023b8       $pdata$__acrt_initialize_ptd 00000001800673b8     libucrt:per_thread_data.obj
 0004:000023c4       $pdata$__acrt_uninitialize_ptd 00000001800673c4     libucrt:per_thread_data.obj
 0004:000023d0       $pdata$strtol              00000001800673d0     libucrt:strtox.obj
 0004:000023dc       $pdata$wcstol              00000001800673dc     libucrt:strtox.obj
 0004:000023e8       $pdata$_mbtowc_l           00000001800673e8     libucrt:mbtowc.obj
 0004:000023f4       $pdata$_wctomb_s_l         00000001800673f4     libucrt:wctomb.obj
 0004:00002400       $pdata$wctomb_s            0000000180067400     libucrt:wctomb.obj
 0004:0000240c       $pdata$__acrt_update_locale_info 000000018006740c     libucrt:locale_update.obj
 0004:00002418       $pdata$__acrt_update_multibyte_info 0000000180067418     libucrt:locale_update.obj
 0004:00002424       $pdata$?fp_format_a@@YAHQEBNPEAD_KQEAD2H_NIQEAU__crt_locale_pointers@@@Z 0000000180067424     libucrt:cvt.obj
 0004:00002430       $pdata$?fp_format_e@@YAHQEBNQEAD_K12H_NIQEAU__crt_locale_pointers@@@Z 0000000180067430     libucrt:cvt.obj
 0004:0000243c       $pdata$?fp_format_e_internal@@YAHQEAD_KH_NIQEAU_strflt@@2QEAU__crt_locale_pointers@@@Z 000000018006743c     libucrt:cvt.obj
 0004:00002448       $pdata$?fp_format_f_internal@@YAHQEAD_KHQEAU_strflt@@_NQEAU__crt_locale_pointers@@@Z 0000000180067448     libucrt:cvt.obj
 0004:00002454       $pdata$?fp_format_g@@YAHQEBNQEAD_K12H_NIQEAU__crt_locale_pointers@@@Z 0000000180067454     libucrt:cvt.obj
 0004:00002460       $pdata$?fp_format_nan_or_infinity@@YAHW4__acrt_fp_class@@_NPEAD_K1@Z 0000000180067460     libucrt:cvt.obj
 0004:0000246c       $pdata$__acrt_fp_format    000000018006746c     libucrt:cvt.obj
 0004:00002478       $pdata$_fputwc_nolock      0000000180067478     libucrt:fputwc.obj
 0004:00002484       $pdata$_fileno             0000000180067484     libucrt:fileno.obj
 0004:00002490       $pdata$__acrt_initialize_stdio 0000000180067490     libucrt:_file.obj
 0004:0000249c       $pdata$__acrt_uninitialize_stdio 000000018006749c     libucrt:_file.obj
 0004:000024a8       $pdata$__acrt_stdio_begin_temporary_buffering_nolock 00000001800674a8     libucrt:_sftbuf.obj
 0004:000024b4       $pdata$__acrt_stdio_end_temporary_buffering_nolock 00000001800674b4     libucrt:_sftbuf.obj
 0004:000024c0       $pdata$??$?RV<lambda_5df02c53a8f32f81fd64e5bbb78039f1>@@AEAV<lambda_2af78c5f5901b1372d98f9ab3177dfa6>@@AEAV<lambda_f51fe5fd7c79a33db34fc9310f277369>@@@?$__crt_seh_guarded_call@X@@QEAAX$$QEAV<lambda_5df02c53a8f32f81fd64e5bbb78039f1>@@AEAV<lambda_2af78c5f5901b1372d98f9ab3177dfa6>@@AEAV<lambda_f51fe5fd7c79a33db34fc9310f277369>@@@Z 00000001800674c0     libucrt:wsetlocale.obj
 0004:000024cc       $pdata$??$?RV<lambda_d67e8342c384adda8f857579ab50b2ae>@@AEAV<lambda_30712929f77e709619002f448b6a9510>@@V<lambda_4525336fd7e478d965fb7ca7a337cad8>@@@?$__crt_seh_guarded_call@X@@QEAAX$$QEAV<lambda_d67e8342c384adda8f857579ab50b2ae>@@AEAV<lambda_30712929f77e709619002f448b6a9510>@@$$QEAV<lambda_4525336fd7e478d965fb7ca7a337cad8>@@@Z 00000001800674cc     libucrt:wsetlocale.obj
 0004:000024d8       $pdata$??R<lambda_2af78c5f5901b1372d98f9ab3177dfa6>@@QEBAXXZ 00000001800674d8     libucrt:wsetlocale.obj
 0004:000024e4       $pdata$__acrt_copy_locale_name 00000001800674e4     libucrt:wsetlocale.obj
 0004:000024f0       $pdata$__acrt_uninitialize_locale 00000001800674f0     libucrt:wsetlocale.obj
 0004:000024fc       $pdata$__lc_lctowcs        00000001800674fc     libucrt:wsetlocale.obj
 0004:00002508       $pdata$__lc_wcstolc        0000000180067508     libucrt:wsetlocale.obj
 0004:00002514       $pdata$_copytlocinfo_nolock 0000000180067514     libucrt:wsetlocale.obj
 0004:00002520       $pdata$_expandlocale       0000000180067520     libucrt:wsetlocale.obj
 0004:0000252c       $pdata$_wcscats            000000018006752c     libucrt:wsetlocale.obj
 0004:00002538       $pdata$_wsetlocale         0000000180067538     libucrt:wsetlocale.obj
 0004:00002544       $pdata$_wsetlocale_get_all 0000000180067544     libucrt:wsetlocale.obj
 0004:00002550       $pdata$_wsetlocale_nolock  0000000180067550     libucrt:wsetlocale.obj
 0004:0000255c       $pdata$_wsetlocale_set_cat 000000018006755c     libucrt:wsetlocale.obj
 0004:00002568       $pdata$?initialize_inherited_file_handles_nolock@@YAXXZ 0000000180067568     libucrt:ioinit.obj
 0004:00002574       $pdata$?initialize_stdio_handles_nolock@@YAXXZ 0000000180067574     libucrt:ioinit.obj
 0004:00002580       $pdata$__acrt_initialize_lowio 0000000180067580     libucrt:ioinit.obj
 0004:0000258c       $pdata$__acrt_uninitialize_lowio 000000018006758c     libucrt:ioinit.obj
 0004:00002598       $pdata$_except1            0000000180067598     libucrt:fpexcept.obj
 0004:000025a4       $pdata$_handle_exc         00000001800675a4     libucrt:fpexcept.obj
 0004:000025b0       $pdata$_raise_exc          00000001800675b0     libucrt:fpexcept.obj
 0004:000025bc       $pdata$_raise_exc_ex       00000001800675bc     libucrt:fpexcept.obj
 0004:000025c8       $pdata$_set_errno_from_matherr 00000001800675c8     libucrt:fpexcept.obj
 0004:000025d4       $pdata$_umatherr           00000001800675d4     libucrt:fpexcept.obj
 0004:000025e0       $pdata$_clrfp              00000001800675e0     libucrt:fpctrl.obj
 0004:000025ec       $pdata$_ctrlfp             00000001800675ec     libucrt:fpctrl.obj
 0004:000025f8       $pdata$_set_statfp         00000001800675f8     libucrt:fpctrl.obj
 0004:00002604       $pdata$_statfp             0000000180067604     libucrt:fpctrl.obj
 0004:00002610       $pdata$??$common_xtox@K_W@@YAHKQEA_W_KI_N@Z 0000000180067610     libucrt:xtoa.obj
 0004:0000261c       $pdata$??$common_xtox_s@K_W@@YAHKQEA_W_KI_N@Z 000000018006761c     libucrt:xtoa.obj
 0004:00002628       $pdata$_itow_s             0000000180067628     libucrt:xtoa.obj
 0004:00002634       $pdata$_set_error_mode     0000000180067634     libucrt:set_error_mode.obj
 0004:00002640       $pdata$wcscat_s            0000000180067640     libucrt:wcscat_s.obj
 0004:0000264c       $pdata$wcsncat_s           000000018006764c     libucrt:wcsncat_s.obj
 0004:00002658       $pdata$??$message_box_wait_thread@_W@@YAKQEAX@Z 0000000180067658     libucrt:crtmbox.obj
 0004:00002664       $pdata$__acrt_show_wide_message_box 0000000180067664     libucrt:crtmbox.obj
 0004:00002670       $pdata$__acrt_stdio_flush_nolock 0000000180067670     libucrt:fflush.obj
 0004:0000267c       $pdata$_fflush_nolock      000000018006767c     libucrt:fflush.obj
 0004:00002688       $pdata$common_flush_all    0000000180067688     libucrt:fflush.obj
 0004:00002694       $pdata$fflush              0000000180067694     libucrt:fflush.obj
 0004:000026a0       $pdata$??$?RV<lambda_7a5ef57ff966f610505f1d28a3d40618>@@AEAV<lambda_b721fa326cdb32351d23dfa67958c160>@@V<lambda_5e0fb27672408a07956fe59e48ccb2aa>@@@?$__crt_seh_guarded_call@H@@QEAAH$$QEAV<lambda_7a5ef57ff966f610505f1d28a3d40618>@@AEAV<lambda_b721fa326cdb32351d23dfa67958c160>@@$$QEAV<lambda_5e0fb27672408a07956fe59e48ccb2aa>@@@Z 00000001800676a0     libucrt:setvbuf.obj
 0004:000026ac       $pdata$??R<lambda_b721fa326cdb32351d23dfa67958c160>@@QEBAHXZ 00000001800676ac     libucrt:setvbuf.obj
 0004:000026b8       $pdata$setvbuf             00000001800676b8     libucrt:setvbuf.obj
 0004:000026c4       $pdata$?<helper_func_cdecl>@<lambda_e2bb8337c48846e80c921ea5ddadc92d>@@CAHPEA_W@Z 00000001800676c4     libucrt:winapi_thunks.obj
 0004:000026d0       $pdata$??$?RV<lambda_630b2aca97f6d20d5b5ea6529ea6b6af>@@AEAV<lambda_af91936f1d075d609f72d9d8cba980af>@@V<lambda_e82fa975f615b5c7c7b0e4d178fdae67>@@@?$__crt_seh_guarded_call@H@@QEAAH$$QEAV<lambda_630b2aca97f6d20d5b5ea6529ea6b6af>@@AEAV<lambda_af91936f1d075d609f72d9d8cba980af>@@$$QEAV<lambda_e82fa975f615b5c7c7b0e4d178fdae67>@@@Z 00000001800676d0     libucrt:winapi_thunks.obj
 0004:000026dc       $pdata$?try_get_function@@YAPEAXW4function_id@?A0x63058377@@QEBDQEBW4module_id@2@2@Z 00000001800676dc     libucrt:winapi_thunks.obj
 0004:000026e8       $pdata$__acrt_EnumSystemLocalesEx 00000001800676e8     libucrt:winapi_thunks.obj
 0004:000026f4       $pdata$__acrt_FlsAlloc     00000001800676f4     libucrt:winapi_thunks.obj
 0004:00002700       $pdata$__acrt_FlsFree      0000000180067700     libucrt:winapi_thunks.obj
 0004:0000270c       $pdata$__acrt_FlsGetValue  000000018006770c     libucrt:winapi_thunks.obj
 0004:00002718       $pdata$__acrt_FlsSetValue  0000000180067718     libucrt:winapi_thunks.obj
 0004:00002724       $pdata$__acrt_GetLocaleInfoEx 0000000180067724     libucrt:winapi_thunks.obj
 0004:00002730       $pdata$__acrt_GetUserDefaultLocaleName 0000000180067730     libucrt:winapi_thunks.obj
 0004:0000273c       $pdata$__acrt_InitializeCriticalSectionEx 000000018006773c     libucrt:winapi_thunks.obj
 0004:00002748       $pdata$__acrt_IsValidLocaleName 0000000180067748     libucrt:winapi_thunks.obj
 0004:00002754       $pdata$__acrt_LCIDToLocaleName 0000000180067754     libucrt:winapi_thunks.obj
 0004:00002760       $pdata$__acrt_LCMapStringEx 0000000180067760     libucrt:winapi_thunks.obj
 0004:0000276c       $pdata$__acrt_LocaleNameToLCID 000000018006776c     libucrt:winapi_thunks.obj
 0004:00002778       $pdata$__acrt_MessageBoxW  0000000180067778     libucrt:winapi_thunks.obj
 0004:00002784       $pdata$__acrt_can_show_message_box 0000000180067784     libucrt:winapi_thunks.obj
 0004:00002790       $pdata$__acrt_can_use_vista_locale_apis 0000000180067790     libucrt:winapi_thunks.obj
 0004:0000279c       $pdata$__acrt_get_parent_window 000000018006779c     libucrt:winapi_thunks.obj
 0004:000027a8       $pdata$__acrt_initialize_winapi_thunks 00000001800677a8     libucrt:winapi_thunks.obj
 0004:000027b4       $pdata$__acrt_is_interactive 00000001800677b4     libucrt:winapi_thunks.obj
 0004:000027c0       $pdata$__acrt_is_packaged_app 00000001800677c0     libucrt:winapi_thunks.obj
 0004:000027cc       $pdata$__acrt_uninitialize_winapi_thunks 00000001800677cc     libucrt:winapi_thunks.obj
 0004:000027d8       $pdata$?_mbstowcs_l_helper@@YA_KPEA_WPEBD_KPEAU__crt_locale_pointers@@@Z 00000001800677d8     libucrt:mbstowcs.obj
 0004:000027e4       $pdata$_mbstowcs_s_l       00000001800677e4     libucrt:mbstowcs.obj
 0004:000027f0       $pdata$mbstowcs_s          00000001800677f0     libucrt:mbstowcs.obj
 0004:000027fc       $pdata$?_wcstombs_l_helper@@YA_KPEADPEB_W_KPEAU__crt_locale_pointers@@@Z 00000001800677fc     libucrt:wcstombs.obj
 0004:00002808       $pdata$_wcstombs_s_l       0000000180067808     libucrt:wcstombs.obj
 0004:00002814       $pdata$__acrt_initialize_heap 0000000180067814     libucrt:heap_handle.obj
 0004:00002820       $pdata$_isctype_l          0000000180067820     libucrt:isctype.obj
 0004:0000282c       $pdata$?InternalGetLocaleInfoA@@YAHQEAU__crt_locale_pointers@@QEB_WKQEADH@Z 000000018006782c     libucrt:getlocaleinfoa.obj
 0004:00002838       $pdata$__acrt_GetLocaleInfoA 0000000180067838     libucrt:getlocaleinfoa.obj
 0004:00002844       $pdata$__acrt_GetStringTypeA 0000000180067844     libucrt:getstringtypea.obj
 0004:00002850       $pdata$?__acrt_LCMapStringA_stat@@YAHPEAU__crt_locale_pointers@@PEB_WKPEBDHPEADHHH@Z 0000000180067850     libucrt:lcmapstringa.obj
 0004:0000285c       $pdata$__acrt_LCMapStringA 000000018006785c     libucrt:lcmapstringa.obj
 0004:00002868       $pdata$_wcsicmp            0000000180067868     libucrt:wcsicmp.obj
 0004:00002874       $pdata$_wcsicmp_l          0000000180067874     libucrt:wcsicmp.obj
 0004:00002880       $pdata$_isleadbyte_l       0000000180067880     libucrt:_wctype.obj
 0004:0000288c       $pdata$_call_matherr       000000018006788c     libucrt:libm_error.obj
 0004:00002898       $pdata$_exception_enabled  0000000180067898     libucrt:libm_error.obj
 0004:000028a4       $pdata$_handle_error       00000001800678a4     libucrt:libm_error.obj
 0004:000028b0       $pdata$??$?RV<lambda_99476a1ad63dd22509b5d3e65b0ffc95>@@AEAV<lambda_ad1ced32f4ac17aa236e5ef05d6b3b7c>@@V<lambda_f7424dd8d45958661754dc4f2697e9c3>@@@?$__crt_seh_guarded_call@X@@QEAAX$$QEAV<lambda_99476a1ad63dd22509b5d3e65b0ffc95>@@AEAV<lambda_ad1ced32f4ac17aa236e5ef05d6b3b7c>@@$$QEAV<lambda_f7424dd8d45958661754dc4f2697e9c3>@@@Z 00000001800678b0     libucrt:mbctype.obj
 0004:000028bc       $pdata$??R<lambda_ad1ced32f4ac17aa236e5ef05d6b3b7c>@@QEBAXXZ 00000001800678bc     libucrt:mbctype.obj
 0004:000028c8       $pdata$?getSystemCP@@YAHH@Z 00000001800678c8     libucrt:mbctype.obj
 0004:000028d4       $pdata$?setSBCS@@YAXPEAU__crt_multibyte_data@@@Z 00000001800678d4     libucrt:mbctype.obj
 0004:000028e0       $pdata$?setSBUpLow@@YAXPEAU__crt_multibyte_data@@@Z 00000001800678e0     libucrt:mbctype.obj
 0004:000028ec       $pdata$?setmbcp_internal@@YAHH_N@Z 00000001800678ec     libucrt:mbctype.obj
 0004:000028f8       $pdata$__acrt_initialize_multibyte 00000001800678f8     libucrt:mbctype.obj
 0004:00002904       $pdata$__acrt_update_thread_multibyte_data 0000000180067904     libucrt:mbctype.obj
 0004:00002910       $pdata$_setmbcp_nolock     0000000180067910     libucrt:mbctype.obj
 0004:0000291c       $pdata$__dcrt_get_narrow_environment_from_os 000000018006791c     libucrt:get_environment_from_os.obj
 0004:00002928       $pdata$_recalloc_base      0000000180067928     libucrt:recalloc.obj
 0004:00002934       $pdata$__acrt_initialize_command_line 0000000180067934     libucrt:argv_data.obj
 0004:00002940       $pdata$__acrt_execute_initializers 0000000180067940     libucrt:shared_initialization.obj
 0004:0000294c       $pdata$__acrt_execute_uninitializers 000000018006794c     libucrt:shared_initialization.obj
 0004:00002958       $pdata$__acrt_invoke_user_matherr 0000000180067958     libucrt:matherr.obj
 0004:00002964       $pdata$iswctype            0000000180067964     libucrt:iswctype.obj
 0004:00002970       $pdata$__acrt_free_locale  0000000180067970     libucrt:locale_refcounting.obj
 0004:0000297c       $pdata$__acrt_locale_free_lc_time_if_unreferenced 000000018006797c     libucrt:locale_refcounting.obj
 0004:00002988       $pdata$__acrt_release_locale_ref 0000000180067988     libucrt:locale_refcounting.obj
 0004:00002994       $pdata$__acrt_update_thread_locale_data 0000000180067994     libucrt:locale_refcounting.obj
 0004:000029a0       $pdata$_updatetlocinfoEx_nolock 00000001800679a0     libucrt:locale_refcounting.obj
 0004:000029ac       $pdata$__acrt_fp_strflt_to_string 00000001800679ac     libucrt:_fptostr.obj
 0004:000029b8       $pdata$?divide@__crt_strtox@@YA_KAEAUbig_integer@1@AEBU21@@Z 00000001800679b8     libucrt:cfout.obj
 0004:000029c4       $pdata$5$?divide@__crt_strtox@@YA_KAEAUbig_integer@1@AEBU21@@Z 00000001800679c4     libucrt:cfout.obj
 0004:000029d0       $pdata$6$?divide@__crt_strtox@@YA_KAEAUbig_integer@1@AEBU21@@Z 00000001800679d0     libucrt:cfout.obj
 0004:000029dc       $pdata$__acrt_fltout       00000001800679dc     libucrt:cfout.obj
 0004:000029e8       $pdata$memcpy_s            00000001800679e8     libucrt:cfout.obj
 0004:000029f4       $pdata$??$write_buffer_nolock@D@@YA_NDV__crt_stdio_stream@@@Z 00000001800679f4     libucrt:_flsbuf.obj
 0004:00002a00       $pdata$??$write_buffer_nolock@_W@@YA_N_WV__crt_stdio_stream@@@Z 0000000180067a00     libucrt:_flsbuf.obj
 0004:00002a0c       $pdata$__acrt_stdio_flush_and_write_narrow_nolock 0000000180067a0c     libucrt:_flsbuf.obj
 0004:00002a18       $pdata$__acrt_stdio_flush_and_write_wide_nolock 0000000180067a18     libucrt:_flsbuf.obj
 0004:00002a24       $pdata$_fcloseall          0000000180067a24     libucrt:closeall.obj
 0004:00002a30       $pdata$__acrt_stdio_free_buffer_nolock 0000000180067a30     libucrt:_freebuf.obj
 0004:00002a3c       $pdata$_isatty             0000000180067a3c     libucrt:isatty.obj
 0004:00002a48       $pdata$__acrt_locale_free_monetary 0000000180067a48     libucrt:initmon.obj
 0004:00002a54       $pdata$__acrt_locale_initialize_monetary 0000000180067a54     libucrt:initmon.obj
 0004:00002a60       $pdata$__acrt_locale_free_numeric 0000000180067a60     libucrt:initnum.obj
 0004:00002a6c       $pdata$__acrt_locale_initialize_numeric 0000000180067a6c     libucrt:initnum.obj
 0004:00002a78       $pdata$?free_crt_array_internal@@YAXQEAPEBX_K@Z 0000000180067a78     libucrt:inittime.obj
 0004:00002a84       $pdata$?initialize_lc_time@@YA_NQEAU__crt_lc_time_data@@QEAU__crt_locale_data@@@Z 0000000180067a84     libucrt:inittime.obj
 0004:00002a90       $pdata$__acrt_locale_free_time 0000000180067a90     libucrt:inittime.obj
 0004:00002a9c       $pdata$__acrt_locale_initialize_time 0000000180067a9c     libucrt:inittime.obj
 0004:00002aa8       $pdata$wcsncpy_s           0000000180067aa8     libucrt:wcsncpy_s.obj
 0004:00002ab4       $pdata$GetLocaleNameFromDefault 0000000180067ab4     libucrt:get_qualified_locale.obj
 0004:00002ac0       $pdata$GetLocaleNameFromLangCountry 0000000180067ac0     libucrt:get_qualified_locale.obj
 0004:00002acc       $pdata$GetLocaleNameFromLanguage 0000000180067acc     libucrt:get_qualified_locale.obj
 0004:00002ad8       $pdata$LangCountryEnumProcEx 0000000180067ad8     libucrt:get_qualified_locale.obj
 0004:00002ae4       $pdata$LanguageEnumProcEx  0000000180067ae4     libucrt:get_qualified_locale.obj
 0004:00002af0       $pdata$ProcessCodePage     0000000180067af0     libucrt:get_qualified_locale.obj
 0004:00002afc       $pdata$TestDefaultCountry  0000000180067afc     libucrt:get_qualified_locale.obj
 0004:00002b08       $pdata$TranslateName       0000000180067b08     libucrt:get_qualified_locale.obj
 0004:00002b14       $pdata$__acrt_get_qualified_locale 0000000180067b14     libucrt:get_qualified_locale.obj
 0004:00002b20       $pdata$CountryEnumProc     0000000180067b20     libucrt:getqloc_downlevel.obj
 0004:00002b2c       $pdata$GetLcidFromLangCountry 0000000180067b2c     libucrt:getqloc_downlevel.obj
 0004:00002b38       $pdata$GetLcidFromLanguage 0000000180067b38     libucrt:getqloc_downlevel.obj
 0004:00002b44       $pdata$LangCountryEnumProc 0000000180067b44     libucrt:getqloc_downlevel.obj
 0004:00002b50       $pdata$LanguageEnumProc    0000000180067b50     libucrt:getqloc_downlevel.obj
 0004:00002b5c       $pdata$ProcessCodePage     0000000180067b5c     libucrt:getqloc_downlevel.obj
 0004:00002b68       $pdata$TestDefaultLanguage 0000000180067b68     libucrt:getqloc_downlevel.obj
 0004:00002b74       $pdata$TranslateName       0000000180067b74     libucrt:getqloc_downlevel.obj
 0004:00002b80       $pdata$__acrt_get_qualified_locale_downlevel 0000000180067b80     libucrt:getqloc_downlevel.obj
 0004:00002b8c       $pdata$__acrt_lowio_create_handle_array 0000000180067b8c     libucrt:osfinfo.obj
 0004:00002b98       $pdata$__acrt_lowio_destroy_handle_array 0000000180067b98     libucrt:osfinfo.obj
 0004:00002ba4       $pdata$__acrt_lowio_ensure_fh_exists 0000000180067ba4     libucrt:osfinfo.obj
 0004:00002bb0       $pdata$_free_osfhnd        0000000180067bb0     libucrt:osfinfo.obj
 0004:00002bbc       $pdata$_get_osfhandle      0000000180067bbc     libucrt:osfinfo.obj
 0004:00002bd4       $pdata$??$?RV<lambda_b521505b218e5242e90febf6bfebc422>@@AEAV<lambda_6978c1fb23f02e42e1d9e99668cc68aa>@@V<lambda_314360699dd331753a4119843814e9a7>@@@?$__crt_seh_guarded_call@H@@QEAAH$$QEAV<lambda_b521505b218e5242e90febf6bfebc422>@@AEAV<lambda_6978c1fb23f02e42e1d9e99668cc68aa>@@$$QEAV<lambda_314360699dd331753a4119843814e9a7>@@@Z 0000000180067bd4     libucrt:commit.obj
 0004:00002be0       $pdata$_commit             0000000180067be0     libucrt:commit.obj
 0004:00002bec       $pdata$?write_double_translated_ansi_nolock@@YA?AUwrite_result@?A0x9c548279@@HQEBDI@Z 0000000180067bec     libucrt:write.obj
 0004:00002bf8       $pdata$?write_text_ansi_nolock@@YA?AUwrite_result@?A0x9c548279@@HQEBDI@Z 0000000180067bf8     libucrt:write.obj
 0004:00002c04       $pdata$?write_text_utf16le_nolock@@YA?AUwrite_result@?A0x9c548279@@HQEBDI@Z 0000000180067c04     libucrt:write.obj
 0004:00002c10       $pdata$?write_text_utf8_nolock@@YA?AUwrite_result@?A0x9c548279@@HQEBDI@Z 0000000180067c10     libucrt:write.obj
 0004:00002c1c       $pdata$_write              0000000180067c1c     libucrt:write.obj
 0004:00002c28       $pdata$_write_nolock       0000000180067c28     libucrt:write.obj
 0004:00002c34       $pdata$?GetTableIndexFromLocaleName@@YAHPEB_W@Z 0000000180067c34     libucrt:lcidtoname_downlevel.obj
 0004:00002c40       $pdata$__acrt_DownlevelLCIDToLocaleName 0000000180067c40     libucrt:lcidtoname_downlevel.obj
 0004:00002c4c       $pdata$__acrt_DownlevelLocaleNameToLCID 0000000180067c4c     libucrt:lcidtoname_downlevel.obj
 0004:00002c58       $pdata$strncpy_s           0000000180067c58     libucrt:strncpy_s.obj
 0004:00002c64       $pdata$_towlower_l         0000000180067c64     libucrt:towlower.obj
 0004:00002c70       $pdata$?initialize_multibyte@@YAHXZ 0000000180067c70     libucrt:multibyte_initializer.obj
 0004:00002c7c       $pdata$_msize              0000000180067c7c     libucrt:msize.obj
 0004:00002c88       $pdata$fegetenv            0000000180067c88     libucrt:fegetenv.obj
 0004:00002c94       $pdata$fesetenv            0000000180067c94     libucrt:fesetenv.obj
 0004:00002ca0       $pdata$feholdexcept        0000000180067ca0     libucrt:feholdexcept.obj
 0004:00002cb8       $pdata$??$common_lseek@_J@@YA_JH_JH@Z 0000000180067cb8     libucrt:lseek.obj
 0004:00002cc4       $pdata$??$common_lseek_nolock@_J@@YA_JH_JH@Z 0000000180067cc4     libucrt:lseek.obj
 0004:00002cd0       $pdata$__acrt_stdio_allocate_buffer_nolock 0000000180067cd0     libucrt:_getbuf.obj
 0004:00002cdc       $pdata$_fclose_nolock      0000000180067cdc     libucrt:fclose.obj
 0004:00002ce8       $pdata$fclose              0000000180067ce8     libucrt:fclose.obj
 0004:00002cf4       $pdata$_wcsnicmp           0000000180067cf4     libucrt:wcsnicmp.obj
 0004:00002d00       $pdata$_wcsnicmp_l         0000000180067d00     libucrt:wcsnicmp.obj
 0004:00002d0c       $pdata$_getfpcontrolword   0000000180067d0c     libucrt:_fenvutils.obj
 0004:00002d18       $pdata$_getfpstatusword    0000000180067d18     libucrt:_fenvutils.obj
 0004:00002d24       $pdata$_setfpstatusword    0000000180067d24     libucrt:_fenvutils.obj
 0004:00002d30       $pdata$_putwch_nolock      0000000180067d30     libucrt:putwch.obj
 0004:00002d3c       $pdata$__acrt_LCMapStringW 0000000180067d3c     libucrt:lcmapstringw.obj
 0004:00002d48       $pdata$_clearfp            0000000180067d48     libucrt:ieee.obj
 0004:00002d54       $pdata$common_control87    0000000180067d54     libucrt:ieee.obj
 0004:00002d60       $pdata$__acrt_initialize_fma3 0000000180067d60     libucrt:fma3_available.obj
 0004:00002d6c       $pdata$_log10_special      0000000180067d6c     libucrt:log_special.obj
 0004:00002d78       $pdata$_log_special_common 0000000180067d78     libucrt:log_special.obj
 0004:00002d84       $pdata$??$?RV<lambda_bfedae4ebbf01fab1bb6dcc6a9e276e0>@@AEAV<lambda_2fe9b910cf3cbf4a0ab98a02ba45b3ec>@@V<lambda_237c231691f317818eb88cc1d5d642d6>@@@?$__crt_seh_guarded_call@H@@QEAAH$$QEAV<lambda_bfedae4ebbf01fab1bb6dcc6a9e276e0>@@AEAV<lambda_2fe9b910cf3cbf4a0ab98a02ba45b3ec>@@$$QEAV<lambda_237c231691f317818eb88cc1d5d642d6>@@@Z 0000000180067d84     libucrt:close.obj
 0004:00002d90       $pdata$_close              0000000180067d90     libucrt:close.obj
 0004:00002d9c       $pdata$_close_nolock       0000000180067d9c     libucrt:close.obj
 0004:00002da8       $pdata$__dcrt_lowio_initialize_console_output 0000000180067da8     libucrt:initcon.obj
 0004:00002db4       $pdata$__dcrt_terminate_console_output 0000000180067db4     libucrt:initcon.obj
 0004:00002dc0       $pdata$?DloadAcquireSectionWriteAccess@@YAXXZ 0000000180067dc0     DelayImp:delayhlp.obj
 0004:00002dcc       $pdata$?DloadGetSRWLockFunctionPointers@@YAEXZ 0000000180067dcc     DelayImp:delayhlp.obj
 0004:00002dd8       $pdata$?DloadMakePermanentImageCommit@@YAXPEAX_K@Z 0000000180067dd8     DelayImp:delayhlp.obj
 0004:00002de4       $pdata$?DloadObtainSection@@YAPEAXPEAK0@Z 0000000180067de4     DelayImp:delayhlp.obj
 0004:00002df0       $pdata$?DloadProtectSection@@YAXKPEAK@Z 0000000180067df0     DelayImp:delayhlp.obj
 0004:00002dfc       $pdata$?DloadReleaseSectionWriteAccess@@YAXXZ 0000000180067dfc     DelayImp:delayhlp.obj
 0004:00002e08       $pdata$__delayLoadHelper2  0000000180067e08     DelayImp:delayhlp.obj
 0004:00002e14       $pdata$_IsNonwritableInCurrentImage 0000000180067e14     LIBCMT:pesect.obj
 0004:00002e20       $pdata$strrchr             0000000180067e20     libvcruntime:strrchr.obj
 0004:00002e2c       $pdata$wcschr              0000000180067e2c     libvcruntime:wcschr.obj
 0004:00002e44       $pdata$?dtor$0@?0??_Getcat@?$ctype@D@std@@SA_KPEAPEBVfacet@locale@2@PEBV42@@Z@4HA 0000000180067e44     njsOracle.obj
 0004:00002e50       $pdata$?dtor$0@?0???0?$basic_streambuf@DU?$char_traits@D@std@@@std@@IEAA@XZ@4HA 0000000180067e50     njsOracle.obj
 0004:00002e50       $pdata$?dtor$0@?0??_Init@ios_base@std@@IEAAXXZ@4HA 0000000180067e50     njsOracle.obj
 0004:00002e5c       $pdata$?dtor$4@?0???0Oracledb@@AEAA@XZ@4HA 0000000180067e5c     njsOracle.obj
 0004:00002e68       $pdata$?dtor$0@?0??New@Oracledb@@CAXAEBV?$FunctionCallbackInfo@VValue@v8@@@Nan@@@Z@4HA 0000000180067e68     njsOracle.obj
 0004:00002e74       $pdata$?dtor$2@?0??GetConnection@Oracledb@@CAXAEBV?$FunctionCallbackInfo@VValue@v8@@@Nan@@@Z@4HA 0000000180067e74     njsOracle.obj
 0004:00002e80       $pdata$?catch$0@?0??Async_GetConnection@Oracledb@@CAXPEAUuv_work_s@@@Z@4HA 0000000180067e80     njsOracle.obj
 0004:00002e8c       $pdata$?dtor$3@?0??CreatePool@Oracledb@@CAXAEBV?$FunctionCallbackInfo@VValue@v8@@@Nan@@@Z@4HA 0000000180067e8c     njsOracle.obj
 0004:00002e98       $pdata$?catch$0@?0??Async_CreatePool@Oracledb@@CAXPEAUuv_work_s@@@Z@4HA 0000000180067e98     njsOracle.obj
 0004:00002ea4       $pdata$?dtor$0@?0???0?$basic_stringstream@DU?$char_traits@D@std@@V?$allocator@D@2@@std@@QEAA@H@Z@4HA 0000000180067ea4     njsOracle.obj
 0004:00002eb0       $pdata$?dtor$0@?0??_Getcat@?$numpunct@D@std@@SA_KPEAPEBVfacet@locale@2@PEBV42@@Z@4HA 0000000180067eb0     njsOracle.obj
 0004:00002ebc       $pdata$?dtor$1@?0??_Getcat@?$numpunct@D@std@@SA_KPEAPEBVfacet@locale@2@PEBV42@@Z@4HA 0000000180067ebc     njsOracle.obj
 0004:00002ec8       $pdata$?dtor$0@?0??_Getcat@?$num_put@DV?$ostreambuf_iterator@DU?$char_traits@D@std@@@std@@@std@@SA_KPEAPEBVfacet@locale@2@PEBV42@@Z@4HA 0000000180067ec8     njsOracle.obj
 0004:00002ed4       $pdata$?catch$0@?0??GetConnectionsOpen@Pool@@CAXV?$Local@VString@v8@@@v8@@AEBV?$PropertyCallbackInfo@VValue@v8@@@Nan@@@Z@4HA 0000000180067ed4     njsPool.obj
 0004:00002ee0       $pdata$?catch$0@?0??GetConnectionsInUse@Pool@@CAXV?$Local@VString@v8@@@v8@@AEBV?$PropertyCallbackInfo@VValue@v8@@@Nan@@@Z@4HA 0000000180067ee0     njsPool.obj
 0004:00002eec       $pdata$?dtor$2@?0??Terminate@Pool@@CAXAEBV?$FunctionCallbackInfo@VValue@v8@@@Nan@@@Z@4HA 0000000180067eec     njsPool.obj
 0004:00002eec       $pdata$?dtor$2@?0??GetConnection@Pool@@CAXAEBV?$FunctionCallbackInfo@VValue@v8@@@Nan@@@Z@4HA 0000000180067eec     njsPool.obj
 0004:00002ef8       $pdata$?catch$0@?0??Async_GetConnection@Pool@@CAXPEAUuv_work_s@@@Z@4HA 0000000180067ef8     njsPool.obj
 0004:00002f04       $pdata$?catch$0@?0??Async_Terminate@Pool@@CAXPEAUuv_work_s@@@Z@4HA 0000000180067f04     njsPool.obj
 0004:00002f10       $pdata$?catch$0@?0??GetStmtCacheSize@Connection@@CAXV?$Local@VString@v8@@@v8@@AEBV?$PropertyCallbackInfo@VValue@v8@@@Nan@@@Z@4HA 0000000180067f10     njsConnection.obj
 0004:00002f1c       $pdata$?catch$0@?0??SetClientId@Connection@@CAXV?$Local@VString@v8@@@v8@@V?$Local@VValue@v8@@@3@AEBV?$PropertyCallbackInfo@X@Nan@@@Z@4HA 0000000180067f1c     njsConnection.obj
 0004:00002f28       $pdata$?catch$0@?0??SetModule@Connection@@CAXV?$Local@VString@v8@@@v8@@V?$Local@VValue@v8@@@3@AEBV?$PropertyCallbackInfo@X@Nan@@@Z@4HA 0000000180067f28     njsConnection.obj
 0004:00002f34       $pdata$?catch$0@?0??SetAction@Connection@@CAXV?$Local@VString@v8@@@v8@@V?$Local@VValue@v8@@@3@AEBV?$PropertyCallbackInfo@X@Nan@@@Z@4HA 0000000180067f34     njsConnection.obj
 0004:00002f40       $pdata$?catch$0@?0??GetOracleServerVersion@Connection@@CAXV?$Local@VString@v8@@@v8@@AEBV?$PropertyCallbackInfo@VValue@v8@@@Nan@@@Z@4HA 0000000180067f40     njsConnection.obj
 0004:00002f4c       $pdata$?dtor$3@?0??Execute@Connection@@CAXAEBV?$FunctionCallbackInfo@VValue@v8@@@Nan@@@Z@4HA 0000000180067f4c     njsConnection.obj
 0004:00002f58       $pdata$?dtor$8@?0??ProcessOptions@Connection@@CAXAEBV?$FunctionCallbackInfo@VValue@v8@@@Nan@@IPEAUeBaton@@@Z@4HA 0000000180067f58     njsConnection.obj
 0004:00002f64       $pdata$?dtor$2@?0??GetBinds@Connection@@CAXV?$Local@VObject@v8@@@v8@@PEAUeBaton@@@Z@4HA 0000000180067f64     njsConnection.obj
 0004:00002f70       $pdata$?dtor$1@?0??GetBinds@Connection@@CAXV?$Local@VArray@v8@@@v8@@PEAUeBaton@@@Z@4HA 0000000180067f70     njsConnection.obj
 0004:00002f7c       $pdata$?dtor$1@?0??Async_Execute@Connection@@CAXPEAUuv_work_s@@@Z@4HA 0000000180067f7c     njsConnection.obj
 0004:00002f88       $pdata$?dtor$8@?0??Async_Execute@Connection@@CAXPEAUuv_work_s@@@Z@4HA 0000000180067f88     njsConnection.obj
 0004:00002f94       $pdata$?catch$0@?0??Async_Execute@Connection@@CAXPEAUuv_work_s@@@Z@4HA 0000000180067f94     njsConnection.obj
 0004:00002fa0       $pdata$?dtor$1@?0??PrepareAndBind@Connection@@CAXPEAUeBaton@@@Z@4HA 0000000180067fa0     njsConnection.obj
 0004:00002fac       $pdata$?dtor$0@?0??Descr2protoILob@Connection@@CAXPEAUeBaton@@II@Z@4HA 0000000180067fac     njsConnection.obj
 0004:00002fb8       $pdata$?dtor$1@?0??Descr2protoILob@Connection@@CAXPEAUeBaton@@II@Z@4HA 0000000180067fb8     njsConnection.obj
 0004:00002fc4       $pdata$?dtor$4@?0??Release@Connection@@CAXAEBV?$FunctionCallbackInfo@VValue@v8@@@Nan@@@Z@4HA 0000000180067fc4     njsConnection.obj
 0004:00002fd0       $pdata$?catch$0@?0??Async_Release@Connection@@CAXPEAUuv_work_s@@@Z@4HA 0000000180067fd0     njsConnection.obj
 0004:00002fdc       $pdata$?dtor$3@?0??Rollback@Connection@@CAXAEBV?$FunctionCallbackInfo@VValue@v8@@@Nan@@@Z@4HA 0000000180067fdc     njsConnection.obj
 0004:00002fdc       $pdata$?dtor$3@?0??Commit@Connection@@CAXAEBV?$FunctionCallbackInfo@VValue@v8@@@Nan@@@Z@4HA 0000000180067fdc     njsConnection.obj
 0004:00002fdc       $pdata$?dtor$3@?0??Break@Connection@@CAXAEBV?$FunctionCallbackInfo@VValue@v8@@@Nan@@@Z@4HA 0000000180067fdc     njsConnection.obj
 0004:00002fe8       $pdata$?catch$0@?0??Async_Commit@Connection@@CAXPEAUuv_work_s@@@Z@4HA 0000000180067fe8     njsConnection.obj
 0004:00002ff4       $pdata$?catch$0@?0??Async_Rollback@Connection@@CAXPEAUuv_work_s@@@Z@4HA 0000000180067ff4     njsConnection.obj
 0004:00003000       $pdata$?catch$0@?0??Async_Break@Connection@@CAXPEAUuv_work_s@@@Z@4HA 0000000180068000     njsConnection.obj
 0004:0000300c       $pdata$?dtor$2@?0???0rsBaton@@QEAA@AEAIV?$Local@VFunction@v8@@@v8@@V?$Local@VObject@v8@@@2@2@Z@4HA 000000018006800c     njsResultSet.obj
 0004:00003018       $pdata$?dtor$0@?0??setResultSet@ResultSet@@QEAAXPEAVStmt@dpi@@PEAUeBaton@@IPEBUMetaInfo@@@Z@4HA 0000000180068018     njsResultSet.obj
 0004:00003024       $pdata$?dtor$3@?0??GetRow@ResultSet@@CAXAEBV?$FunctionCallbackInfo@VValue@v8@@@Nan@@@Z@4HA 0000000180068024     njsResultSet.obj
 0004:00003030       $pdata$?dtor$3@?0??GetRows@ResultSet@@CAXAEBV?$FunctionCallbackInfo@VValue@v8@@@Nan@@@Z@4HA 0000000180068030     njsResultSet.obj
 0004:0000303c       $pdata$?catch$0@?0??Async_GetRows@ResultSet@@CAXPEAUuv_work_s@@@Z@4HA 000000018006803c     njsResultSet.obj
 0004:00003048       $pdata$?dtor$3@?0??Close@ResultSet@@CAXAEBV?$FunctionCallbackInfo@VValue@v8@@@Nan@@@Z@4HA 0000000180068048     njsResultSet.obj
 0004:00003054       $pdata$?catch$0@?0??Async_Close@ResultSet@@CAXPEAUuv_work_s@@@Z@4HA 0000000180068054     njsResultSet.obj
 0004:00003060       $pdata$?dtor$0@?0??getErrorMsg@NJSMessages@@SA?AV?$basic_string@DU?$char_traits@D@std@@V?$allocator@D@2@@std@@W4NJSErrorType@@ZZ@4HA 0000000180068060     njsMessages.obj
 0004:0000306c       $pdata$?catch$0@?0??setILob@ILob@@QEAAXPEAUeBaton@@PEAVProtoILob@@@Z@4HA 000000018006806c     njsIntLob.obj
 0004:00003078       $pdata$?catch$0@?0??GetChunkSize@ILob@@CAXV?$Local@VString@v8@@@v8@@AEBV?$PropertyCallbackInfo@VValue@v8@@@Nan@@@Z@4HA 0000000180068078     njsIntLob.obj
 0004:00003084       $pdata$?catch$0@?0??GetLength@ILob@@CAXV?$Local@VString@v8@@@v8@@AEBV?$PropertyCallbackInfo@VValue@v8@@@Nan@@@Z@4HA 0000000180068084     njsIntLob.obj
 0004:00003090       $pdata$?catch$0@?0??GetPieceSize@ILob@@CAXV?$Local@VString@v8@@@v8@@AEBV?$PropertyCallbackInfo@VValue@v8@@@Nan@@@Z@4HA 0000000180068090     njsIntLob.obj
 0004:0000309c       $pdata$?catch$0@?0??SetPieceSize@ILob@@CAXV?$Local@VString@v8@@@v8@@V?$Local@VValue@v8@@@3@AEBV?$PropertyCallbackInfo@X@Nan@@@Z@4HA 000000018006809c     njsIntLob.obj
 0004:000030a8       $pdata$?catch$0@?0??GetOffset@ILob@@CAXV?$Local@VString@v8@@@v8@@AEBV?$PropertyCallbackInfo@VValue@v8@@@Nan@@@Z@4HA 00000001800680a8     njsIntLob.obj
 0004:000030b4       $pdata$?catch$0@?0??GetType@ILob@@CAXV?$Local@VString@v8@@@v8@@AEBV?$PropertyCallbackInfo@VValue@v8@@@Nan@@@Z@4HA 00000001800680b4     njsIntLob.obj
 0004:000030c0       $pdata$?dtor$3@?0??Read@ILob@@CAXAEBV?$FunctionCallbackInfo@VValue@v8@@@Nan@@@Z@4HA 00000001800680c0     njsIntLob.obj
 0004:000030cc       $pdata$?catch$0@?0??Async_Read@ILob@@CAXPEAUuv_work_s@@@Z@4HA 00000001800680cc     njsIntLob.obj
 0004:000030d8       $pdata$?dtor$3@?0??Write@ILob@@CAXAEBV?$FunctionCallbackInfo@VValue@v8@@@Nan@@@Z@4HA 00000001800680d8     njsIntLob.obj
 0004:000030e4       $pdata$?catch$0@?0??Async_Write@ILob@@CAXPEAUuv_work_s@@@Z@4HA 00000001800680e4     njsIntLob.obj
 0004:000030f0       $pdata$?catch$0@?0???0ProtoILob@@QEAA@PEAUeBaton@@PEAUDescriptor@dpi@@G@Z@4HA 00000001800680f0     njsIntLob.obj
 0004:000030fc       $pdata$?catch$0@?0???0EnvImpl@@QEAA@AEBV?$basic_string@DU?$char_traits@D@std@@V?$allocator@D@2@@std@@II@Z@4HA 00000001800680fc     dpiEnvImpl.obj
 0004:00003108       $pdata$?dtor$0@?0??createPool@EnvImpl@@UEAAPEAVSPool@dpi@@AEBV?$basic_string@DU?$char_traits@D@std@@V?$allocator@D@2@@std@@00HHHHH_N1@Z@4HA 0000000180068108     dpiEnvImpl.obj
 0004:00003114       $pdata$?dtor$0@?0??getConnection@EnvImpl@@UEAAPEAVConn@dpi@@AEBV?$basic_string@DU?$char_traits@D@std@@V?$allocator@D@2@@std@@00H0_NW4DBPrivileges@3@@Z@4HA 0000000180068114     dpiEnvImpl.obj
 0004:00003120       $pdata$?catch$0@?0???0ConnImpl@@QEAA@PEAVEnvImpl@@PEAUOCIEnv@@_NIAEBV?$basic_string@DU?$char_traits@D@std@@V?$allocator@D@2@@std@@333W4DBPrivileges@dpi@@@Z@4HA 0000000180068120     dpiConnImpl.obj
 0004:0000312c       $pdata$?catch$0@?0???0ConnImpl@@QEAA@PEAVPoolImpl@@PEAUOCIEnv@@_NPEAEIAEBV?$basic_string@DU?$char_traits@D@std@@V?$allocator@D@2@@std@@444HW4DBPrivileges@dpi@@@Z@4HA 000000018006812c     dpiConnImpl.obj
 0004:00003138       $pdata$?dtor$0@?0??getStmt@ConnImpl@@UEAAPEAVStmt@dpi@@AEBV?$basic_string@DU?$char_traits@D@std@@V?$allocator@D@2@@std@@@Z@4HA 0000000180068138     dpiConnImpl.obj
 0004:00003144       $pdata$?catch$0@?0???0PoolImpl@@QEAA@PEAVEnvImpl@@PEAUOCIEnv@@AEBV?$basic_string@DU?$char_traits@D@std@@V?$allocator@D@2@@std@@22HHHH_NH3@Z@4HA 0000000180068144     dpiPoolImpl.obj
 0004:00003150       $pdata$?dtor$0@?0??getConnection@PoolImpl@@UEAAPEAVConn@dpi@@AEBV?$basic_string@DU?$char_traits@D@std@@V?$allocator@D@2@@std@@000HW4DBPrivileges@3@@Z@4HA 0000000180068150     dpiPoolImpl.obj
 0004:0000315c       $pdata$?catch$0@?0???0StmtImpl@@QEAA@PEAVEnvImpl@@PEAUOCIEnv@@PEAVConnImpl@@PEAUOCISvcCtx@@AEBV?$basic_string@DU?$char_traits@D@std@@V?$allocator@D@2@@std@@@Z@4HA 000000018006815c     dpiStmtImpl.obj
 0004:00003168       $pdata$__scrt_is_nonwritable_in_current_image$filt$0 0000000180068168     LIBCMT:utility.obj
 0004:00003174       $pdata$?fin$0@?0???_M@YAXPEAX_K1P6AX0@Z@Z@4HA 0000000180068174     LIBCMT:ehvecdtr.obj
 0004:00003180       $pdata$?filt$0@?0??__ArrayUnwind@@YAXPEAX_K1P6AX0@Z@Z@4HA 0000000180068180     LIBCMT:ehvecdtr.obj
 0004:0000318c       $pdata$?fin$0@?0???_L@YAXPEAX_K1P6AX0@Z2@Z@4HA 000000018006818c     LIBCMT:ehvecctr.obj
 0004:00003198       $pdata$?fin$0@?0??dllmain_crt_process_attach@@YAHQEAUHINSTANCE__@@QEAX@Z@4HA 0000000180068198     LIBCMT:dll_dllmain.obj
 0004:000031a4       $pdata$?fin$0@?0??dllmain_crt_process_detach@@YAH_N@Z@4HA 00000001800681a4     LIBCMT:dll_dllmain.obj
 0004:000031b0       $pdata$?filt$0@?0??dllmain_dispatch@@YAHQEAUHINSTANCE__@@KQEAX@Z@4HA 00000001800681b0     LIBCMT:dll_dllmain.obj
 0004:000031bc       $pdata$__CxxCallCatchBlock$filt$0 00000001800681bc     libvcruntime:frame.obj
 0004:000031c8       $pdata$__CxxCallCatchBlock$fin$1 00000001800681c8     libvcruntime:frame.obj
 0004:000031d4       $pdata$__DestructExceptionObject$filt$0 00000001800681d4     libvcruntime:frame.obj
 0004:000031e0       $pdata$__FrameUnwindToState$filt$0 00000001800681e0     libvcruntime:frame.obj
 0004:000031ec       $pdata$__FrameUnwindToState$fin$1 00000001800681ec     libvcruntime:frame.obj
 0004:000031f8       $pdata$_CallSETranslator$filt$0 00000001800681f8     libvcruntime:trnsctrl.obj
 0004:00003204       $pdata$setlocale$fin$0     0000000180068204     libucrt:setlocale.obj
 0004:00003210       $pdata$_query_new_handler$fin$0 0000000180068210     libucrt:new_handler.obj
 0004:0000321c       $pdata$?filt$0@?0??common_exit@@YAXHW4_crt_exit_cleanup_mode@@W4_crt_exit_return_mode@@@Z@4HA 000000018006821c     libucrt:exit.obj
 0004:00003228       $pdata$?fin$1@?0??common_exit@@YAXHW4_crt_exit_cleanup_mode@@W4_crt_exit_return_mode@@@Z@4HA 0000000180068228     libucrt:exit.obj
 0004:00003234       $pdata$?fin$0@?0???$?RV<lambda_e24bbb7b643b32fcea6fa61b31d4c984>@@AEAV<lambda_275893d493268fdec8709772e3fcec0e>@@V<lambda_9d71df4d7cf3f480f8d633942495c3b0>@@@?$__crt_seh_guarded_call@H@@QEAAH$$QEAV<lambda_e24bbb7b643b32fcea6fa61b31d4c984>@@AEAV<lambda_275893d493268fdec8709772e3fcec0e>@@$$QEAV<lambda_9d71df4d7cf3f480f8d633942495c3b0>@@@Z@4HA 0000000180068234     libucrt:onexit.obj
 0004:00003240       $pdata$raise$fin$0         0000000180068240     libucrt:signal.obj
 0004:0000324c       $pdata$?fin$0@?0???$?RV<lambda_c36588078e9f5dfd39652860aa6b3aaf>@@AEAV<lambda_ec61778202f4f5fc7e7711acc23c3bca>@@V<lambda_dc9d2797ccde5d239b4a0efae8ebd7db>@@@?$__crt_seh_guarded_call@P6AXH@Z@@QEAAP6AXH@Z$$QEAV<lambda_c36588078e9f5dfd39652860aa6b3aaf>@@AEAV<lambda_ec61778202f4f5fc7e7711acc23c3bca>@@$$QEAV<lambda_dc9d2797ccde5d239b4a0efae8ebd7db>@@@Z@4HA 000000018006824c     libucrt:signal.obj
 0004:0000324c       $pdata$?fin$0@?0???$?RV<lambda_72d1df2b273a38828b1ce30cbf4cdab5>@@AEAV<lambda_876a65b173b8412d3a47c70a915b0cf4>@@V<lambda_41932305e351933ebe8f8be3ed8bb5dc>@@@?$__crt_seh_guarded_call@X@@QEAAX$$QEAV<lambda_72d1df2b273a38828b1ce30cbf4cdab5>@@AEAV<lambda_876a65b173b8412d3a47c70a915b0cf4>@@$$QEAV<lambda_41932305e351933ebe8f8be3ed8bb5dc>@@@Z@4HA 000000018006824c     libucrt:per_thread_data.obj
 0004:0000324c       $pdata$?fin$0@?0???$?RV<lambda_fb3a7dec4e47f37f22dae91bb15c9095>@@AEAV<lambda_698284760c8add0bfb0756c19673e34b>@@V<lambda_dfb8eca1e75fef3034a8fb18dd509707>@@@?$__crt_seh_guarded_call@X@@QEAAX$$QEAV<lambda_fb3a7dec4e47f37f22dae91bb15c9095>@@AEAV<lambda_698284760c8add0bfb0756c19673e34b>@@$$QEAV<lambda_dfb8eca1e75fef3034a8fb18dd509707>@@@Z@4HA 000000018006824c     libucrt:per_thread_data.obj
 0004:0000324c       $pdata$?fin$0@?0???$?RV<lambda_d67e8342c384adda8f857579ab50b2ae>@@AEAV<lambda_30712929f77e709619002f448b6a9510>@@V<lambda_4525336fd7e478d965fb7ca7a337cad8>@@@?$__crt_seh_guarded_call@X@@QEAAX$$QEAV<lambda_d67e8342c384adda8f857579ab50b2ae>@@AEAV<lambda_30712929f77e709619002f448b6a9510>@@$$QEAV<lambda_4525336fd7e478d965fb7ca7a337cad8>@@@Z@4HA 000000018006824c     libucrt:wsetlocale.obj
 0004:0000324c       $pdata$?fin$0@?0???$?RV<lambda_630b2aca97f6d20d5b5ea6529ea6b6af>@@AEAV<lambda_af91936f1d075d609f72d9d8cba980af>@@V<lambda_e82fa975f615b5c7c7b0e4d178fdae67>@@@?$__crt_seh_guarded_call@H@@QEAAH$$QEAV<lambda_630b2aca97f6d20d5b5ea6529ea6b6af>@@AEAV<lambda_af91936f1d075d609f72d9d8cba980af>@@$$QEAV<lambda_e82fa975f615b5c7c7b0e4d178fdae67>@@@Z@4HA 000000018006824c     libucrt:winapi_thunks.obj
 0004:0000324c       $pdata$?fin$0@?0???$?RV<lambda_b8c45f8f788dd370798f47cfe8ac3a86>@@AEAV<lambda_4e60a939b0d047cfe11ddc22648dfba9>@@V<lambda_332c3edc96d0294ec56c57d38c1cdfd5>@@@?$__crt_seh_guarded_call@H@@QEAAH$$QEAV<lambda_b8c45f8f788dd370798f47cfe8ac3a86>@@AEAV<lambda_4e60a939b0d047cfe11ddc22648dfba9>@@$$QEAV<lambda_332c3edc96d0294ec56c57d38c1cdfd5>@@@Z@4HA 000000018006824c     libucrt:onexit.obj
 0004:0000324c       $pdata$?fin$0@?0???$?RV<lambda_5e887d1dcbef67a5eb4283622ba103bf>@@AEAV<lambda_4466841279450cc726390878d4a41900>@@V<lambda_341c25c0346d94847f1f3c463c57e077>@@@?$__crt_seh_guarded_call@X@@QEAAX$$QEAV<lambda_5e887d1dcbef67a5eb4283622ba103bf>@@AEAV<lambda_4466841279450cc726390878d4a41900>@@$$QEAV<lambda_341c25c0346d94847f1f3c463c57e077>@@@Z@4HA 000000018006824c     libucrt:per_thread_data.obj
 0004:0000324c       $pdata$?fin$0@?0???$?RV<lambda_99476a1ad63dd22509b5d3e65b0ffc95>@@AEAV<lambda_ad1ced32f4ac17aa236e5ef05d6b3b7c>@@V<lambda_f7424dd8d45958661754dc4f2697e9c3>@@@?$__crt_seh_guarded_call@X@@QEAAX$$QEAV<lambda_99476a1ad63dd22509b5d3e65b0ffc95>@@AEAV<lambda_ad1ced32f4ac17aa236e5ef05d6b3b7c>@@$$QEAV<lambda_f7424dd8d45958661754dc4f2697e9c3>@@@Z@4HA 000000018006824c     libucrt:mbctype.obj
 0004:0000324c       $pdata$?fin$0@?0???$?RV<lambda_46352004c1216016012b18bd6f87e700>@@AEAV<lambda_3bd07e1a1191394380780325891bf33f>@@V<lambda_334532d3f185bcaa59b5be82d7d22bff>@@@?$__crt_seh_guarded_call@X@@QEAAX$$QEAV<lambda_46352004c1216016012b18bd6f87e700>@@AEAV<lambda_3bd07e1a1191394380780325891bf33f>@@$$QEAV<lambda_334532d3f185bcaa59b5be82d7d22bff>@@@Z@4HA 000000018006824c     libucrt:per_thread_data.obj
 0004:00003258       $pdata$?fin$0@?0???$?RV<lambda_5df02c53a8f32f81fd64e5bbb78039f1>@@AEAV<lambda_2af78c5f5901b1372d98f9ab3177dfa6>@@AEAV<lambda_f51fe5fd7c79a33db34fc9310f277369>@@@?$__crt_seh_guarded_call@X@@QEAAX$$QEAV<lambda_5df02c53a8f32f81fd64e5bbb78039f1>@@AEAV<lambda_2af78c5f5901b1372d98f9ab3177dfa6>@@AEAV<lambda_f51fe5fd7c79a33db34fc9310f277369>@@@Z@4HA 0000000180068258     libucrt:wsetlocale.obj
 0004:00003264       $pdata$__acrt_update_thread_locale_data$fin$0 0000000180068264     libucrt:locale_refcounting.obj
 0004:00003264       $pdata$__acrt_uninitialize_locale$fin$0 0000000180068264     libucrt:wsetlocale.obj
 0004:00003270       $pdata$__acrt_initialize_lowio$fin$0 0000000180068270     libucrt:ioinit.obj
 0004:00003270       $pdata$__acrt_lowio_ensure_fh_exists$fin$0 0000000180068270     libucrt:osfinfo.obj
 0004:0000327c       $pdata$common_flush_all$fin$0 000000018006827c     libucrt:fflush.obj
 0004:00003288       $pdata$common_flush_all$fin$1 0000000180068288     libucrt:fflush.obj
 0004:00003294       $pdata$?fin$0@?0???$?RV<lambda_7a5ef57ff966f610505f1d28a3d40618>@@AEAV<lambda_b721fa326cdb32351d23dfa67958c160>@@V<lambda_5e0fb27672408a07956fe59e48ccb2aa>@@@?$__crt_seh_guarded_call@H@@QEAAH$$QEAV<lambda_7a5ef57ff966f610505f1d28a3d40618>@@AEAV<lambda_b721fa326cdb32351d23dfa67958c160>@@$$QEAV<lambda_5e0fb27672408a07956fe59e48ccb2aa>@@@Z@4HA 0000000180068294     libucrt:setvbuf.obj
 0004:00003294       $pdata$?fin$0@?0???$?RV<lambda_7b91131dde12e1c3dfc74ff76b3f2eac>@@AEAV<lambda_dd75445284c072d0bd3768540cc698fa>@@V<lambda_16bc4ecb55b4718497c16bceaea2ceaf>@@@?$__crt_seh_guarded_call@H@@QEAAH$$QEAV<lambda_7b91131dde12e1c3dfc74ff76b3f2eac>@@AEAV<lambda_dd75445284c072d0bd3768540cc698fa>@@$$QEAV<lambda_16bc4ecb55b4718497c16bceaea2ceaf>@@@Z@4HA 0000000180068294     libucrt:output.obj
 0004:000032a0       $pdata$__acrt_update_thread_multibyte_data$fin$0 00000001800682a0     libucrt:mbctype.obj
 0004:000032ac       $pdata$_fcloseall$fin$0    00000001800682ac     libucrt:closeall.obj
 0004:000032b8       $pdata$?fin$0@?0???$common_lseek@_J@@YA_JH_JH@Z@4HA 00000001800682b8     libucrt:lseek.obj
 0004:000032b8       $pdata$_write$fin$0        00000001800682b8     libucrt:write.obj
 0004:000032c4       $pdata$fflush$fin$0        00000001800682c4     libucrt:fflush.obj
 0004:000032c4       $pdata$fclose$fin$0        00000001800682c4     libucrt:fclose.obj
 0004:000032d0       $pdata$common_control87$filt$0 00000001800682d0     libucrt:ieee.obj
 0004:000032d0       $pdata$_ctrlfp$filt$0      00000001800682d0     libucrt:fpctrl.obj
 0004:000032dc       $pdata$?fin$0@?0???$?RV<lambda_bfedae4ebbf01fab1bb6dcc6a9e276e0>@@AEAV<lambda_2fe9b910cf3cbf4a0ab98a02ba45b3ec>@@V<lambda_237c231691f317818eb88cc1d5d642d6>@@@?$__crt_seh_guarded_call@H@@QEAAH$$QEAV<lambda_bfedae4ebbf01fab1bb6dcc6a9e276e0>@@AEAV<lambda_2fe9b910cf3cbf4a0ab98a02ba45b3ec>@@$$QEAV<lambda_237c231691f317818eb88cc1d5d642d6>@@@Z@4HA 00000001800682dc     libucrt:close.obj
 0004:000032dc       $pdata$?fin$0@?0???$?RV<lambda_b521505b218e5242e90febf6bfebc422>@@AEAV<lambda_6978c1fb23f02e42e1d9e99668cc68aa>@@V<lambda_314360699dd331753a4119843814e9a7>@@@?$__crt_seh_guarded_call@H@@QEAAH$$QEAV<lambda_b521505b218e5242e90febf6bfebc422>@@AEAV<lambda_6978c1fb23f02e42e1d9e99668cc68aa>@@$$QEAV<lambda_314360699dd331753a4119843814e9a7>@@@Z@4HA 00000001800682dc     libucrt:commit.obj
 0004:000032e8       $pdata$_IsNonwritableInCurrentImage$filt$0 00000001800682e8     LIBCMT:pesect.obj
 0004:000032f4       $pdata$??__F?oracledbTemplate_s@Oracledb@@0V?$Persistent@VFunctionTemplate@v8@@V?$NonCopyablePersistentTraits@VFunctionTemplate@v8@@@2@@Nan@@A@@YAXXZ 00000001800682f4     njsOracle.obj
 0004:00003300       $pdata$??__F?poolTemplate_s@Pool@@2V?$Persistent@VFunctionTemplate@v8@@V?$NonCopyablePersistentTraits@VFunctionTemplate@v8@@@2@@Nan@@A@@YAXXZ 0000000180068300     njsPool.obj
 0004:0000330c       $pdata$??__F?connectionTemplate_s@Connection@@2V?$Persistent@VFunctionTemplate@v8@@V?$NonCopyablePersistentTraits@VFunctionTemplate@v8@@@2@@Nan@@A@@YAXXZ 000000018006830c     njsConnection.obj
 0004:00003318       $pdata$??__F?resultSetTemplate_s@ResultSet@@2V?$Persistent@VFunctionTemplate@v8@@V?$NonCopyablePersistentTraits@VFunctionTemplate@v8@@@2@@Nan@@A@@YAXXZ 0000000180068318     njsResultSet.obj
 0004:00003324       $pdata$??__F?iLobTemplate_s@ILob@@2V?$Persistent@VFunctionTemplate@v8@@V?$NonCopyablePersistentTraits@VFunctionTemplate@v8@@@2@@Nan@@A@@YAXXZ 0000000180068324     njsIntLob.obj
 0004:00003330       $pdata$??__F_Fac_tidy_reg@std@@YAXXZ 0000000180068330     libcpmt:locale0.obj
 0004:0000333c       $pdata$??__Fclassic_locale@std@@YAXXZ 000000018006833c     libcpmt:locale0.obj
 0004:00003348       $pdata$??__Finit_atexit@@YAXXZ 0000000180068348     libcpmt:iosptrs.obj
 0005:00000000       __guard_fids__             0000000180069000     libucrt:initialization.obj
 0005:00000060       __guard_fids___acrt_initialize_ptd 0000000180069060     libucrt:per_thread_data.obj
 0005:00000064       __guard_fids__             0000000180069064     libucrt:wsetlocale.obj
 0005:0000007c       __guard_fids___acrt_show_wide_message_box 000000018006907c     libucrt:crtmbox.obj
 0005:00000080       __guard_fids_??$?RV<lambda_630b2aca97f6d20d5b5ea6529ea6b6af>@@AEAV<lambda_af91936f1d075d609f72d9d8cba980af>@@V<lambda_e82fa975f615b5c7c7b0e4d178fdae67>@@@?$__crt_seh_guarded_call@H@@QEAAH$$QEAV<lambda_630b2aca97f6d20d5b5ea6529ea6b6af>@@AEAV<lambda_af91936f1d075d609f72d9d8cba980af>@@$$QEAV<lambda_e82fa975f615b5c7c7b0e4d178fdae67>@@@Z 0000000180069080     libucrt:winapi_thunks.obj
 0005:00000084       __guard_fids__             0000000180069084     libucrt:stdio_initializer.obj
 0005:00000088       __guard_fids__             0000000180069088     libucrt:stdio_initializer.obj
 0005:0000008c       __guard_fids__             000000018006908c     libucrt:locale_initializer.obj
 0005:00000090       __guard_fids_GetLocaleNameFromLangCountry 0000000180069090     libucrt:get_qualified_locale.obj
 0005:00000094       __guard_fids_GetLocaleNameFromLanguage 0000000180069094     libucrt:get_qualified_locale.obj
 0005:00000098       __guard_fids___acrt_get_qualified_locale_downlevel 0000000180069098     libucrt:getqloc_downlevel.obj
 0005:0000009c       __guard_fids_GetLcidFromLangCountry 000000018006909c     libucrt:getqloc_downlevel.obj
 0005:000000a0       __guard_fids_GetLcidFromLanguage 00000001800690a0     libucrt:getqloc_downlevel.obj
 0005:000000a4       __guard_fids__             00000001800690a4     libucrt:timeset_initializer.obj
 0005:000000a8       __guard_fids__             00000001800690a8     libucrt:multibyte_initializer.obj
 0005:000000ac       __guard_fids__             00000001800690ac     libucrt:fma3_initializer.obj
 0005:000000b0       __guard_fids__             00000001800690b0     libucrt:console_output_initializer.obj
 0005:000000b4       __guard_fids_??__Einitlocks@std@@YAXXZ 00000001800690b4     libcpmt:xlock.obj
 0005:000000b8       __guard_fids__             00000001800690b8     libcpmt:xlock.obj
 0005:000000bc       __guard_fids_??__E_Fac_tidy_reg@std@@YAXXZ 00000001800690bc     libcpmt:locale0.obj
 0005:000000c0       __guard_fids_?_Setgloballocale@locale@std@@CAXPEAX@Z 00000001800690c0     libcpmt:locale0.obj
 0005:000000c4       __guard_fids_??__Eclassic_locale@std@@YAXXZ 00000001800690c4     libcpmt:locale0.obj
 0005:000000c8       __guard_fids__             00000001800690c8     libcpmt:locale0.obj
 0005:000000d4       __guard_fids__             00000001800690d4     libcpmt:locale0.obj
 0005:000000e0       __guard_fids__             00000001800690e0     libcpmt:locale0.obj
 0005:000000e4       __guard_fids__             00000001800690e4     libcpmt:locale0.obj
 0005:000000e8       __guard_fids__             00000001800690e8     libcpmt:xthrow.obj
 0005:000000f0       __guard_fids__             00000001800690f0     libcpmt:xthrow.obj
 0005:000000f8       __guard_fids__             00000001800690f8     libcpmt:xthrow.obj
 0005:00000100       __guard_fids__             0000000180069100     libcpmt:xthrow.obj
 0005:00000108       __guard_fids__             0000000180069108     libcpmt:xthrow.obj
 0005:00000110       __guard_fids__             0000000180069110     libcpmt:xthrow.obj
 0005:00000118       __guard_fids_?setw@std@@YA?AU?$_Smanip@_J@1@_J@Z 0000000180069118     libcpmt:iomanip.obj
 0005:0000011c       __guard_fids_??__Einitlocks@std@@YAXXZ 000000018006911c     libcpmt:iosptrs.obj
 0005:00000120       __guard_fids_??__Einit_atexit@@YAXXZ 0000000180069120     libcpmt:iosptrs.obj
 0005:00000124       __guard_fids__             0000000180069124     libcpmt:iosptrs.obj
 0005:00000128       __guard_fids__             0000000180069128     libcpmt:iosptrs.obj
 0005:0000012c       __guard_fids__             000000018006912c     libcpmt:locale.obj
 0005:00000158       __guard_fids__             0000000180069158     libcpmt:locale.obj
 0005:00000184       __guard_fids__             0000000180069184     libcpmt:locale.obj
 0005:000001a4       __guard_fids__             00000001800691a4     libcpmt:winapisupp.obj
 0005:000001a8       __guard_fids__             00000001800691a8     LIBCMT:thread_safe_statics.obj
 0005:000001ac       __guard_fids_?__scrt_initialize_thread_safe_statics@@YAHXZ 00000001800691ac     LIBCMT:thread_safe_statics.obj
 0005:000001b0       __guard_fids__             00000001800691b0     LIBCMT:std_type_info_static.obj
 0005:000001b4       __guard_fids_?dllmain_crt_process_attach@@YAHQEAUHINSTANCE__@@QEAX@Z 00000001800691b4     LIBCMT:dll_dllmain.obj
 0005:000001bc       __guard_fids_?dllmain_dispatch@@YAHQEAUHINSTANCE__@@KQEAX@Z 00000001800691bc     LIBCMT:dll_dllmain.obj
 0005:000001c0       __guard_fids__             00000001800691c0     LIBCMT:throw_bad_alloc.obj
 0005:000001c8       __guard_fids__             00000001800691c8     LIBCMT:guard_support.obj
 0005:000001cc       __guard_fids__             00000001800691cc     libvcruntime:frame.obj
 0005:000001d0       __guard_fids__             00000001800691d0     libvcruntime:frame.obj
 0005:000001d8       __guard_fids__UnwindNestedFrames 00000001800691d8     libvcruntime:trnsctrl.obj
 0005:000001dc       __guard_fids__             00000001800691dc     libvcruntime:telemetry.obj
 0005:000001e0       __guard_fids_?TraceLoggingRegister@__vcrt_trace_logging_provider@@YAJPEBU_TlgProvider_t@1@PEBU_GUID@@P6AX1KE_K2PEAU_EVENT_FILTER_DESCRIPTOR@@PEAX@Z4@Z 00000001800691e0     libvcruntime:telemetry.obj
 0005:000001e4       __guard_fids___vcrt_initialize_ptd 00000001800691e4     libvcruntime:per_thread_data.obj
 0007:00000060       $R000000                   000000018006b060     * linker generated manifest res *

 Exports

  ordinal    name

        1    _register_oracledb_
